

Microchip MPLAB XC8 Assembler V2.45 build 20230818022343 
                                                                                               Wed Jan  3 11:17:58 2024

Microchip MPLAB XC8 C Compiler v2.45 (Free license) build 20230818022343 Og9 
     1                           	processor	16F887
     2                           	pagewidth 120
     3                           	opt	flic
     4                           	psect	idataBANK1,global,class=CODE,delta=2,noexec
     5                           	psect	strings,global,class=STRING,delta=2,noexec
     6                           	psect	cinit,global,class=CODE,merge=1,delta=2
     7                           	psect	dataBANK1,global,class=BANK1,space=1,delta=1,noexec
     8                           	psect	inittext,global,class=CODE,delta=2
     9                           	psect	cstackCOMMON,global,class=COMMON,space=1,delta=1,noexec
    10                           	psect	cstackBANK0,global,class=BANK0,space=1,delta=1,noexec
    11                           	psect	maintext,global,class=CODE,split=1,delta=2
    12                           	psect	text1,local,class=CODE,merge=1,delta=2
    13                           	psect	text2,local,class=CODE,merge=1,delta=2
    14                           	psect	text3,local,class=CODE,merge=1,delta=2,group=1
    15                           	psect	text4,local,class=CODE,merge=1,delta=2,group=1
    16                           	psect	text5,local,class=CODE,merge=1,delta=2,group=1
    17                           	psect	text6,local,class=CODE,merge=1,delta=2,group=1
    18                           	psect	text7,local,class=CODE,merge=1,delta=2
    19                           	psect	text8,local,class=CODE,merge=1,delta=2
    20                           	psect	text9,local,class=CODE,merge=1,delta=2
    21                           	psect	text10,local,class=CODE,merge=1,delta=2
    22                           	psect	text11,local,class=CODE,merge=1,delta=2,group=1
    23                           	psect	text12,local,class=CODE,merge=1,delta=2,group=1
    24                           	psect	text13,local,class=CODE,merge=1,delta=2
    25                           	psect	text14,local,class=CODE,merge=1,delta=2
    26                           	psect	text15,local,class=CODE,merge=1,delta=2
    27                           	psect	text16,local,class=CODE,merge=1,delta=2
    28                           	psect	text17,local,class=CODE,merge=1,delta=2
    29                           	psect	text18,local,class=CODE,merge=1,delta=2
    30                           	psect	text19,local,class=CODE,merge=1,delta=2
    31                           	psect	text20,local,class=CODE,merge=1,delta=2
    32                           	psect	config,global,abs,ovrld,class=CONFIG,space=4,delta=2,noexec
    33                           	dabs	1,0x7E,2
    34     0000                     
    35                           ; Generated 12/10/2023 GMT
    36                           ; 
    37                           ; Copyright © 2023, Microchip Technology Inc. and its subsidiaries ("Microchip")
    38                           ; All rights reserved.
    39                           ; 
    40                           ; This software is developed by Microchip Technology Inc. and its subsidiaries ("Microch
      +                          ip").
    41                           ; 
    42                           ; Redistribution and use in source and binary forms, with or without modification, are
    43                           ; permitted provided that the following conditions are met:
    44                           ; 
    45                           ;     1. Redistributions of source code must retain the above copyright notice, this lis
      +                          t of
    46                           ;        conditions and the following disclaimer.
    47                           ; 
    48                           ;     2. Redistributions in binary form must reproduce the above copyright notice, this 
      +                          list
    49                           ;        of conditions and the following disclaimer in the documentation and/or other
    50                           ;        materials provided with the distribution. Publication is not required when
    51                           ;        this file is used in an embedded application.
    52                           ; 
    53                           ;     3. Microchip's name may not be used to endorse or promote products derived from th
      +                          is
    54                           ;        software without specific prior written permission.
    55                           ; 
    56                           ; THIS SOFTWARE IS PROVIDED BY MICROCHIP "AS IS" AND ANY EXPRESS OR IMPLIED WARRANTIES,
    57                           ; INCLUDING, BUT NOT LIMITED TO, THE IMPLIED WARRANTIES OF MERCHANTABILITY AND FITNESS F
      +                          OR
    58                           ; PURPOSE ARE DISCLAIMED.  IN NO EVENT SHALL MICROCHIP BE LIABLE FOR ANY DIRECT, INDIREC
      +                          T,
    59                           ; INCIDENTAL, SPECIAL, EXEMPLARY, OR CONSEQUENTIAL DAMAGES (INCLUDING BUT NOT LIMITED TO
    60                           ; PROCUREMENT OF SUBSTITUTE GOODS OR SERVICES; LOSS OF USE, DATA OR PROFITS; OR BUSINESS
    61                           ; INTERRUPTION) HOWSOEVER CAUSED AND ON ANY THEORY OF LIABILITY, WHETHER IN CONTRACT, ST
      +                          RICT
    62                           ; LIABILITY, OR TORT (INCLUDING NEGLIGENCE OR OTHERWISE) ARISING IN ANY WAY OUT OF THE U
      +                          SE OF
    63                           ; THIS SOFTWARE, EVEN IF ADVISED OF THE POSSIBILITY OF SUCH DAMAGE.
    64                           ; 
    65                           ; 
    66                           ; Code-generator required, PIC16F887 Definitions
    67                           ; 
    68                           ; SFR Addresses
    69     0000                     	;# 
    70     0001                     	;# 
    71     0002                     	;# 
    72     0003                     	;# 
    73     0004                     	;# 
    74     0005                     	;# 
    75     0006                     	;# 
    76     0007                     	;# 
    77     0008                     	;# 
    78     0009                     	;# 
    79     000A                     	;# 
    80     000B                     	;# 
    81     000C                     	;# 
    82     000D                     	;# 
    83     000E                     	;# 
    84     000E                     	;# 
    85     000F                     	;# 
    86     0010                     	;# 
    87     0011                     	;# 
    88     0012                     	;# 
    89     0013                     	;# 
    90     0014                     	;# 
    91     0015                     	;# 
    92     0015                     	;# 
    93     0016                     	;# 
    94     0017                     	;# 
    95     0018                     	;# 
    96     0019                     	;# 
    97     001A                     	;# 
    98     001B                     	;# 
    99     001B                     	;# 
   100     001C                     	;# 
   101     001D                     	;# 
   102     001E                     	;# 
   103     001F                     	;# 
   104     0081                     	;# 
   105     0085                     	;# 
   106     0086                     	;# 
   107     0087                     	;# 
   108     0088                     	;# 
   109     0089                     	;# 
   110     008C                     	;# 
   111     008D                     	;# 
   112     008E                     	;# 
   113     008F                     	;# 
   114     0090                     	;# 
   115     0091                     	;# 
   116     0092                     	;# 
   117     0093                     	;# 
   118     0093                     	;# 
   119     0093                     	;# 
   120     0094                     	;# 
   121     0095                     	;# 
   122     0096                     	;# 
   123     0097                     	;# 
   124     0098                     	;# 
   125     0099                     	;# 
   126     009A                     	;# 
   127     009B                     	;# 
   128     009C                     	;# 
   129     009D                     	;# 
   130     009E                     	;# 
   131     009F                     	;# 
   132     0105                     	;# 
   133     0107                     	;# 
   134     0108                     	;# 
   135     0109                     	;# 
   136     010C                     	;# 
   137     010C                     	;# 
   138     010D                     	;# 
   139     010E                     	;# 
   140     010F                     	;# 
   141     0185                     	;# 
   142     0187                     	;# 
   143     0188                     	;# 
   144     0189                     	;# 
   145     018C                     	;# 
   146     018D                     	;# 
   147     0000                     	;# 
   148     0001                     	;# 
   149     0002                     	;# 
   150     0003                     	;# 
   151     0004                     	;# 
   152     0005                     	;# 
   153     0006                     	;# 
   154     0007                     	;# 
   155     0008                     	;# 
   156     0009                     	;# 
   157     000A                     	;# 
   158     000B                     	;# 
   159     000C                     	;# 
   160     000D                     	;# 
   161     000E                     	;# 
   162     000E                     	;# 
   163     000F                     	;# 
   164     0010                     	;# 
   165     0011                     	;# 
   166     0012                     	;# 
   167     0013                     	;# 
   168     0014                     	;# 
   169     0015                     	;# 
   170     0015                     	;# 
   171     0016                     	;# 
   172     0017                     	;# 
   173     0018                     	;# 
   174     0019                     	;# 
   175     001A                     	;# 
   176     001B                     	;# 
   177     001B                     	;# 
   178     001C                     	;# 
   179     001D                     	;# 
   180     001E                     	;# 
   181     001F                     	;# 
   182     0081                     	;# 
   183     0085                     	;# 
   184     0086                     	;# 
   185     0087                     	;# 
   186     0088                     	;# 
   187     0089                     	;# 
   188     008C                     	;# 
   189     008D                     	;# 
   190     008E                     	;# 
   191     008F                     	;# 
   192     0090                     	;# 
   193     0091                     	;# 
   194     0092                     	;# 
   195     0093                     	;# 
   196     0093                     	;# 
   197     0093                     	;# 
   198     0094                     	;# 
   199     0095                     	;# 
   200     0096                     	;# 
   201     0097                     	;# 
   202     0098                     	;# 
   203     0099                     	;# 
   204     009A                     	;# 
   205     009B                     	;# 
   206     009C                     	;# 
   207     009D                     	;# 
   208     009E                     	;# 
   209     009F                     	;# 
   210     0105                     	;# 
   211     0107                     	;# 
   212     0108                     	;# 
   213     0109                     	;# 
   214     010C                     	;# 
   215     010C                     	;# 
   216     010D                     	;# 
   217     010E                     	;# 
   218     010F                     	;# 
   219     0185                     	;# 
   220     0187                     	;# 
   221     0188                     	;# 
   222     0189                     	;# 
   223     018C                     	;# 
   224     018D                     	;# 
   225     0000                     	;# 
   226     0001                     	;# 
   227     0002                     	;# 
   228     0003                     	;# 
   229     0004                     	;# 
   230     0005                     	;# 
   231     0006                     	;# 
   232     0007                     	;# 
   233     0008                     	;# 
   234     0009                     	;# 
   235     000A                     	;# 
   236     000B                     	;# 
   237     000C                     	;# 
   238     000D                     	;# 
   239     000E                     	;# 
   240     000E                     	;# 
   241     000F                     	;# 
   242     0010                     	;# 
   243     0011                     	;# 
   244     0012                     	;# 
   245     0013                     	;# 
   246     0014                     	;# 
   247     0015                     	;# 
   248     0015                     	;# 
   249     0016                     	;# 
   250     0017                     	;# 
   251     0018                     	;# 
   252     0019                     	;# 
   253     001A                     	;# 
   254     001B                     	;# 
   255     001B                     	;# 
   256     001C                     	;# 
   257     001D                     	;# 
   258     001E                     	;# 
   259     001F                     	;# 
   260     0081                     	;# 
   261     0085                     	;# 
   262     0086                     	;# 
   263     0087                     	;# 
   264     0088                     	;# 
   265     0089                     	;# 
   266     008C                     	;# 
   267     008D                     	;# 
   268     008E                     	;# 
   269     008F                     	;# 
   270     0090                     	;# 
   271     0091                     	;# 
   272     0092                     	;# 
   273     0093                     	;# 
   274     0093                     	;# 
   275     0093                     	;# 
   276     0094                     	;# 
   277     0095                     	;# 
   278     0096                     	;# 
   279     0097                     	;# 
   280     0098                     	;# 
   281     0099                     	;# 
   282     009A                     	;# 
   283     009B                     	;# 
   284     009C                     	;# 
   285     009D                     	;# 
   286     009E                     	;# 
   287     009F                     	;# 
   288     0105                     	;# 
   289     0107                     	;# 
   290     0108                     	;# 
   291     0109                     	;# 
   292     010C                     	;# 
   293     010C                     	;# 
   294     010D                     	;# 
   295     010E                     	;# 
   296     010F                     	;# 
   297     0185                     	;# 
   298     0187                     	;# 
   299     0188                     	;# 
   300     0189                     	;# 
   301     018C                     	;# 
   302     018D                     	;# 
   303                           
   304                           	psect	idataBANK1
   305     0CB7                     __pidataBANK1:
   306                           
   307                           ;initializer for main@F1466
   308     0CB7  3407               	retlw	7
   309     0CB8  3400               	retlw	0
   310     0CB9  3401               	retlw	1
   311     0CBA  3402               	retlw	2
   312     0CBB  3404               	retlw	4
   313     0CBC  3405               	retlw	5
   314     0CBD  3406               	retlw	6
   315     0CBE  3407               	retlw	7
   316     001E                     _ADRESH	set	30
   317     001F                     _ADCON0bits	set	31
   318     001F                     _ADCON0	set	31
   319     000B                     _INTCONbits	set	11
   320     0006                     _PORTBbits	set	6
   321     0001                     _TMR0	set	1
   322     0015                     _CCPR1L	set	21
   323     0017                     _CCP1CON	set	23
   324     0012                     _T2CON	set	18
   325     0007                     _PORTC	set	7
   326     009E                     _ADRESL	set	158
   327     009F                     _ADCON1	set	159
   328     0081                     _OPTION_REGbits	set	129
   329     0086                     _TRISBbits	set	134
   330     0092                     _PR2	set	146
   331     0087                     _TRISC	set	135
   332     008F                     _OSCCON	set	143
   333     0188                     _ANSEL	set	392
   334     0189                     _ANSELH	set	393
   335                           
   336                           	psect	strings
   337     0800                     __pstrings:
   338     0800                     stringtab:
   339     0800                     __stringtab:
   340     0800                     stringcode:	
   341                           ;	String table - string pointers are 1 byte each
   342                           
   343     0800                     stringdir:
   344     0800  3008               	movlw	high stringdir
   345     0801  008A               	movwf	10
   346     0802  0804               	movf	4,w
   347     0803  0A84               	incf	4,f
   348     0804  0782               	addwf	2,f
   349     0805                     __stringbase:
   350     0805  3400               	retlw	0
   351     0806                     __end_of__stringtab:
   352     0806                     STR_1:
   353     0806  3443               	retlw	67	;'C'
   354     0807  344F               	retlw	79	;'O'
   355     0808  344F               	retlw	79	;'O'
   356     0809  344C               	retlw	76	;'L'
   357     080A  3445               	retlw	69	;'E'
   358     080B  3452               	retlw	82	;'R'
   359     080C  3420               	retlw	32	;' '
   360     080D  3452               	retlw	82	;'R'
   361     080E  3450               	retlw	80	;'P'
   362     080F  344D               	retlw	77	;'M'
   363     0810  3420               	retlw	32	;' '
   364     0811  3443               	retlw	67	;'C'
   365     0812  346F               	retlw	111	;'o'
   366     0813  3475               	retlw	117	;'u'
   367     0814  346E               	retlw	110	;'n'
   368     0815  3474               	retlw	116	;'t'
   369     0816  3465               	retlw	101	;'e'
   370     0817  3472               	retlw	114	;'r'
   371     0818  3400               	retlw	0
   372                           
   373                           	psect	cinit
   374     07F0                     start_initialization:	
   375                           ; #config settings
   376                           
   377     07F0                     __initialization:
   378                           
   379                           ; Initialize objects allocated to BANK1
   380     07F0  1383               	bcf	3,7	;select IRP bank0
   381     07F1  30A8               	movlw	low (__pdataBANK1+8)
   382     07F2  00FD               	movwf	btemp+-1
   383     07F3  300C               	movlw	high __pidataBANK1
   384     07F4  00FE               	movwf	btemp
   385     07F5  30B7               	movlw	low __pidataBANK1
   386     07F6  00FF               	movwf	btemp+1
   387     07F7  30A0               	movlw	low __pdataBANK1
   388     07F8  0084               	movwf	4
   389     07F9  120A  158A  24F6   	fcall	init_ram0
   390     07FC                     end_of_initialization:	
   391                           ;End of C runtime variable initialization code
   392                           
   393     07FC                     __end_of__initialization:
   394     07FC  0183               	clrf	3
   395     07FD  120A  118A  286A   	ljmp	_main	;jump to C main() function
   396                           
   397                           	psect	dataBANK1
   398     00A0                     __pdataBANK1:
   399     00A0                     main@F1466:
   400     00A0                     	ds	8
   401                           
   402                           	psect	inittext
   403     0CF2                     init_fetch0:	
   404                           ;	Called with low address in FSR and high address in W
   405                           
   406     0CF2  087E               	movf	126,w
   407     0CF3  008A               	movwf	10
   408     0CF4  087F               	movf	127,w
   409     0CF5  0082               	movwf	2
   410     0CF6                     init_ram0:	
   411                           ;Called with:
   412                           ;	high address of idata address in btemp 
   413                           ;	low address of idata address in btemp+1 
   414                           ;	low address of data in FSR
   415                           ;	high address + 1 of data in btemp-1
   416                           
   417     0CF6  24F2  120A  158A   	fcall	init_fetch0
   418     0CF9  0080               	movwf	0
   419     0CFA  0A84               	incf	4,f
   420     0CFB  0804               	movf	4,w
   421     0CFC  067D               	xorwf	125,w
   422     0CFD  1903               	btfsc	3,2
   423     0CFE  3400               	retlw	0
   424     0CFF  0AFF               	incf	127,f
   425     0D00  1903               	btfsc	3,2
   426     0D01  0AFE               	incf	126,f
   427     0D02  2CF6               	goto	init_ram0
   428                           
   429                           	psect	cstackCOMMON
   430     0070                     __pcstackCOMMON:
   431     0070                     ?___flge:
   432     0070                     ?_Lcd_Init:	
   433                           ; 1 bit 
   434                           
   435     0070                     ?_Lcd_Clear:	
   436                           ; 1 bytes @ 0x0
   437                           
   438     0070                     ?_initPWM:	
   439                           ; 1 bytes @ 0x0
   440                           
   441     0070                     ??_initPWM:	
   442                           ; 1 bytes @ 0x0
   443                           
   444     0070                     ?_initRPM:	
   445                           ; 1 bytes @ 0x0
   446                           
   447     0070                     ??_initRPM:	
   448                           ; 1 bytes @ 0x0
   449                           
   450     0070                     ?_initADC:	
   451                           ; 1 bytes @ 0x0
   452                           
   453     0070                     ??_initADC:	
   454                           ; 1 bytes @ 0x0
   455                           
   456     0070                     ?_main:	
   457                           ; 1 bytes @ 0x0
   458                           
   459     0070                     ?_SetBit:	
   460                           ; 1 bytes @ 0x0
   461                           
   462     0070                     ?_PulseEnable:	
   463                           ; 1 bytes @ 0x0
   464                           
   465     0070                     ?__Umul8_16:	
   466                           ; 1 bytes @ 0x0
   467                           
   468     0070                     ?_countPulses:	
   469                           ; 2 bytes @ 0x0
   470                           
   471     0070                     ?_readADC:	
   472                           ; 2 bytes @ 0x0
   473                           
   474     0070                     ?___xxtofl:	
   475                           ; 2 bytes @ 0x0
   476                           
   477     0070                     __Umul8_16@multiplicand:	
   478                           ; 4 bytes @ 0x0
   479                           
   480     0070                     SetBit@port:	
   481                           ; 1 bytes @ 0x0
   482                           
   483     0070                     ___flge@ff1:	
   484                           ; 2 bytes @ 0x0
   485                           
   486     0070                     ___xxtofl@val:	
   487                           ; 4 bytes @ 0x0
   488                           
   489                           
   490                           ; 4 bytes @ 0x0
   491     0070                     	ds	2
   492     0072                     ??__Umul8_16:
   493     0072                     ??_countPulses:	
   494                           ; 1 bytes @ 0x2
   495                           
   496     0072                     ??_readADC:	
   497                           ; 1 bytes @ 0x2
   498                           
   499     0072                     SetBit@pin:	
   500                           ; 1 bytes @ 0x2
   501                           
   502     0072                     countPulses@pulseCount:	
   503                           ; 1 bytes @ 0x2
   504                           
   505                           
   506                           ; 2 bytes @ 0x2
   507     0072                     	ds	1
   508     0073                     SetBit@value:
   509                           
   510                           ; 1 bytes @ 0x3
   511     0073                     	ds	1
   512     0074                     ??_SetBit:
   513     0074                     ??___xxtofl:	
   514                           ; 1 bytes @ 0x4
   515                           
   516     0074                     countPulses@lastState:	
   517                           ; 1 bytes @ 0x4
   518                           
   519     0074                     __Umul8_16@product:	
   520                           ; 1 bytes @ 0x4
   521                           
   522     0074                     ___flge@ff2:	
   523                           ; 2 bytes @ 0x4
   524                           
   525                           
   526                           ; 4 bytes @ 0x4
   527     0074                     	ds	1
   528     0075                     countPulses@currentState:
   529                           
   530                           ; 1 bytes @ 0x5
   531     0075                     	ds	1
   532     0076                     ??_PulseEnable:
   533     0076                     __Umul8_16@word_mpld:	
   534                           ; 1 bytes @ 0x6
   535                           
   536                           
   537                           ; 2 bytes @ 0x6
   538     0076                     	ds	2
   539     0078                     ??___flge:
   540     0078                     PulseEnable@config:	
   541                           ; 1 bytes @ 0x8
   542                           
   543     0078                     __Umul8_16@multiplier:	
   544                           ; 1 bytes @ 0x8
   545                           
   546     0078                     ___xxtofl@sign:	
   547                           ; 1 bytes @ 0x8
   548                           
   549                           
   550                           ; 1 bytes @ 0x8
   551     0078                     	ds	1
   552     0079                     ?_Lcd_Command:
   553     0079                     ?_Lcd_WriteChar:	
   554                           ; 1 bytes @ 0x9
   555                           
   556     0079                     Lcd_Command@cmd:	
   557                           ; 1 bytes @ 0x9
   558                           
   559     0079                     Lcd_WriteChar@data:	
   560                           ; 1 bytes @ 0x9
   561                           
   562     0079                     ___xxtofl@exp:	
   563                           ; 1 bytes @ 0x9
   564                           
   565                           
   566                           ; 1 bytes @ 0x9
   567     0079                     	ds	1
   568     007A                     ??_Lcd_Command:
   569     007A                     ??_Lcd_WriteChar:	
   570                           ; 1 bytes @ 0xA
   571                           
   572     007A                     ___xxtofl@arg:	
   573                           ; 1 bytes @ 0xA
   574                           
   575                           
   576                           ; 4 bytes @ 0xA
   577     007A                     	ds	2
   578     007C                     Lcd_Command@config:
   579     007C                     Lcd_WriteChar@config:	
   580                           ; 1 bytes @ 0xC
   581                           
   582                           
   583                           ; 1 bytes @ 0xC
   584     007C                     	ds	1
   585     007D                     ?_Lcd_WriteString:
   586     007D                     Lcd_WriteString@str:	
   587                           ; 1 bytes @ 0xD
   588                           
   589     007D                     Lcd_Clear@config:	
   590                           ; 1 bytes @ 0xD
   591                           
   592                           
   593                           ; 1 bytes @ 0xD
   594     007D                     	ds	1
   595     007E                     ??_readTemperature:
   596                           
   597                           	psect	cstackBANK0
   598     0020                     __pcstackBANK0:	
   599                           ; 1 bytes @ 0xE
   600                           
   601     0020                     ??_Lcd_Clear:
   602     0020                     ?_Lcd_SetCursor:	
   603                           ; 1 bytes @ 0x0
   604                           
   605     0020                     ??_Lcd_WriteString:	
   606                           ; 1 bytes @ 0x0
   607                           
   608     0020                     ?___fldiv:	
   609                           ; 1 bytes @ 0x0
   610                           
   611     0020                     Lcd_SetCursor@row:	
   612                           ; 4 bytes @ 0x0
   613                           
   614     0020                     ___fldiv@a:	
   615                           ; 1 bytes @ 0x0
   616                           
   617                           
   618                           ; 4 bytes @ 0x0
   619     0020                     	ds	1
   620     0021                     Lcd_WriteString@config:
   621     0021                     Lcd_SetCursor@column:	
   622                           ; 1 bytes @ 0x1
   623                           
   624                           
   625                           ; 1 bytes @ 0x1
   626     0021                     	ds	1
   627     0022                     ??_Lcd_Init:
   628     0022                     ??_Lcd_SetCursor:	
   629                           ; 1 bytes @ 0x2
   630                           
   631                           
   632                           ; 1 bytes @ 0x2
   633     0022                     	ds	2
   634     0024                     Lcd_Init@config:
   635     0024                     Lcd_SetCursor@config:	
   636                           ; 1 bytes @ 0x4
   637                           
   638     0024                     ___fldiv@b:	
   639                           ; 1 bytes @ 0x4
   640                           
   641                           
   642                           ; 4 bytes @ 0x4
   643     0024                     	ds	1
   644     0025                     Lcd_SetCursor@address:
   645                           
   646                           ; 1 bytes @ 0x5
   647     0025                     	ds	3
   648     0028                     ??___fldiv:
   649                           
   650                           ; 1 bytes @ 0x8
   651     0028                     	ds	5
   652     002D                     ___fldiv@rem:
   653                           
   654                           ; 4 bytes @ 0xD
   655     002D                     	ds	4
   656     0031                     ___fldiv@sign:
   657                           
   658                           ; 1 bytes @ 0x11
   659     0031                     	ds	1
   660     0032                     ___fldiv@new_exp:
   661                           
   662                           ; 2 bytes @ 0x12
   663     0032                     	ds	2
   664     0034                     ___fldiv@grs:
   665                           
   666                           ; 4 bytes @ 0x14
   667     0034                     	ds	4
   668     0038                     ___fldiv@bexp:
   669                           
   670                           ; 1 bytes @ 0x18
   671     0038                     	ds	1
   672     0039                     ___fldiv@aexp:
   673                           
   674                           ; 1 bytes @ 0x19
   675     0039                     	ds	1
   676     003A                     ?___flmul:
   677     003A                     ___flmul@b:	
   678                           ; 4 bytes @ 0x1A
   679                           
   680                           
   681                           ; 4 bytes @ 0x1A
   682     003A                     	ds	4
   683     003E                     ___flmul@a:
   684                           
   685                           ; 4 bytes @ 0x1E
   686     003E                     	ds	4
   687     0042                     ??___flmul:
   688                           
   689                           ; 1 bytes @ 0x22
   690     0042                     	ds	5
   691     0047                     ___flmul@sign:
   692                           
   693                           ; 1 bytes @ 0x27
   694     0047                     	ds	1
   695     0048                     ___flmul@aexp:
   696                           
   697                           ; 1 bytes @ 0x28
   698     0048                     	ds	1
   699     0049                     ___flmul@grs:
   700                           
   701                           ; 4 bytes @ 0x29
   702     0049                     	ds	4
   703     004D                     ___flmul@bexp:
   704                           
   705                           ; 1 bytes @ 0x2D
   706     004D                     	ds	1
   707     004E                     ___flmul@prod:
   708                           
   709                           ; 4 bytes @ 0x2E
   710     004E                     	ds	4
   711     0052                     ___flmul@temp:
   712                           
   713                           ; 2 bytes @ 0x32
   714     0052                     	ds	2
   715     0054                     ?_readTemperature:
   716     0054                     ?___fltol:	
   717                           ; 4 bytes @ 0x34
   718                           
   719     0054                     ___fltol@f1:	
   720                           ; 4 bytes @ 0x34
   721                           
   722                           
   723                           ; 4 bytes @ 0x34
   724     0054                     	ds	4
   725     0058                     ??___fltol:
   726     0058                     readTemperature@voltage:	
   727                           ; 1 bytes @ 0x38
   728                           
   729                           
   730                           ; 4 bytes @ 0x38
   731     0058                     	ds	4
   732     005C                     ___fltol@sign1:
   733     005C                     readTemperature@adcValue:	
   734                           ; 1 bytes @ 0x3C
   735                           
   736                           
   737                           ; 2 bytes @ 0x3C
   738     005C                     	ds	1
   739     005D                     ___fltol@exp1:
   740                           
   741                           ; 1 bytes @ 0x3D
   742     005D                     	ds	1
   743     005E                     ??_main:
   744                           
   745                           ; 1 bytes @ 0x3E
   746     005E                     	ds	4
   747     0062                     main@pulses:
   748                           
   749                           ; 2 bytes @ 0x42
   750     0062                     	ds	2
   751     0064                     main@temperature:
   752                           
   753                           ; 4 bytes @ 0x44
   754     0064                     	ds	4
   755     0068                     main@lcd:
   756                           
   757                           ; 8 bytes @ 0x48
   758     0068                     	ds	8
   759                           
   760                           	psect	maintext
   761     006A                     __pmaintext:	
   762 ;;
   763 ;;Main: autosize = 0, tempsize = 4, incstack = 0, save=0
   764 ;;
   765 ;; *************** function _main *****************
   766 ;; Defined at:
   767 ;;		line 83 in file "rpm.c"
   768 ;; Parameters:    Size  Location     Type
   769 ;;		None
   770 ;; Auto vars:     Size  Location     Type
   771 ;;  temperature     4   68[BANK0 ] PTR volatile unsigned ch
   772 ;;  pulses          2   66[BANK0 ] unsigned int 
   773 ;;  fanRPM          2    0        unsigned int 
   774 ;;  lcd             8   72[BANK0 ] struct .
   775 ;; Return value:  Size  Location     Type
   776 ;;                  1    wreg      void 
   777 ;; Registers used:
   778 ;;		wreg, fsr0l, fsr0h, status,2, status,0, btemp+1, pclath, cstack
   779 ;; Tracked objects:
   780 ;;		On entry : B00/0
   781 ;;		On exit  : 0/0
   782 ;;		Unchanged: 0/0
   783 ;; Data sizes:     COMMON   BANK0   BANK1   BANK3   BANK2
   784 ;;      Params:         0       0       0       0       0
   785 ;;      Locals:         0      14       0       0       0
   786 ;;      Temps:          0       4       0       0       0
   787 ;;      Totals:         0      18       0       0       0
   788 ;;Total ram usage:       18 bytes
   789 ;; Hardware stack levels required when called: 5
   790 ;; This function calls:
   791 ;;		_Lcd_Clear
   792 ;;		_Lcd_Init
   793 ;;		_Lcd_SetCursor
   794 ;;		_Lcd_WriteString
   795 ;;		___flge
   796 ;;		___flmul
   797 ;;		___fltol
   798 ;;		___xxtofl
   799 ;;		_countPulses
   800 ;;		_initADC
   801 ;;		_initPWM
   802 ;;		_initRPM
   803 ;;		_readTemperature
   804 ;; This function is called by:
   805 ;;		Startup code after reset
   806 ;; This function uses a non-reentrant model
   807 ;;
   808                           
   809     006A                     _main:	
   810                           ;psect for function _main
   811                           
   812                           
   813                           ;rpm.c: 84:         .d7_pin = 7
   814                           
   815                           ;incstack = 0
   816                           ; Regs used in _main: [wreg-fsr0h+status,2+status,0+btemp+1+pclath+cstack]
   817     006A  120A  158A  24E1  120A  118A  	fcall	_initPWM
   818                           
   819                           ;rpm.c: 85:     };
   820     006F  120A  158A  24D5  120A  118A  	fcall	_initADC
   821                           
   822                           ;rpm.c: 86: 
   823     0074  120A  158A  24BF  120A  118A  	fcall	_initRPM
   824                           
   825                           ;rpm.c: 90: 
   826     0079  1683               	bsf	3,5	;RP0=1, select bank1
   827     007A  0187               	clrf	7	;volatile
   828                           
   829                           ;rpm.c: 91: 
   830     007B  3068               	movlw	main@lcd& (0+255)
   831     007C  0084               	movwf	4
   832     007D  30A0               	movlw	low main@F1466
   833     007E  1283               	bcf	3,5	;RP0=0, select bank0
   834     007F  00DE               	movwf	??_main
   835     0080  0804               	movf	4,w
   836     0081  00DF               	movwf	??_main+1
   837     0082  3008               	movlw	8
   838     0083  00E0               	movwf	??_main+2
   839     0084                     u3100:
   840     0084  085E               	movf	??_main,w
   841     0085  0084               	movwf	4
   842     0086  1383               	bcf	3,7	;select IRP bank1
   843     0087  0800               	movf	0,w
   844     0088  00E1               	movwf	??_main+3
   845     0089  0ADE               	incf	??_main,f
   846     008A  085F               	movf	??_main+1,w
   847     008B  0084               	movwf	4
   848     008C  0861               	movf	??_main+3,w
   849     008D  0080               	movwf	0
   850     008E  0ADF               	incf	??_main+1,f
   851     008F  0BE0               	decfsz	??_main+2,f
   852     0090  2884               	goto	u3100
   853                           
   854                           ;rpm.c: 102:         if (temperature > 33.0)
   855     0091  3068               	movlw	(low (main@lcd| 0))& (0+255)
   856     0092  120A  158A  2662  120A  118A  	fcall	_Lcd_Init
   857                           
   858                           ;rpm.c: 103:             CCPR1L = 150;
   859     0097  3068               	movlw	(low (main@lcd| 0))& (0+255)
   860     0098  120A  158A  2503  120A  118A  	fcall	_Lcd_Clear
   861                           
   862                           ;rpm.c: 106:         else
   863     009D  1283               	bcf	3,5	;RP0=0, select bank0
   864     009E  1303               	bcf	3,6	;RP1=0, select bank0
   865     009F  01A0               	clrf	Lcd_SetCursor@row
   866     00A0  0AA0               	incf	Lcd_SetCursor@row,f
   867     00A1  01A1               	clrf	Lcd_SetCursor@column
   868     00A2  0AA1               	incf	Lcd_SetCursor@column,f
   869     00A3  3068               	movlw	(low (main@lcd| 0))& (0+255)
   870     00A4  120A  158A  2539  120A  118A  	fcall	_Lcd_SetCursor
   871                           
   872                           ;rpm.c: 107:             CCPR1L = 9;
   873     00A9  3001               	movlw	(low ((STR_1-__stringbase)| (0+32768)))& (0+255)
   874     00AA  00FD               	movwf	Lcd_WriteString@str
   875     00AB  3068               	movlw	(low (main@lcd| 0))& (0+255)
   876     00AC  120A  158A  2517  120A  118A  	fcall	_Lcd_WriteString
   877     00B1                     l1792:
   878     00B1  120A  158A  25FE  120A  118A  	fcall	_readTemperature
   879     00B6  0857               	movf	?_readTemperature+3,w
   880     00B7  00E7               	movwf	main@temperature+3
   881     00B8  0856               	movf	?_readTemperature+2,w
   882     00B9  00E6               	movwf	main@temperature+2
   883     00BA  0855               	movf	?_readTemperature+1,w
   884     00BB  00E5               	movwf	main@temperature+1
   885     00BC  0854               	movf	?_readTemperature,w
   886     00BD  00E4               	movwf	main@temperature
   887     00BE  120A  158A  255C  120A  118A  	fcall	_countPulses
   888     00C3  0871               	movf	?_countPulses+1,w
   889     00C4  00E3               	movwf	main@pulses+1
   890     00C5  0870               	movf	?_countPulses,w
   891     00C6  00E2               	movwf	main@pulses
   892     00C7  0863               	movf	main@pulses+1,w
   893     00C8  00DF               	movwf	??_main+1
   894     00C9  0862               	movf	main@pulses,w
   895     00CA  00DE               	movwf	??_main
   896     00CB  1003               	clrc
   897     00CC  0CDF               	rrf	??_main+1,f
   898     00CD  0CDE               	rrf	??_main,f
   899     00CE  085E               	movf	??_main,w
   900     00CF  00F0               	movwf	___xxtofl@val
   901     00D0  085F               	movf	??_main+1,w
   902     00D1  00F1               	movwf	___xxtofl@val+1
   903     00D2  01F2               	clrf	___xxtofl@val+2
   904     00D3  01F3               	clrf	___xxtofl@val+3
   905     00D4  3000               	movlw	0
   906     00D5  120A  158A  275F  120A  118A  	fcall	___xxtofl
   907     00DA  0873               	movf	?___xxtofl+3,w
   908     00DB  00C1               	movwf	___flmul@a+3
   909     00DC  0872               	movf	?___xxtofl+2,w
   910     00DD  00C0               	movwf	___flmul@a+2
   911     00DE  0871               	movf	?___xxtofl+1,w
   912     00DF  00BF               	movwf	___flmul@a+1
   913     00E0  0870               	movf	?___xxtofl,w
   914     00E1  00BE               	movwf	___flmul@a
   915     00E2  3045               	movlw	69
   916     00E3  00BD               	movwf	___flmul@b+3
   917     00E4  3064               	movlw	100
   918     00E5  00BC               	movwf	___flmul@b+2
   919     00E6  30E1               	movlw	225
   920     00E7  00BB               	movwf	___flmul@b+1
   921     00E8  30C0               	movlw	192
   922     00E9  00BA               	movwf	___flmul@b
   923     00EA  120A  118A  2517  120A  118A  	fcall	___flmul
   924     00EF  083D               	movf	?___flmul+3,w
   925     00F0  00D7               	movwf	___fltol@f1+3
   926     00F1  083C               	movf	?___flmul+2,w
   927     00F2  00D6               	movwf	___fltol@f1+2
   928     00F3  083B               	movf	?___flmul+1,w
   929     00F4  00D5               	movwf	___fltol@f1+1
   930     00F5  083A               	movf	?___flmul,w
   931     00F6  00D4               	movwf	___fltol@f1
   932     00F7  120A  118A  2003  120A  118A  	fcall	___fltol
   933     00FC  3042               	movlw	66
   934     00FD  00F3               	movwf	___flge@ff1+3
   935     00FE  3004               	movlw	4
   936     00FF  00F2               	movwf	___flge@ff1+2
   937     0100  3000               	movlw	0
   938     0101  00F1               	movwf	___flge@ff1+1
   939     0102  3000               	movlw	0
   940     0103  00F0               	movwf	___flge@ff1
   941     0104  0867               	movf	main@temperature+3,w
   942     0105  00F7               	movwf	___flge@ff2+3
   943     0106  0866               	movf	main@temperature+2,w
   944     0107  00F6               	movwf	___flge@ff2+2
   945     0108  0865               	movf	main@temperature+1,w
   946     0109  00F5               	movwf	___flge@ff2+1
   947     010A  0864               	movf	main@temperature,w
   948     010B  00F4               	movwf	___flge@ff2
   949     010C  120A  158A  26CC  120A  118A  	fcall	___flge
   950     0111  1803               	btfsc	3,0
   951     0112  2915               	goto	l1802
   952     0113  3096               	movlw	150
   953     0114  292F               	goto	L1
   954     0115                     l1802:
   955     0115  3041               	movlw	65
   956     0116  00F3               	movwf	___flge@ff1+3
   957     0117  30F0               	movlw	240
   958     0118  00F2               	movwf	___flge@ff1+2
   959     0119  3000               	movlw	0
   960     011A  00F1               	movwf	___flge@ff1+1
   961     011B  3000               	movlw	0
   962     011C  00F0               	movwf	___flge@ff1
   963     011D  0867               	movf	main@temperature+3,w
   964     011E  00F7               	movwf	___flge@ff2+3
   965     011F  0866               	movf	main@temperature+2,w
   966     0120  00F6               	movwf	___flge@ff2+2
   967     0121  0865               	movf	main@temperature+1,w
   968     0122  00F5               	movwf	___flge@ff2+1
   969     0123  0864               	movf	main@temperature,w
   970     0124  00F4               	movwf	___flge@ff2
   971     0125  120A  158A  26CC  120A  118A  	fcall	___flge
   972     012A  1803               	btfsc	3,0
   973     012B  292E               	goto	l1806
   974     012C  3012               	movlw	18
   975     012D  292F               	goto	L1
   976     012E                     l1806:
   977     012E  3009               	movlw	9
   978     012F                     L1:
   979     012F  0095               	movwf	21	;volatile
   980     0130  300B               	movlw	11
   981     0131  1283               	bcf	3,5	;RP0=0, select bank0
   982     0132  1303               	bcf	3,6	;RP1=0, select bank0
   983     0133  00E0               	movwf	??_main+2
   984     0134  3026               	movlw	38
   985     0135  00DF               	movwf	??_main+1
   986     0136  305D               	movlw	93
   987     0137  00DE               	movwf	??_main
   988     0138                     u3137:
   989     0138  0BDE               	decfsz	??_main,f
   990     0139  2938               	goto	u3137
   991     013A  0BDF               	decfsz	??_main+1,f
   992     013B  2938               	goto	u3137
   993     013C  0BE0               	decfsz	??_main+2,f
   994     013D  2938               	goto	u3137
   995     013E  28B1               	goto	l1792
   996     013F                     __end_of_main:
   997                           
   998                           	psect	text1
   999     0DFE                     __ptext1:	
  1000 ;; *************** function _readTemperature *****************
  1001 ;; Defined at:
  1002 ;;		line 77 in file "rpm.c"
  1003 ;; Parameters:    Size  Location     Type
  1004 ;;		None
  1005 ;; Auto vars:     Size  Location     Type
  1006 ;;  voltage         4   56[BANK0 ] void 
  1007 ;;  adcValue        2   60[BANK0 ] unsigned int 
  1008 ;; Return value:  Size  Location     Type
  1009 ;;                  4   52[BANK0 ] unsigned int 
  1010 ;; Registers used:
  1011 ;;		wreg, status,2, status,0, btemp+1, pclath, cstack
  1012 ;; Tracked objects:
  1013 ;;		On entry : 0/0
  1014 ;;		On exit  : 300/0
  1015 ;;		Unchanged: 0/0
  1016 ;; Data sizes:     COMMON   BANK0   BANK1   BANK3   BANK2
  1017 ;;      Params:         0       4       0       0       0
  1018 ;;      Locals:         0       6       0       0       0
  1019 ;;      Temps:          0       0       0       0       0
  1020 ;;      Totals:         0      10       0       0       0
  1021 ;;Total ram usage:       10 bytes
  1022 ;; Hardware stack levels used: 1
  1023 ;; Hardware stack levels required when called: 2
  1024 ;; This function calls:
  1025 ;;		___fldiv
  1026 ;;		___flmul
  1027 ;;		___xxtofl
  1028 ;;		_readADC
  1029 ;; This function is called by:
  1030 ;;		_main
  1031 ;; This function uses a non-reentrant model
  1032 ;;
  1033                           
  1034     0DFE                     _readTemperature:	
  1035                           ;psect for function _readTemperature
  1036                           
  1037                           
  1038                           ;rpm.c: 78:         .port = &PORTC,
  1039                           
  1040                           ;incstack = 0
  1041                           ; Regs used in _readTemperature: [wreg+status,2+status,0+btemp+1+pclath+cstack]
  1042     0DFE  120A  158A  24CA  120A  158A  	fcall	_readADC
  1043     0E03  0871               	movf	?_readADC+1,w
  1044     0E04  1283               	bcf	3,5	;RP0=0, select bank0
  1045     0E05  00DD               	movwf	readTemperature@adcValue+1
  1046     0E06  0870               	movf	?_readADC,w
  1047     0E07  00DC               	movwf	readTemperature@adcValue
  1048                           
  1049                           ;rpm.c: 79:         .rs_pin = 1,
  1050     0E08  3040               	movlw	64
  1051     0E09  00BD               	movwf	___flmul@b+3
  1052     0E0A  30A0               	movlw	160
  1053     0E0B  00BC               	movwf	___flmul@b+2
  1054     0E0C  3000               	movlw	0
  1055     0E0D  00BB               	movwf	___flmul@b+1
  1056     0E0E  3000               	movlw	0
  1057     0E0F  00BA               	movwf	___flmul@b
  1058     0E10  3044               	movlw	68
  1059     0E11  00A3               	movwf	___fldiv@a+3
  1060     0E12  3080               	movlw	128
  1061     0E13  00A2               	movwf	___fldiv@a+2
  1062     0E14  3000               	movlw	0
  1063     0E15  00A1               	movwf	___fldiv@a+1
  1064     0E16  3000               	movlw	0
  1065     0E17  00A0               	movwf	___fldiv@a
  1066     0E18  085C               	movf	readTemperature@adcValue,w
  1067     0E19  00F0               	movwf	___xxtofl@val
  1068     0E1A  085D               	movf	readTemperature@adcValue+1,w
  1069     0E1B  00F1               	movwf	___xxtofl@val+1
  1070     0E1C  01F2               	clrf	___xxtofl@val+2
  1071     0E1D  01F3               	clrf	___xxtofl@val+3
  1072     0E1E  3000               	movlw	0
  1073     0E1F  120A  158A  275F  120A  158A  	fcall	___xxtofl
  1074     0E24  0873               	movf	?___xxtofl+3,w
  1075     0E25  00A7               	movwf	___fldiv@b+3
  1076     0E26  0872               	movf	?___xxtofl+2,w
  1077     0E27  00A6               	movwf	___fldiv@b+2
  1078     0E28  0871               	movf	?___xxtofl+1,w
  1079     0E29  00A5               	movwf	___fldiv@b+1
  1080     0E2A  0870               	movf	?___xxtofl,w
  1081     0E2B  00A4               	movwf	___fldiv@b
  1082     0E2C  120A  118A  2380  120A  158A  	fcall	___fldiv
  1083     0E31  0823               	movf	?___fldiv+3,w
  1084     0E32  00C1               	movwf	___flmul@a+3
  1085     0E33  0822               	movf	?___fldiv+2,w
  1086     0E34  00C0               	movwf	___flmul@a+2
  1087     0E35  0821               	movf	?___fldiv+1,w
  1088     0E36  00BF               	movwf	___flmul@a+1
  1089     0E37  0820               	movf	?___fldiv,w
  1090     0E38  00BE               	movwf	___flmul@a
  1091     0E39  120A  118A  2517  120A  158A  	fcall	___flmul
  1092     0E3E  083D               	movf	?___flmul+3,w
  1093     0E3F  00DB               	movwf	readTemperature@voltage+3
  1094     0E40  083C               	movf	?___flmul+2,w
  1095     0E41  00DA               	movwf	readTemperature@voltage+2
  1096     0E42  083B               	movf	?___flmul+1,w
  1097     0E43  00D9               	movwf	readTemperature@voltage+1
  1098     0E44  083A               	movf	?___flmul,w
  1099     0E45  00D8               	movwf	readTemperature@voltage
  1100                           
  1101                           ;rpm.c: 80:         .en_pin = 2,
  1102     0E46  303C               	movlw	60
  1103     0E47  00A3               	movwf	___fldiv@a+3
  1104     0E48  3023               	movlw	35
  1105     0E49  00A2               	movwf	___fldiv@a+2
  1106     0E4A  30D7               	movlw	215
  1107     0E4B  00A1               	movwf	___fldiv@a+1
  1108     0E4C  300A               	movlw	10
  1109     0E4D  00A0               	movwf	___fldiv@a
  1110     0E4E  085B               	movf	readTemperature@voltage+3,w
  1111     0E4F  00A7               	movwf	___fldiv@b+3
  1112     0E50  085A               	movf	readTemperature@voltage+2,w
  1113     0E51  00A6               	movwf	___fldiv@b+2
  1114     0E52  0859               	movf	readTemperature@voltage+1,w
  1115     0E53  00A5               	movwf	___fldiv@b+1
  1116     0E54  0858               	movf	readTemperature@voltage,w
  1117     0E55  00A4               	movwf	___fldiv@b
  1118     0E56  120A  118A  2380   	fcall	___fldiv
  1119     0E59  0823               	movf	?___fldiv+3,w
  1120     0E5A  00D7               	movwf	?_readTemperature+3
  1121     0E5B  0822               	movf	?___fldiv+2,w
  1122     0E5C  00D6               	movwf	?_readTemperature+2
  1123     0E5D  0821               	movf	?___fldiv+1,w
  1124     0E5E  00D5               	movwf	?_readTemperature+1
  1125     0E5F  0820               	movf	?___fldiv,w
  1126     0E60  00D4               	movwf	?_readTemperature
  1127     0E61  0008               	return
  1128     0E62                     __end_of_readTemperature:
  1129                           
  1130                           	psect	text2
  1131     0CCA                     __ptext2:	
  1132 ;; *************** function _readADC *****************
  1133 ;; Defined at:
  1134 ;;		line 71 in file "rpm.c"
  1135 ;; Parameters:    Size  Location     Type
  1136 ;;		None
  1137 ;; Auto vars:     Size  Location     Type
  1138 ;;		None
  1139 ;; Return value:  Size  Location     Type
  1140 ;;                  2    0[COMMON] unsigned int 
  1141 ;; Registers used:
  1142 ;;		wreg
  1143 ;; Tracked objects:
  1144 ;;		On entry : 0/0
  1145 ;;		On exit  : 300/100
  1146 ;;		Unchanged: 0/0
  1147 ;; Data sizes:     COMMON   BANK0   BANK1   BANK3   BANK2
  1148 ;;      Params:         2       0       0       0       0
  1149 ;;      Locals:         0       0       0       0       0
  1150 ;;      Temps:          0       0       0       0       0
  1151 ;;      Totals:         2       0       0       0       0
  1152 ;;Total ram usage:        2 bytes
  1153 ;; Hardware stack levels used: 1
  1154 ;; This function calls:
  1155 ;;		Nothing
  1156 ;; This function is called by:
  1157 ;;		_readTemperature
  1158 ;; This function uses a non-reentrant model
  1159 ;;
  1160                           
  1161     0CCA                     _readADC:	
  1162                           ;psect for function _readADC
  1163                           
  1164                           
  1165                           ;rpm.c: 72:     initRPM();
  1166                           
  1167                           ;incstack = 0
  1168                           ; Regs used in _readADC: [wreg]
  1169     0CCA  1283               	bcf	3,5	;RP0=0, select bank0
  1170     0CCB  1303               	bcf	3,6	;RP1=0, select bank0
  1171     0CCC  149F               	bsf	31,1	;volatile
  1172     0CCD                     l67:	
  1173                           ;rpm.c: 73: 
  1174                           
  1175     0CCD  189F               	btfsc	31,1	;volatile
  1176     0CCE  2CCD               	goto	l67
  1177                           
  1178                           ;rpm.c: 74: 
  1179     0CCF  081E               	movf	30,w	;volatile
  1180     0CD0  00F1               	movwf	?_readADC+1
  1181     0CD1  1683               	bsf	3,5	;RP0=1, select bank1
  1182     0CD2  081E               	movf	30,w	;volatile
  1183     0CD3  00F0               	movwf	?_readADC
  1184     0CD4  0008               	return
  1185     0CD5                     __end_of_readADC:
  1186                           
  1187                           	psect	text3
  1188     0F5F                     __ptext3:	
  1189 ;; *************** function ___xxtofl *****************
  1190 ;; Defined at:
  1191 ;;		line 10 in file "/Applications/microchip/xc8/v2.45/pic/sources/c99/common/xxtofl.c"
  1192 ;; Parameters:    Size  Location     Type
  1193 ;;  sign            1    wreg     unsigned char 
  1194 ;;  val             4    0[COMMON] long 
  1195 ;; Auto vars:     Size  Location     Type
  1196 ;;  sign            1    8[COMMON] unsigned char 
  1197 ;;  arg             4   10[COMMON] unsigned long 
  1198 ;;  exp             1    9[COMMON] unsigned char 
  1199 ;; Return value:  Size  Location     Type
  1200 ;;                  4    0[COMMON] unsigned char 
  1201 ;; Registers used:
  1202 ;;		wreg, status,2, status,0
  1203 ;; Tracked objects:
  1204 ;;		On entry : 300/0
  1205 ;;		On exit  : 300/0
  1206 ;;		Unchanged: 300/0
  1207 ;; Data sizes:     COMMON   BANK0   BANK1   BANK3   BANK2
  1208 ;;      Params:         4       0       0       0       0
  1209 ;;      Locals:         6       0       0       0       0
  1210 ;;      Temps:          4       0       0       0       0
  1211 ;;      Totals:        14       0       0       0       0
  1212 ;;Total ram usage:       14 bytes
  1213 ;; Hardware stack levels used: 1
  1214 ;; This function calls:
  1215 ;;		Nothing
  1216 ;; This function is called by:
  1217 ;;		_readTemperature
  1218 ;;		_main
  1219 ;; This function uses a non-reentrant model
  1220 ;;
  1221                           
  1222     0F5F                     ___xxtofl:	
  1223                           ;psect for function ___xxtofl
  1224                           
  1225                           
  1226                           ;incstack = 0
  1227                           ; Regs used in ___xxtofl: [wreg+status,2+status,0]
  1228                           ;___xxtofl@sign stored from wreg
  1229     0F5F  00F8               	movwf	___xxtofl@sign
  1230     0F60  0878               	movf	___xxtofl@sign,w
  1231     0F61  1D03               	btfss	3,2
  1232     0F62  1FF3               	btfss	___xxtofl@val+3,7
  1233     0F63  2F74               	goto	l1580
  1234     0F64  0970               	comf	___xxtofl@val,w
  1235     0F65  00FA               	movwf	___xxtofl@arg
  1236     0F66  0971               	comf	___xxtofl@val+1,w
  1237     0F67  00FB               	movwf	___xxtofl@arg+1
  1238     0F68  0972               	comf	___xxtofl@val+2,w
  1239     0F69  00FC               	movwf	___xxtofl@arg+2
  1240     0F6A  0973               	comf	___xxtofl@val+3,w
  1241     0F6B  00FD               	movwf	___xxtofl@arg+3
  1242     0F6C  0AFA               	incf	___xxtofl@arg,f
  1243     0F6D  1903               	skipnz
  1244     0F6E  0AFB               	incf	___xxtofl@arg+1,f
  1245     0F6F  1903               	skipnz
  1246     0F70  0AFC               	incf	___xxtofl@arg+2,f
  1247     0F71  1903               	skipnz
  1248     0F72  0AFD               	incf	___xxtofl@arg+3,f
  1249     0F73  2F7C               	goto	l661
  1250     0F74                     l1580:
  1251     0F74  0873               	movf	___xxtofl@val+3,w
  1252     0F75  00FD               	movwf	___xxtofl@arg+3
  1253     0F76  0872               	movf	___xxtofl@val+2,w
  1254     0F77  00FC               	movwf	___xxtofl@arg+2
  1255     0F78  0871               	movf	___xxtofl@val+1,w
  1256     0F79  00FB               	movwf	___xxtofl@arg+1
  1257     0F7A  0870               	movf	___xxtofl@val,w
  1258     0F7B  00FA               	movwf	___xxtofl@arg
  1259     0F7C                     l661:
  1260     0F7C  0873               	movf	___xxtofl@val+3,w
  1261     0F7D  0472               	iorwf	___xxtofl@val+2,w
  1262     0F7E  0471               	iorwf	___xxtofl@val+1,w
  1263     0F7F  0470               	iorwf	___xxtofl@val,w
  1264     0F80  1D03               	skipz
  1265     0F81  2F8B               	goto	l1586
  1266     0F82  3000               	movlw	0
  1267     0F83  00F3               	movwf	?___xxtofl+3
  1268     0F84  3000               	movlw	0
  1269     0F85  00F2               	movwf	?___xxtofl+2
  1270     0F86  3000               	movlw	0
  1271     0F87  00F1               	movwf	?___xxtofl+1
  1272     0F88  3000               	movlw	0
  1273     0F89  00F0               	movwf	?___xxtofl
  1274     0F8A  0008               	return
  1275     0F8B                     l1586:
  1276     0F8B  3096               	movlw	150
  1277     0F8C  00F9               	movwf	___xxtofl@exp
  1278     0F8D                     l1590:
  1279     0F8D  30FE               	movlw	254
  1280     0F8E  057D               	andwf	___xxtofl@arg+3,w
  1281     0F8F  1903               	btfsc	3,2
  1282     0F90  2FBA               	goto	l667
  1283     0F91  3001               	movlw	1
  1284     0F92  00F4               	movwf	??___xxtofl
  1285     0F93  0874               	movf	??___xxtofl,w
  1286     0F94  07F9               	addwf	___xxtofl@exp,f
  1287     0F95  3001               	movlw	1
  1288     0F96                     u2785:
  1289     0F96  1003               	clrc
  1290     0F97  0CFD               	rrf	___xxtofl@arg+3,f
  1291     0F98  0CFC               	rrf	___xxtofl@arg+2,f
  1292     0F99  0CFB               	rrf	___xxtofl@arg+1,f
  1293     0F9A  0CFA               	rrf	___xxtofl@arg,f
  1294     0F9B  3EFF               	addlw	-1
  1295     0F9C  1D03               	skipz
  1296     0F9D  2F96               	goto	u2785
  1297     0F9E  2F8D               	goto	l1590
  1298     0F9F                     l1592:
  1299     0F9F  3001               	movlw	1
  1300     0FA0  00F4               	movwf	??___xxtofl
  1301     0FA1  0874               	movf	??___xxtofl,w
  1302     0FA2  07F9               	addwf	___xxtofl@exp,f
  1303     0FA3  3001               	movlw	1
  1304     0FA4  07FA               	addwf	___xxtofl@arg,f
  1305     0FA5  3000               	movlw	0
  1306     0FA6  1803               	skipnc
  1307     0FA7  3001               	movlw	1
  1308     0FA8  07FB               	addwf	___xxtofl@arg+1,f
  1309     0FA9  3000               	movlw	0
  1310     0FAA  1803               	skipnc
  1311     0FAB  3001               	movlw	1
  1312     0FAC  07FC               	addwf	___xxtofl@arg+2,f
  1313     0FAD  3000               	movlw	0
  1314     0FAE  1803               	skipnc
  1315     0FAF  3001               	movlw	1
  1316     0FB0  07FD               	addwf	___xxtofl@arg+3,f
  1317     0FB1  3001               	movlw	1
  1318     0FB2                     u2805:
  1319     0FB2  1003               	clrc
  1320     0FB3  0CFD               	rrf	___xxtofl@arg+3,f
  1321     0FB4  0CFC               	rrf	___xxtofl@arg+2,f
  1322     0FB5  0CFB               	rrf	___xxtofl@arg+1,f
  1323     0FB6  0CFA               	rrf	___xxtofl@arg,f
  1324     0FB7  3EFF               	addlw	-1
  1325     0FB8  1D03               	skipz
  1326     0FB9  2FB2               	goto	u2805
  1327     0FBA                     l667:
  1328     0FBA  30FF               	movlw	255
  1329     0FBB  057D               	andwf	___xxtofl@arg+3,w
  1330     0FBC  1903               	btfsc	3,2
  1331     0FBD  2FCE               	goto	l1600
  1332     0FBE  2F9F               	goto	l1592
  1333     0FBF                     l1602:
  1334     0FBF  3002               	movlw	2
  1335     0FC0  0279               	subwf	___xxtofl@exp,w
  1336     0FC1  1C03               	btfss	3,0
  1337     0FC2  2FD0               	goto	l674
  1338     0FC3  3001               	movlw	1
  1339     0FC4  02F9               	subwf	___xxtofl@exp,f
  1340     0FC5  3001               	movlw	1
  1341     0FC6  00F4               	movwf	??___xxtofl
  1342     0FC7                     u2825:
  1343     0FC7  1003               	clrc
  1344     0FC8  0DFA               	rlf	___xxtofl@arg,f
  1345     0FC9  0DFB               	rlf	___xxtofl@arg+1,f
  1346     0FCA  0DFC               	rlf	___xxtofl@arg+2,f
  1347     0FCB  0DFD               	rlf	___xxtofl@arg+3,f
  1348     0FCC  0BF4               	decfsz	??___xxtofl,f
  1349     0FCD  2FC7               	goto	u2825
  1350     0FCE                     l1600:
  1351     0FCE  1FFC               	btfss	___xxtofl@arg+2,7
  1352     0FCF  2FBF               	goto	l1602
  1353     0FD0                     l674:
  1354     0FD0  1879               	btfsc	___xxtofl@exp,0
  1355     0FD1  2FDA               	goto	l675
  1356     0FD2  30FF               	movlw	255
  1357     0FD3  05FA               	andwf	___xxtofl@arg,f
  1358     0FD4  30FF               	movlw	255
  1359     0FD5  05FB               	andwf	___xxtofl@arg+1,f
  1360     0FD6  307F               	movlw	127
  1361     0FD7  05FC               	andwf	___xxtofl@arg+2,f
  1362     0FD8  30FF               	movlw	255
  1363     0FD9  05FD               	andwf	___xxtofl@arg+3,f
  1364     0FDA                     l675:
  1365     0FDA  1003               	clrc
  1366     0FDB  0CF9               	rrf	___xxtofl@exp,f
  1367     0FDC  0879               	movf	___xxtofl@exp,w
  1368     0FDD  00F4               	movwf	??___xxtofl
  1369     0FDE  01F5               	clrf	??___xxtofl+1
  1370     0FDF  01F6               	clrf	??___xxtofl+2
  1371     0FE0  01F7               	clrf	??___xxtofl+3
  1372     0FE1  3018               	movlw	24
  1373     0FE2                     u2865:
  1374     0FE2  1003               	clrc
  1375     0FE3  0DF4               	rlf	??___xxtofl,f
  1376     0FE4  0DF5               	rlf	??___xxtofl+1,f
  1377     0FE5  0DF6               	rlf	??___xxtofl+2,f
  1378     0FE6  0DF7               	rlf	??___xxtofl+3,f
  1379     0FE7  3EFF               	addlw	-1
  1380     0FE8  1D03               	skipz
  1381     0FE9  2FE2               	goto	u2865
  1382     0FEA  0874               	movf	??___xxtofl,w
  1383     0FEB  04FA               	iorwf	___xxtofl@arg,f
  1384     0FEC  0875               	movf	??___xxtofl+1,w
  1385     0FED  04FB               	iorwf	___xxtofl@arg+1,f
  1386     0FEE  0876               	movf	??___xxtofl+2,w
  1387     0FEF  04FC               	iorwf	___xxtofl@arg+2,f
  1388     0FF0  0877               	movf	??___xxtofl+3,w
  1389     0FF1  04FD               	iorwf	___xxtofl@arg+3,f
  1390     0FF2  0878               	movf	___xxtofl@sign,w
  1391     0FF3  1D03               	btfss	3,2
  1392     0FF4  1FF3               	btfss	___xxtofl@val+3,7
  1393     0FF5  2FF7               	goto	l1614
  1394     0FF6  17FD               	bsf	___xxtofl@arg+3,7
  1395     0FF7                     l1614:
  1396     0FF7  087D               	movf	___xxtofl@arg+3,w
  1397     0FF8  00F3               	movwf	?___xxtofl+3
  1398     0FF9  087C               	movf	___xxtofl@arg+2,w
  1399     0FFA  00F2               	movwf	?___xxtofl+2
  1400     0FFB  087B               	movf	___xxtofl@arg+1,w
  1401     0FFC  00F1               	movwf	?___xxtofl+1
  1402     0FFD  087A               	movf	___xxtofl@arg,w
  1403     0FFE  00F0               	movwf	?___xxtofl
  1404     0FFF  0008               	return
  1405     1000                     __end_of___xxtofl:
  1406                           
  1407                           	psect	text4
  1408     0517                     __ptext4:	
  1409 ;; *************** function ___flmul *****************
  1410 ;; Defined at:
  1411 ;;		line 8 in file "/Applications/microchip/xc8/v2.45/pic/sources/c99/common/sprcmul.c"
  1412 ;; Parameters:    Size  Location     Type
  1413 ;;  b               4   26[BANK0 ] unsigned char 
  1414 ;;  a               4   30[BANK0 ] unsigned char 
  1415 ;; Auto vars:     Size  Location     Type
  1416 ;;  prod            4   46[BANK0 ] struct .
  1417 ;;  grs             4   41[BANK0 ] unsigned long 
  1418 ;;  temp            2   50[BANK0 ] struct .
  1419 ;;  bexp            1   45[BANK0 ] unsigned char 
  1420 ;;  aexp            1   40[BANK0 ] unsigned char 
  1421 ;;  sign            1   39[BANK0 ] unsigned char 
  1422 ;; Return value:  Size  Location     Type
  1423 ;;                  4   26[BANK0 ] unsigned char 
  1424 ;; Registers used:
  1425 ;;		wreg, status,2, status,0, btemp+1, pclath, cstack
  1426 ;; Tracked objects:
  1427 ;;		On entry : 300/0
  1428 ;;		On exit  : 300/0
  1429 ;;		Unchanged: 0/0
  1430 ;; Data sizes:     COMMON   BANK0   BANK1   BANK3   BANK2
  1431 ;;      Params:         0       8       0       0       0
  1432 ;;      Locals:         0      13       0       0       0
  1433 ;;      Temps:          0       5       0       0       0
  1434 ;;      Totals:         0      26       0       0       0
  1435 ;;Total ram usage:       26 bytes
  1436 ;; Hardware stack levels used: 1
  1437 ;; Hardware stack levels required when called: 1
  1438 ;; This function calls:
  1439 ;;		__Umul8_16
  1440 ;; This function is called by:
  1441 ;;		_readTemperature
  1442 ;;		_main
  1443 ;; This function uses a non-reentrant model
  1444 ;;
  1445                           
  1446     0517                     ___flmul:	
  1447                           ;psect for function ___flmul
  1448                           
  1449                           
  1450                           ;incstack = 0
  1451                           ; Regs used in ___flmul: [wreg+status,2+status,0+btemp+1+pclath+cstack]
  1452     0517  083D               	movf	___flmul@b+3,w
  1453     0518  3980               	andlw	128
  1454     0519  00C7               	movwf	___flmul@sign
  1455     051A  083D               	movf	___flmul@b+3,w
  1456     051B  00C2               	movwf	??___flmul
  1457     051C  0742               	addwf	??___flmul,w
  1458     051D  00CD               	movwf	___flmul@bexp
  1459     051E  1BBC               	btfsc	___flmul@b+2,7
  1460     051F  144D               	bsf	___flmul@bexp,0
  1461     0520  084D               	movf	___flmul@bexp,w
  1462     0521  1903               	btfsc	3,2
  1463     0522  2D30               	goto	l1450
  1464     0523  0A4D               	incf	___flmul@bexp,w
  1465     0524  1D03               	btfss	3,2
  1466     0525  2D2E               	goto	l1448
  1467     0526  3000               	movlw	0
  1468     0527  00BD               	movwf	___flmul@b+3
  1469     0528  3000               	movlw	0
  1470     0529  00BC               	movwf	___flmul@b+2
  1471     052A  3000               	movlw	0
  1472     052B  00BB               	movwf	___flmul@b+1
  1473     052C  3000               	movlw	0
  1474     052D  00BA               	movwf	___flmul@b
  1475     052E                     l1448:
  1476     052E  17BC               	bsf	___flmul@b+2,7
  1477     052F  2D38               	goto	l1452
  1478     0530                     l1450:
  1479     0530  3000               	movlw	0
  1480     0531  00BD               	movwf	___flmul@b+3
  1481     0532  3000               	movlw	0
  1482     0533  00BC               	movwf	___flmul@b+2
  1483     0534  3000               	movlw	0
  1484     0535  00BB               	movwf	___flmul@b+1
  1485     0536  3000               	movlw	0
  1486     0537  00BA               	movwf	___flmul@b
  1487     0538                     l1452:
  1488     0538  0841               	movf	___flmul@a+3,w
  1489     0539  3980               	andlw	128
  1490     053A  00C2               	movwf	??___flmul
  1491     053B  0842               	movf	??___flmul,w
  1492     053C  06C7               	xorwf	___flmul@sign,f
  1493     053D  0841               	movf	___flmul@a+3,w
  1494     053E  00C2               	movwf	??___flmul
  1495     053F  0742               	addwf	??___flmul,w
  1496     0540  00C8               	movwf	___flmul@aexp
  1497     0541  1BC0               	btfsc	___flmul@a+2,7
  1498     0542  1448               	bsf	___flmul@aexp,0
  1499     0543  0848               	movf	___flmul@aexp,w
  1500     0544  1903               	btfsc	3,2
  1501     0545  2D53               	goto	l1468
  1502     0546  0A48               	incf	___flmul@aexp,w
  1503     0547  1D03               	btfss	3,2
  1504     0548  2D51               	goto	l1466
  1505     0549  3000               	movlw	0
  1506     054A  00C1               	movwf	___flmul@a+3
  1507     054B  3000               	movlw	0
  1508     054C  00C0               	movwf	___flmul@a+2
  1509     054D  3000               	movlw	0
  1510     054E  00BF               	movwf	___flmul@a+1
  1511     054F  3000               	movlw	0
  1512     0550  00BE               	movwf	___flmul@a
  1513     0551                     l1466:
  1514     0551  17C0               	bsf	___flmul@a+2,7
  1515     0552  2D5B               	goto	l1470
  1516     0553                     l1468:
  1517     0553  3000               	movlw	0
  1518     0554  00C1               	movwf	___flmul@a+3
  1519     0555  3000               	movlw	0
  1520     0556  00C0               	movwf	___flmul@a+2
  1521     0557  3000               	movlw	0
  1522     0558  00BF               	movwf	___flmul@a+1
  1523     0559  3000               	movlw	0
  1524     055A  00BE               	movwf	___flmul@a
  1525     055B                     l1470:
  1526     055B  0848               	movf	___flmul@aexp,w
  1527     055C  1D03               	btfss	3,2
  1528     055D  084D               	movf	___flmul@bexp,w
  1529     055E  1D03               	btfss	3,2
  1530     055F  2D69               	goto	l1478
  1531     0560  3000               	movlw	0
  1532     0561  00BD               	movwf	?___flmul+3
  1533     0562  3000               	movlw	0
  1534     0563  00BC               	movwf	?___flmul+2
  1535     0564  3000               	movlw	0
  1536     0565  00BB               	movwf	?___flmul+1
  1537     0566  3000               	movlw	0
  1538     0567  00BA               	movwf	?___flmul
  1539     0568  0008               	return
  1540     0569                     l1478:
  1541     0569  083A               	movf	___flmul@b,w
  1542     056A  00F0               	movwf	__Umul8_16@multiplicand
  1543     056B  0840               	movf	___flmul@a+2,w
  1544     056C  120A  158A  257F  120A  118A  	fcall	__Umul8_16
  1545     0571  0871               	movf	?__Umul8_16+1,w
  1546     0572  00D3               	movwf	___flmul@temp+1
  1547     0573  0870               	movf	?__Umul8_16,w
  1548     0574  00D2               	movwf	___flmul@temp
  1549     0575  0852               	movf	___flmul@temp,w
  1550     0576  00C2               	movwf	??___flmul
  1551     0577  01C3               	clrf	??___flmul+1
  1552     0578  01C4               	clrf	??___flmul+2
  1553     0579  01C5               	clrf	??___flmul+3
  1554     057A  0845               	movf	??___flmul+3,w
  1555     057B  00CC               	movwf	___flmul@grs+3
  1556     057C  0844               	movf	??___flmul+2,w
  1557     057D  00CB               	movwf	___flmul@grs+2
  1558     057E  0843               	movf	??___flmul+1,w
  1559     057F  00CA               	movwf	___flmul@grs+1
  1560     0580  0842               	movf	??___flmul,w
  1561     0581  00C9               	movwf	___flmul@grs
  1562     0582  0853               	movf	___flmul@temp+1,w
  1563     0583  00C2               	movwf	??___flmul
  1564     0584  01C3               	clrf	??___flmul+1
  1565     0585  01C4               	clrf	??___flmul+2
  1566     0586  01C5               	clrf	??___flmul+3
  1567     0587  0845               	movf	??___flmul+3,w
  1568     0588  00D1               	movwf	___flmul@prod+3
  1569     0589  0844               	movf	??___flmul+2,w
  1570     058A  00D0               	movwf	___flmul@prod+2
  1571     058B  0843               	movf	??___flmul+1,w
  1572     058C  00CF               	movwf	___flmul@prod+1
  1573     058D  0842               	movf	??___flmul,w
  1574     058E  00CE               	movwf	___flmul@prod
  1575     058F  083B               	movf	___flmul@b+1,w
  1576     0590  00F0               	movwf	__Umul8_16@multiplicand
  1577     0591  083F               	movf	___flmul@a+1,w
  1578     0592  120A  158A  257F  120A  118A  	fcall	__Umul8_16
  1579     0597  0871               	movf	?__Umul8_16+1,w
  1580     0598  00D3               	movwf	___flmul@temp+1
  1581     0599  0870               	movf	?__Umul8_16,w
  1582     059A  00D2               	movwf	___flmul@temp
  1583     059B  0852               	movf	___flmul@temp,w
  1584     059C  00C2               	movwf	??___flmul
  1585     059D  01C3               	clrf	??___flmul+1
  1586     059E  01C4               	clrf	??___flmul+2
  1587     059F  01C5               	clrf	??___flmul+3
  1588     05A0  0842               	movf	??___flmul,w
  1589     05A1  07C9               	addwf	___flmul@grs,f
  1590     05A2  0843               	movf	??___flmul+1,w
  1591     05A3  1103               	clrz
  1592     05A4  1803               	skipnc
  1593     05A5  3E01               	addlw	1
  1594     05A6  1D03               	btfss	3,2
  1595     05A7  07CA               	addwf	___flmul@grs+1,f
  1596     05A8  0844               	movf	??___flmul+2,w
  1597     05A9  1103               	clrz
  1598     05AA  1803               	skipnc
  1599     05AB  3E01               	addlw	1
  1600     05AC  1D03               	btfss	3,2
  1601     05AD  07CB               	addwf	___flmul@grs+2,f
  1602     05AE  0845               	movf	??___flmul+3,w
  1603     05AF  1103               	clrz
  1604     05B0  1803               	skipnc
  1605     05B1  3E01               	addlw	1
  1606     05B2  1D03               	btfss	3,2
  1607     05B3  07CC               	addwf	___flmul@grs+3,f
  1608     05B4  0853               	movf	___flmul@temp+1,w
  1609     05B5  00C2               	movwf	??___flmul
  1610     05B6  01C3               	clrf	??___flmul+1
  1611     05B7  01C4               	clrf	??___flmul+2
  1612     05B8  01C5               	clrf	??___flmul+3
  1613     05B9  0842               	movf	??___flmul,w
  1614     05BA  07CE               	addwf	___flmul@prod,f
  1615     05BB  0843               	movf	??___flmul+1,w
  1616     05BC  1103               	clrz
  1617     05BD  1803               	skipnc
  1618     05BE  3E01               	addlw	1
  1619     05BF  1D03               	btfss	3,2
  1620     05C0  07CF               	addwf	___flmul@prod+1,f
  1621     05C1  0844               	movf	??___flmul+2,w
  1622     05C2  1103               	clrz
  1623     05C3  1803               	skipnc
  1624     05C4  3E01               	addlw	1
  1625     05C5  1D03               	btfss	3,2
  1626     05C6  07D0               	addwf	___flmul@prod+2,f
  1627     05C7  0845               	movf	??___flmul+3,w
  1628     05C8  1103               	clrz
  1629     05C9  1803               	skipnc
  1630     05CA  3E01               	addlw	1
  1631     05CB  1D03               	btfss	3,2
  1632     05CC  07D1               	addwf	___flmul@prod+3,f
  1633     05CD  083C               	movf	___flmul@b+2,w
  1634     05CE  00F0               	movwf	__Umul8_16@multiplicand
  1635     05CF  083E               	movf	___flmul@a,w
  1636     05D0  120A  158A  257F  120A  118A  	fcall	__Umul8_16
  1637     05D5  0871               	movf	?__Umul8_16+1,w
  1638     05D6  00D3               	movwf	___flmul@temp+1
  1639     05D7  0870               	movf	?__Umul8_16,w
  1640     05D8  00D2               	movwf	___flmul@temp
  1641     05D9  0852               	movf	___flmul@temp,w
  1642     05DA  00C2               	movwf	??___flmul
  1643     05DB  01C3               	clrf	??___flmul+1
  1644     05DC  01C4               	clrf	??___flmul+2
  1645     05DD  01C5               	clrf	??___flmul+3
  1646     05DE  0842               	movf	??___flmul,w
  1647     05DF  07C9               	addwf	___flmul@grs,f
  1648     05E0  0843               	movf	??___flmul+1,w
  1649     05E1  1103               	clrz
  1650     05E2  1803               	skipnc
  1651     05E3  3E01               	addlw	1
  1652     05E4  1D03               	btfss	3,2
  1653     05E5  07CA               	addwf	___flmul@grs+1,f
  1654     05E6  0844               	movf	??___flmul+2,w
  1655     05E7  1103               	clrz
  1656     05E8  1803               	skipnc
  1657     05E9  3E01               	addlw	1
  1658     05EA  1D03               	btfss	3,2
  1659     05EB  07CB               	addwf	___flmul@grs+2,f
  1660     05EC  0845               	movf	??___flmul+3,w
  1661     05ED  1103               	clrz
  1662     05EE  1803               	skipnc
  1663     05EF  3E01               	addlw	1
  1664     05F0  1D03               	btfss	3,2
  1665     05F1  07CC               	addwf	___flmul@grs+3,f
  1666     05F2  0853               	movf	___flmul@temp+1,w
  1667     05F3  00C2               	movwf	??___flmul
  1668     05F4  01C3               	clrf	??___flmul+1
  1669     05F5  01C4               	clrf	??___flmul+2
  1670     05F6  01C5               	clrf	??___flmul+3
  1671     05F7  0842               	movf	??___flmul,w
  1672     05F8  07CE               	addwf	___flmul@prod,f
  1673     05F9  0843               	movf	??___flmul+1,w
  1674     05FA  1103               	clrz
  1675     05FB  1803               	skipnc
  1676     05FC  3E01               	addlw	1
  1677     05FD  1D03               	btfss	3,2
  1678     05FE  07CF               	addwf	___flmul@prod+1,f
  1679     05FF  0844               	movf	??___flmul+2,w
  1680     0600  1103               	clrz
  1681     0601  1803               	skipnc
  1682     0602  3E01               	addlw	1
  1683     0603  1D03               	btfss	3,2
  1684     0604  07D0               	addwf	___flmul@prod+2,f
  1685     0605  0845               	movf	??___flmul+3,w
  1686     0606  1103               	clrz
  1687     0607  1803               	skipnc
  1688     0608  3E01               	addlw	1
  1689     0609  1D03               	btfss	3,2
  1690     060A  07D1               	addwf	___flmul@prod+3,f
  1691     060B  3008               	movlw	8
  1692     060C  00C2               	movwf	??___flmul
  1693     060D                     u2515:
  1694     060D  1003               	clrc
  1695     060E  0DC9               	rlf	___flmul@grs,f
  1696     060F  0DCA               	rlf	___flmul@grs+1,f
  1697     0610  0DCB               	rlf	___flmul@grs+2,f
  1698     0611  0DCC               	rlf	___flmul@grs+3,f
  1699     0612  0BC2               	decfsz	??___flmul,f
  1700     0613  2E0D               	goto	u2515
  1701     0614  083B               	movf	___flmul@b+1,w
  1702     0615  00F0               	movwf	__Umul8_16@multiplicand
  1703     0616  083E               	movf	___flmul@a,w
  1704     0617  120A  158A  257F  120A  118A  	fcall	__Umul8_16
  1705     061C  0871               	movf	?__Umul8_16+1,w
  1706     061D  00D3               	movwf	___flmul@temp+1
  1707     061E  0870               	movf	?__Umul8_16,w
  1708     061F  00D2               	movwf	___flmul@temp
  1709     0620  0852               	movf	___flmul@temp,w
  1710     0621  00C2               	movwf	??___flmul
  1711     0622  0853               	movf	___flmul@temp+1,w
  1712     0623  00C3               	movwf	??___flmul+1
  1713     0624  01C4               	clrf	??___flmul+2
  1714     0625  01C5               	clrf	??___flmul+3
  1715     0626  0842               	movf	??___flmul,w
  1716     0627  07C9               	addwf	___flmul@grs,f
  1717     0628  0843               	movf	??___flmul+1,w
  1718     0629  1103               	clrz
  1719     062A  1803               	skipnc
  1720     062B  3E01               	addlw	1
  1721     062C  1D03               	btfss	3,2
  1722     062D  07CA               	addwf	___flmul@grs+1,f
  1723     062E  0844               	movf	??___flmul+2,w
  1724     062F  1103               	clrz
  1725     0630  1803               	skipnc
  1726     0631  3E01               	addlw	1
  1727     0632  1D03               	btfss	3,2
  1728     0633  07CB               	addwf	___flmul@grs+2,f
  1729     0634  0845               	movf	??___flmul+3,w
  1730     0635  1103               	clrz
  1731     0636  1803               	skipnc
  1732     0637  3E01               	addlw	1
  1733     0638  1D03               	btfss	3,2
  1734     0639  07CC               	addwf	___flmul@grs+3,f
  1735     063A  083A               	movf	___flmul@b,w
  1736     063B  00F0               	movwf	__Umul8_16@multiplicand
  1737     063C  083F               	movf	___flmul@a+1,w
  1738     063D  120A  158A  257F  120A  118A  	fcall	__Umul8_16
  1739     0642  0871               	movf	?__Umul8_16+1,w
  1740     0643  00D3               	movwf	___flmul@temp+1
  1741     0644  0870               	movf	?__Umul8_16,w
  1742     0645  00D2               	movwf	___flmul@temp
  1743     0646  0852               	movf	___flmul@temp,w
  1744     0647  00C2               	movwf	??___flmul
  1745     0648  0853               	movf	___flmul@temp+1,w
  1746     0649  00C3               	movwf	??___flmul+1
  1747     064A  01C4               	clrf	??___flmul+2
  1748     064B  01C5               	clrf	??___flmul+3
  1749     064C  0842               	movf	??___flmul,w
  1750     064D  07C9               	addwf	___flmul@grs,f
  1751     064E  0843               	movf	??___flmul+1,w
  1752     064F  1103               	clrz
  1753     0650  1803               	skipnc
  1754     0651  3E01               	addlw	1
  1755     0652  1D03               	btfss	3,2
  1756     0653  07CA               	addwf	___flmul@grs+1,f
  1757     0654  0844               	movf	??___flmul+2,w
  1758     0655  1103               	clrz
  1759     0656  1803               	skipnc
  1760     0657  3E01               	addlw	1
  1761     0658  1D03               	btfss	3,2
  1762     0659  07CB               	addwf	___flmul@grs+2,f
  1763     065A  0845               	movf	??___flmul+3,w
  1764     065B  1103               	clrz
  1765     065C  1803               	skipnc
  1766     065D  3E01               	addlw	1
  1767     065E  1D03               	btfss	3,2
  1768     065F  07CC               	addwf	___flmul@grs+3,f
  1769     0660  3008               	movlw	8
  1770     0661  00C2               	movwf	??___flmul
  1771     0662                     u2545:
  1772     0662  1003               	clrc
  1773     0663  0DC9               	rlf	___flmul@grs,f
  1774     0664  0DCA               	rlf	___flmul@grs+1,f
  1775     0665  0DCB               	rlf	___flmul@grs+2,f
  1776     0666  0DCC               	rlf	___flmul@grs+3,f
  1777     0667  0BC2               	decfsz	??___flmul,f
  1778     0668  2E62               	goto	u2545
  1779     0669  083A               	movf	___flmul@b,w
  1780     066A  00F0               	movwf	__Umul8_16@multiplicand
  1781     066B  083E               	movf	___flmul@a,w
  1782     066C  120A  158A  257F  120A  118A  	fcall	__Umul8_16
  1783     0671  0871               	movf	?__Umul8_16+1,w
  1784     0672  00D3               	movwf	___flmul@temp+1
  1785     0673  0870               	movf	?__Umul8_16,w
  1786     0674  00D2               	movwf	___flmul@temp
  1787     0675  0852               	movf	___flmul@temp,w
  1788     0676  00C2               	movwf	??___flmul
  1789     0677  0853               	movf	___flmul@temp+1,w
  1790     0678  00C3               	movwf	??___flmul+1
  1791     0679  01C4               	clrf	??___flmul+2
  1792     067A  01C5               	clrf	??___flmul+3
  1793     067B  0842               	movf	??___flmul,w
  1794     067C  07C9               	addwf	___flmul@grs,f
  1795     067D  0843               	movf	??___flmul+1,w
  1796     067E  1103               	clrz
  1797     067F  1803               	skipnc
  1798     0680  3E01               	addlw	1
  1799     0681  1D03               	btfss	3,2
  1800     0682  07CA               	addwf	___flmul@grs+1,f
  1801     0683  0844               	movf	??___flmul+2,w
  1802     0684  1103               	clrz
  1803     0685  1803               	skipnc
  1804     0686  3E01               	addlw	1
  1805     0687  1D03               	btfss	3,2
  1806     0688  07CB               	addwf	___flmul@grs+2,f
  1807     0689  0845               	movf	??___flmul+3,w
  1808     068A  1103               	clrz
  1809     068B  1803               	skipnc
  1810     068C  3E01               	addlw	1
  1811     068D  1D03               	btfss	3,2
  1812     068E  07CC               	addwf	___flmul@grs+3,f
  1813     068F  083B               	movf	___flmul@b+1,w
  1814     0690  00F0               	movwf	__Umul8_16@multiplicand
  1815     0691  0840               	movf	___flmul@a+2,w
  1816     0692  120A  158A  257F  120A  118A  	fcall	__Umul8_16
  1817     0697  0871               	movf	?__Umul8_16+1,w
  1818     0698  00D3               	movwf	___flmul@temp+1
  1819     0699  0870               	movf	?__Umul8_16,w
  1820     069A  00D2               	movwf	___flmul@temp
  1821     069B  0852               	movf	___flmul@temp,w
  1822     069C  00C2               	movwf	??___flmul
  1823     069D  0853               	movf	___flmul@temp+1,w
  1824     069E  00C3               	movwf	??___flmul+1
  1825     069F  01C4               	clrf	??___flmul+2
  1826     06A0  01C5               	clrf	??___flmul+3
  1827     06A1  0842               	movf	??___flmul,w
  1828     06A2  07CE               	addwf	___flmul@prod,f
  1829     06A3  0843               	movf	??___flmul+1,w
  1830     06A4  1103               	clrz
  1831     06A5  1803               	skipnc
  1832     06A6  3E01               	addlw	1
  1833     06A7  1D03               	btfss	3,2
  1834     06A8  07CF               	addwf	___flmul@prod+1,f
  1835     06A9  0844               	movf	??___flmul+2,w
  1836     06AA  1103               	clrz
  1837     06AB  1803               	skipnc
  1838     06AC  3E01               	addlw	1
  1839     06AD  1D03               	btfss	3,2
  1840     06AE  07D0               	addwf	___flmul@prod+2,f
  1841     06AF  0845               	movf	??___flmul+3,w
  1842     06B0  1103               	clrz
  1843     06B1  1803               	skipnc
  1844     06B2  3E01               	addlw	1
  1845     06B3  1D03               	btfss	3,2
  1846     06B4  07D1               	addwf	___flmul@prod+3,f
  1847     06B5  083C               	movf	___flmul@b+2,w
  1848     06B6  00F0               	movwf	__Umul8_16@multiplicand
  1849     06B7  083F               	movf	___flmul@a+1,w
  1850     06B8  120A  158A  257F  120A  118A  	fcall	__Umul8_16
  1851     06BD  0871               	movf	?__Umul8_16+1,w
  1852     06BE  00D3               	movwf	___flmul@temp+1
  1853     06BF  0870               	movf	?__Umul8_16,w
  1854     06C0  00D2               	movwf	___flmul@temp
  1855     06C1  0852               	movf	___flmul@temp,w
  1856     06C2  00C2               	movwf	??___flmul
  1857     06C3  0853               	movf	___flmul@temp+1,w
  1858     06C4  00C3               	movwf	??___flmul+1
  1859     06C5  01C4               	clrf	??___flmul+2
  1860     06C6  01C5               	clrf	??___flmul+3
  1861     06C7  0842               	movf	??___flmul,w
  1862     06C8  07CE               	addwf	___flmul@prod,f
  1863     06C9  0843               	movf	??___flmul+1,w
  1864     06CA  1103               	clrz
  1865     06CB  1803               	skipnc
  1866     06CC  3E01               	addlw	1
  1867     06CD  1D03               	btfss	3,2
  1868     06CE  07CF               	addwf	___flmul@prod+1,f
  1869     06CF  0844               	movf	??___flmul+2,w
  1870     06D0  1103               	clrz
  1871     06D1  1803               	skipnc
  1872     06D2  3E01               	addlw	1
  1873     06D3  1D03               	btfss	3,2
  1874     06D4  07D0               	addwf	___flmul@prod+2,f
  1875     06D5  0845               	movf	??___flmul+3,w
  1876     06D6  1103               	clrz
  1877     06D7  1803               	skipnc
  1878     06D8  3E01               	addlw	1
  1879     06D9  1D03               	btfss	3,2
  1880     06DA  07D1               	addwf	___flmul@prod+3,f
  1881     06DB  083C               	movf	___flmul@b+2,w
  1882     06DC  00F0               	movwf	__Umul8_16@multiplicand
  1883     06DD  0840               	movf	___flmul@a+2,w
  1884     06DE  120A  158A  257F  120A  118A  	fcall	__Umul8_16
  1885     06E3  0871               	movf	?__Umul8_16+1,w
  1886     06E4  00D3               	movwf	___flmul@temp+1
  1887     06E5  0870               	movf	?__Umul8_16,w
  1888     06E6  00D2               	movwf	___flmul@temp
  1889     06E7  0852               	movf	___flmul@temp,w
  1890     06E8  00C2               	movwf	??___flmul
  1891     06E9  0853               	movf	___flmul@temp+1,w
  1892     06EA  00C3               	movwf	??___flmul+1
  1893     06EB  01C4               	clrf	??___flmul+2
  1894     06EC  01C5               	clrf	??___flmul+3
  1895     06ED  3008               	movlw	8
  1896     06EE                     u2585:
  1897     06EE  1003               	clrc
  1898     06EF  0DC2               	rlf	??___flmul,f
  1899     06F0  0DC3               	rlf	??___flmul+1,f
  1900     06F1  0DC4               	rlf	??___flmul+2,f
  1901     06F2  0DC5               	rlf	??___flmul+3,f
  1902     06F3  3EFF               	addlw	-1
  1903     06F4  1D03               	skipz
  1904     06F5  2EEE               	goto	u2585
  1905     06F6  0842               	movf	??___flmul,w
  1906     06F7  07CE               	addwf	___flmul@prod,f
  1907     06F8  0843               	movf	??___flmul+1,w
  1908     06F9  1103               	clrz
  1909     06FA  1803               	skipnc
  1910     06FB  3E01               	addlw	1
  1911     06FC  1D03               	btfss	3,2
  1912     06FD  07CF               	addwf	___flmul@prod+1,f
  1913     06FE  0844               	movf	??___flmul+2,w
  1914     06FF  1103               	clrz
  1915     0700  1803               	skipnc
  1916     0701  3E01               	addlw	1
  1917     0702  1D03               	btfss	3,2
  1918     0703  07D0               	addwf	___flmul@prod+2,f
  1919     0704  0845               	movf	??___flmul+3,w
  1920     0705  1103               	clrz
  1921     0706  1803               	skipnc
  1922     0707  3E01               	addlw	1
  1923     0708  1D03               	btfss	3,2
  1924     0709  07D1               	addwf	___flmul@prod+3,f
  1925     070A  084C               	movf	___flmul@grs+3,w
  1926     070B  00C2               	movwf	??___flmul
  1927     070C  01C3               	clrf	??___flmul+1
  1928     070D  01C4               	clrf	??___flmul+2
  1929     070E  01C5               	clrf	??___flmul+3
  1930     070F  0842               	movf	??___flmul,w
  1931     0710  07CE               	addwf	___flmul@prod,f
  1932     0711  0843               	movf	??___flmul+1,w
  1933     0712  1103               	clrz
  1934     0713  1803               	skipnc
  1935     0714  3E01               	addlw	1
  1936     0715  1D03               	btfss	3,2
  1937     0716  07CF               	addwf	___flmul@prod+1,f
  1938     0717  0844               	movf	??___flmul+2,w
  1939     0718  1103               	clrz
  1940     0719  1803               	skipnc
  1941     071A  3E01               	addlw	1
  1942     071B  1D03               	btfss	3,2
  1943     071C  07D0               	addwf	___flmul@prod+2,f
  1944     071D  0845               	movf	??___flmul+3,w
  1945     071E  1103               	clrz
  1946     071F  1803               	skipnc
  1947     0720  3E01               	addlw	1
  1948     0721  1D03               	btfss	3,2
  1949     0722  07D1               	addwf	___flmul@prod+3,f
  1950     0723  3008               	movlw	8
  1951     0724  00C2               	movwf	??___flmul
  1952     0725                     u2615:
  1953     0725  1003               	clrc
  1954     0726  0DC9               	rlf	___flmul@grs,f
  1955     0727  0DCA               	rlf	___flmul@grs+1,f
  1956     0728  0DCB               	rlf	___flmul@grs+2,f
  1957     0729  0DCC               	rlf	___flmul@grs+3,f
  1958     072A  0BC2               	decfsz	??___flmul,f
  1959     072B  2F25               	goto	u2615
  1960     072C  084D               	movf	___flmul@bexp,w
  1961     072D  0748               	addwf	___flmul@aexp,w
  1962     072E  00C2               	movwf	??___flmul
  1963     072F  01C3               	clrf	??___flmul+1
  1964     0730  0DC3               	rlf	??___flmul+1,f
  1965     0731  0842               	movf	??___flmul,w
  1966     0732  3E82               	addlw	130
  1967     0733  00D2               	movwf	___flmul@temp
  1968     0734  0843               	movf	??___flmul+1,w
  1969     0735  1803               	skipnc
  1970     0736  3E01               	addlw	1
  1971     0737  3EFF               	addlw	255
  1972     0738  00D3               	movwf	___flmul@temp+1
  1973     0739                     l1530:
  1974     0739  1BD0               	btfsc	___flmul@prod+2,7
  1975     073A  2F56               	goto	l1532
  1976     073B  3001               	movlw	1
  1977     073C  00C2               	movwf	??___flmul
  1978     073D                     u2625:
  1979     073D  1003               	clrc
  1980     073E  0DCE               	rlf	___flmul@prod,f
  1981     073F  0DCF               	rlf	___flmul@prod+1,f
  1982     0740  0DD0               	rlf	___flmul@prod+2,f
  1983     0741  0DD1               	rlf	___flmul@prod+3,f
  1984     0742  0BC2               	decfsz	??___flmul,f
  1985     0743  2F3D               	goto	u2625
  1986     0744  1BCC               	btfsc	___flmul@grs+3,7
  1987     0745  144E               	bsf	___flmul@prod,0
  1988     0746  3001               	movlw	1
  1989     0747  00C2               	movwf	??___flmul
  1990     0748                     u2645:
  1991     0748  1003               	clrc
  1992     0749  0DC9               	rlf	___flmul@grs,f
  1993     074A  0DCA               	rlf	___flmul@grs+1,f
  1994     074B  0DCB               	rlf	___flmul@grs+2,f
  1995     074C  0DCC               	rlf	___flmul@grs+3,f
  1996     074D  0BC2               	decfsz	??___flmul,f
  1997     074E  2F48               	goto	u2645
  1998     074F  30FF               	movlw	255
  1999     0750  07D2               	addwf	___flmul@temp,f
  2000     0751  1803               	skipnc
  2001     0752  0AD3               	incf	___flmul@temp+1,f
  2002     0753  30FF               	movlw	255
  2003     0754  07D3               	addwf	___flmul@temp+1,f
  2004     0755  2F39               	goto	l1530
  2005     0756                     l1532:
  2006     0756  01C8               	clrf	___flmul@aexp
  2007     0757  1FCC               	btfss	___flmul@grs+3,7
  2008     0758  2F6F               	goto	l1542
  2009     0759  30FF               	movlw	255
  2010     075A  0549               	andwf	___flmul@grs,w
  2011     075B  00C2               	movwf	??___flmul
  2012     075C  30FF               	movlw	255
  2013     075D  054A               	andwf	___flmul@grs+1,w
  2014     075E  00C3               	movwf	??___flmul+1
  2015     075F  30FF               	movlw	255
  2016     0760  054B               	andwf	___flmul@grs+2,w
  2017     0761  00C4               	movwf	??___flmul+2
  2018     0762  307F               	movlw	127
  2019     0763  054C               	andwf	___flmul@grs+3,w
  2020     0764  00C5               	movwf	??___flmul+3
  2021     0765  0845               	movf	??___flmul+3,w
  2022     0766  0444               	iorwf	??___flmul+2,w
  2023     0767  0443               	iorwf	??___flmul+1,w
  2024     0768  0442               	iorwf	??___flmul,w
  2025     0769  1903               	skipnz
  2026     076A  184E               	btfsc	___flmul@prod,0
  2027     076B  2F6D               	goto	l1538
  2028     076C  2F6F               	goto	l1542
  2029     076D                     l1538:
  2030     076D  01C8               	clrf	___flmul@aexp
  2031     076E  0AC8               	incf	___flmul@aexp,f
  2032     076F                     l1542:
  2033     076F  0848               	movf	___flmul@aexp,w
  2034     0770  1903               	btfsc	3,2
  2035     0771  2FA1               	goto	l1552
  2036     0772  3001               	movlw	1
  2037     0773  07CE               	addwf	___flmul@prod,f
  2038     0774  3000               	movlw	0
  2039     0775  1803               	skipnc
  2040     0776  3001               	movlw	1
  2041     0777  07CF               	addwf	___flmul@prod+1,f
  2042     0778  3000               	movlw	0
  2043     0779  1803               	skipnc
  2044     077A  3001               	movlw	1
  2045     077B  07D0               	addwf	___flmul@prod+2,f
  2046     077C  3000               	movlw	0
  2047     077D  1803               	skipnc
  2048     077E  3001               	movlw	1
  2049     077F  07D1               	addwf	___flmul@prod+3,f
  2050     0780  1C51               	btfss	___flmul@prod+3,0
  2051     0781  2FA1               	goto	l1552
  2052     0782  084E               	movf	___flmul@prod,w
  2053     0783  00C2               	movwf	??___flmul
  2054     0784  084F               	movf	___flmul@prod+1,w
  2055     0785  00C3               	movwf	??___flmul+1
  2056     0786  0850               	movf	___flmul@prod+2,w
  2057     0787  00C4               	movwf	??___flmul+2
  2058     0788  0851               	movf	___flmul@prod+3,w
  2059     0789  00C5               	movwf	??___flmul+3
  2060     078A  3001               	movlw	1
  2061     078B  00C6               	movwf	??___flmul+4
  2062     078C                     u2715:
  2063     078C  0D45               	rlf	??___flmul+3,w
  2064     078D  0CC5               	rrf	??___flmul+3,f
  2065     078E  0CC4               	rrf	??___flmul+2,f
  2066     078F  0CC3               	rrf	??___flmul+1,f
  2067     0790  0CC2               	rrf	??___flmul,f
  2068     0791  0BC6               	decfsz	??___flmul+4,f
  2069     0792  2F8C               	goto	u2715
  2070     0793  0845               	movf	??___flmul+3,w
  2071     0794  00D1               	movwf	___flmul@prod+3
  2072     0795  0844               	movf	??___flmul+2,w
  2073     0796  00D0               	movwf	___flmul@prod+2
  2074     0797  0843               	movf	??___flmul+1,w
  2075     0798  00CF               	movwf	___flmul@prod+1
  2076     0799  0842               	movf	??___flmul,w
  2077     079A  00CE               	movwf	___flmul@prod
  2078     079B  3001               	movlw	1
  2079     079C  07D2               	addwf	___flmul@temp,f
  2080     079D  1803               	skipnc
  2081     079E  0AD3               	incf	___flmul@temp+1,f
  2082     079F  3000               	movlw	0
  2083     07A0  07D3               	addwf	___flmul@temp+1,f
  2084     07A1                     l1552:
  2085     07A1  0853               	movf	___flmul@temp+1,w
  2086     07A2  3A80               	xorlw	128
  2087     07A3  00FF               	movwf	127
  2088     07A4  3080               	movlw	128
  2089     07A5  027F               	subwf	127,w
  2090     07A6  1D03               	skipz
  2091     07A7  2FAA               	goto	u2725
  2092     07A8  30FF               	movlw	255
  2093     07A9  0252               	subwf	___flmul@temp,w
  2094     07AA                     u2725:
  2095     07AA  1C03               	skipc
  2096     07AB  2FB7               	goto	l1556
  2097     07AC  307F               	movlw	127
  2098     07AD  1283               	bcf	3,5	;RP0=0, select bank0
  2099     07AE  1303               	bcf	3,6	;RP1=0, select bank0
  2100     07AF  00D1               	movwf	___flmul@prod+3
  2101     07B0  3080               	movlw	128
  2102     07B1  00D0               	movwf	___flmul@prod+2
  2103     07B2  3000               	movlw	0
  2104     07B3  00CF               	movwf	___flmul@prod+1
  2105     07B4  3000               	movlw	0
  2106     07B5  00CE               	movwf	___flmul@prod
  2107     07B6  2FE3               	goto	l629
  2108     07B7                     l1556:
  2109     07B7  1283               	bcf	3,5	;RP0=0, select bank0
  2110     07B8  1303               	bcf	3,6	;RP1=0, select bank0
  2111     07B9  0853               	movf	___flmul@temp+1,w
  2112     07BA  3A80               	xorlw	128
  2113     07BB  00FF               	movwf	127
  2114     07BC  3080               	movlw	128
  2115     07BD  027F               	subwf	127,w
  2116     07BE  1D03               	skipz
  2117     07BF  2FC2               	goto	u2735
  2118     07C0  3001               	movlw	1
  2119     07C1  0252               	subwf	___flmul@temp,w
  2120     07C2                     u2735:
  2121     07C2  1803               	skipnc
  2122     07C3  2FD0               	goto	l1562
  2123     07C4  3000               	movlw	0
  2124     07C5  1283               	bcf	3,5	;RP0=0, select bank0
  2125     07C6  1303               	bcf	3,6	;RP1=0, select bank0
  2126     07C7  00D1               	movwf	___flmul@prod+3
  2127     07C8  3000               	movlw	0
  2128     07C9  00D0               	movwf	___flmul@prod+2
  2129     07CA  3000               	movlw	0
  2130     07CB  00CF               	movwf	___flmul@prod+1
  2131     07CC  3000               	movlw	0
  2132     07CD  00CE               	movwf	___flmul@prod
  2133     07CE  01C7               	clrf	___flmul@sign
  2134     07CF  2FE3               	goto	l629
  2135     07D0                     l1562:
  2136     07D0  1283               	bcf	3,5	;RP0=0, select bank0
  2137     07D1  1303               	bcf	3,6	;RP1=0, select bank0
  2138     07D2  0852               	movf	___flmul@temp,w
  2139     07D3  00CD               	movwf	___flmul@bexp
  2140     07D4  30FF               	movlw	255
  2141     07D5  05CE               	andwf	___flmul@prod,f
  2142     07D6  30FF               	movlw	255
  2143     07D7  05CF               	andwf	___flmul@prod+1,f
  2144     07D8  307F               	movlw	127
  2145     07D9  05D0               	andwf	___flmul@prod+2,f
  2146     07DA  3000               	movlw	0
  2147     07DB  05D1               	andwf	___flmul@prod+3,f
  2148     07DC  184D               	btfsc	___flmul@bexp,0
  2149     07DD  17D0               	bsf	___flmul@prod+2,7
  2150     07DE  084D               	movf	___flmul@bexp,w
  2151     07DF  00C2               	movwf	??___flmul
  2152     07E0  1003               	clrc
  2153     07E1  0C42               	rrf	??___flmul,w
  2154     07E2  00D1               	movwf	___flmul@prod+3
  2155     07E3                     l629:
  2156     07E3  0847               	movf	___flmul@sign,w
  2157     07E4  00C2               	movwf	??___flmul
  2158     07E5  0842               	movf	??___flmul,w
  2159     07E6  04D1               	iorwf	___flmul@prod+3,f
  2160     07E7  0851               	movf	___flmul@prod+3,w
  2161     07E8  00BD               	movwf	?___flmul+3
  2162     07E9  0850               	movf	___flmul@prod+2,w
  2163     07EA  00BC               	movwf	?___flmul+2
  2164     07EB  084F               	movf	___flmul@prod+1,w
  2165     07EC  00BB               	movwf	?___flmul+1
  2166     07ED  084E               	movf	___flmul@prod,w
  2167     07EE  00BA               	movwf	?___flmul
  2168     07EF  0008               	return
  2169     07F0                     __end_of___flmul:
  2170                           
  2171                           	psect	text5
  2172     0D7F                     __ptext5:	
  2173 ;; *************** function __Umul8_16 *****************
  2174 ;; Defined at:
  2175 ;;		line 4 in file "/Applications/microchip/xc8/v2.45/pic/sources/c99/common/Umul8_16.c"
  2176 ;; Parameters:    Size  Location     Type
  2177 ;;  multiplier      1    wreg     unsigned char 
  2178 ;;  multiplicand    1    0[COMMON] unsigned char 
  2179 ;; Auto vars:     Size  Location     Type
  2180 ;;  multiplier      1    8[COMMON] unsigned char 
  2181 ;;  word_mpld       2    6[COMMON] unsigned short 
  2182 ;;  product         2    4[COMMON] unsigned short 
  2183 ;; Return value:  Size  Location     Type
  2184 ;;                  2    0[COMMON] unsigned int 
  2185 ;; Registers used:
  2186 ;;		wreg, status,2, status,0
  2187 ;; Tracked objects:
  2188 ;;		On entry : 300/0
  2189 ;;		On exit  : 300/0
  2190 ;;		Unchanged: 300/0
  2191 ;; Data sizes:     COMMON   BANK0   BANK1   BANK3   BANK2
  2192 ;;      Params:         2       0       0       0       0
  2193 ;;      Locals:         5       0       0       0       0
  2194 ;;      Temps:          2       0       0       0       0
  2195 ;;      Totals:         9       0       0       0       0
  2196 ;;Total ram usage:        9 bytes
  2197 ;; Hardware stack levels used: 1
  2198 ;; This function calls:
  2199 ;;		Nothing
  2200 ;; This function is called by:
  2201 ;;		___flmul
  2202 ;; This function uses a non-reentrant model
  2203 ;;
  2204                           
  2205     0D7F                     __Umul8_16:	
  2206                           ;psect for function __Umul8_16
  2207                           
  2208                           
  2209                           ;incstack = 0
  2210                           ; Regs used in __Umul8_16: [wreg+status,2+status,0]
  2211                           ;__Umul8_16@multiplier stored from wreg
  2212     0D7F  00F8               	movwf	__Umul8_16@multiplier
  2213     0D80  01F4               	clrf	__Umul8_16@product
  2214     0D81  01F5               	clrf	__Umul8_16@product+1
  2215     0D82  0870               	movf	__Umul8_16@multiplicand,w
  2216     0D83  00F2               	movwf	??__Umul8_16
  2217     0D84  01F3               	clrf	??__Umul8_16+1
  2218     0D85  0872               	movf	??__Umul8_16,w
  2219     0D86  00F6               	movwf	__Umul8_16@word_mpld
  2220     0D87  0873               	movf	??__Umul8_16+1,w
  2221     0D88  00F7               	movwf	__Umul8_16@word_mpld+1
  2222     0D89                     l1270:
  2223     0D89  1C78               	btfss	__Umul8_16@multiplier,0
  2224     0D8A  2D91               	goto	l636
  2225     0D8B  0876               	movf	__Umul8_16@word_mpld,w
  2226     0D8C  07F4               	addwf	__Umul8_16@product,f
  2227     0D8D  1803               	skipnc
  2228     0D8E  0AF5               	incf	__Umul8_16@product+1,f
  2229     0D8F  0877               	movf	__Umul8_16@word_mpld+1,w
  2230     0D90  07F5               	addwf	__Umul8_16@product+1,f
  2231     0D91                     l636:
  2232     0D91  3001               	movlw	1
  2233     0D92                     u1845:
  2234     0D92  1003               	clrc
  2235     0D93  0DF6               	rlf	__Umul8_16@word_mpld,f
  2236     0D94  0DF7               	rlf	__Umul8_16@word_mpld+1,f
  2237     0D95  3EFF               	addlw	-1
  2238     0D96  1D03               	skipz
  2239     0D97  2D92               	goto	u1845
  2240     0D98  1003               	clrc
  2241     0D99  0CF8               	rrf	__Umul8_16@multiplier,f
  2242     0D9A  0878               	movf	__Umul8_16@multiplier,w
  2243     0D9B  1D03               	btfss	3,2
  2244     0D9C  2D89               	goto	l1270
  2245     0D9D  0875               	movf	__Umul8_16@product+1,w
  2246     0D9E  00F1               	movwf	?__Umul8_16+1
  2247     0D9F  0874               	movf	__Umul8_16@product,w
  2248     0DA0  00F0               	movwf	?__Umul8_16
  2249     0DA1  0008               	return
  2250     0DA2                     __end_of__Umul8_16:
  2251                           
  2252                           	psect	text6
  2253     0380                     __ptext6:	
  2254 ;; *************** function ___fldiv *****************
  2255 ;; Defined at:
  2256 ;;		line 8 in file "/Applications/microchip/xc8/v2.45/pic/sources/c99/common/sprcdiv.c"
  2257 ;; Parameters:    Size  Location     Type
  2258 ;;  a               4    0[BANK0 ] unsigned int 
  2259 ;;  b               4    4[BANK0 ] unsigned int 
  2260 ;; Auto vars:     Size  Location     Type
  2261 ;;  grs             4   20[BANK0 ] unsigned long 
  2262 ;;  rem             4   13[BANK0 ] unsigned long 
  2263 ;;  new_exp         2   18[BANK0 ] short 
  2264 ;;  aexp            1   25[BANK0 ] unsigned char 
  2265 ;;  bexp            1   24[BANK0 ] unsigned char 
  2266 ;;  sign            1   17[BANK0 ] unsigned char 
  2267 ;; Return value:  Size  Location     Type
  2268 ;;                  4    0[BANK0 ] unsigned char 
  2269 ;; Registers used:
  2270 ;;		wreg, status,2, status,0, btemp+1
  2271 ;; Tracked objects:
  2272 ;;		On entry : 300/0
  2273 ;;		On exit  : 300/0
  2274 ;;		Unchanged: 0/0
  2275 ;; Data sizes:     COMMON   BANK0   BANK1   BANK3   BANK2
  2276 ;;      Params:         0       8       0       0       0
  2277 ;;      Locals:         0      13       0       0       0
  2278 ;;      Temps:          0       5       0       0       0
  2279 ;;      Totals:         0      26       0       0       0
  2280 ;;Total ram usage:       26 bytes
  2281 ;; Hardware stack levels used: 1
  2282 ;; This function calls:
  2283 ;;		Nothing
  2284 ;; This function is called by:
  2285 ;;		_readTemperature
  2286 ;; This function uses a non-reentrant model
  2287 ;;
  2288                           
  2289     0380                     ___fldiv:	
  2290                           ;psect for function ___fldiv
  2291                           
  2292                           
  2293                           ;incstack = 0
  2294                           ; Regs used in ___fldiv: [wreg+status,2+status,0+btemp+1]
  2295     0380  0827               	movf	___fldiv@b+3,w
  2296     0381  3980               	andlw	128
  2297     0382  00B1               	movwf	___fldiv@sign
  2298     0383  0827               	movf	___fldiv@b+3,w
  2299     0384  00A8               	movwf	??___fldiv
  2300     0385  0728               	addwf	??___fldiv,w
  2301     0386  00B8               	movwf	___fldiv@bexp
  2302     0387  1BA6               	btfsc	___fldiv@b+2,7
  2303     0388  1438               	bsf	___fldiv@bexp,0
  2304     0389  0838               	movf	___fldiv@bexp,w
  2305     038A  1903               	btfsc	3,2
  2306     038B  2B9A               	goto	l1310
  2307     038C  0A38               	incf	___fldiv@bexp,w
  2308     038D  1D03               	btfss	3,2
  2309     038E  2B97               	goto	l1306
  2310     038F  3000               	movlw	0
  2311     0390  00A7               	movwf	___fldiv@b+3
  2312     0391  3000               	movlw	0
  2313     0392  00A6               	movwf	___fldiv@b+2
  2314     0393  3000               	movlw	0
  2315     0394  00A5               	movwf	___fldiv@b+1
  2316     0395  3000               	movlw	0
  2317     0396  00A4               	movwf	___fldiv@b
  2318     0397                     l1306:
  2319     0397  17A6               	bsf	___fldiv@b+2,7
  2320     0398  01A7               	clrf	___fldiv@b+3
  2321     0399  2BA2               	goto	l1312
  2322     039A                     l1310:
  2323     039A  3000               	movlw	0
  2324     039B  00A7               	movwf	___fldiv@b+3
  2325     039C  3000               	movlw	0
  2326     039D  00A6               	movwf	___fldiv@b+2
  2327     039E  3000               	movlw	0
  2328     039F  00A5               	movwf	___fldiv@b+1
  2329     03A0  3000               	movlw	0
  2330     03A1  00A4               	movwf	___fldiv@b
  2331     03A2                     l1312:
  2332     03A2  0823               	movf	___fldiv@a+3,w
  2333     03A3  3980               	andlw	128
  2334     03A4  00A8               	movwf	??___fldiv
  2335     03A5  0828               	movf	??___fldiv,w
  2336     03A6  06B1               	xorwf	___fldiv@sign,f
  2337     03A7  0823               	movf	___fldiv@a+3,w
  2338     03A8  00A8               	movwf	??___fldiv
  2339     03A9  0728               	addwf	??___fldiv,w
  2340     03AA  00B9               	movwf	___fldiv@aexp
  2341     03AB  1BA2               	btfsc	___fldiv@a+2,7
  2342     03AC  1439               	bsf	___fldiv@aexp,0
  2343     03AD  0839               	movf	___fldiv@aexp,w
  2344     03AE  1903               	btfsc	3,2
  2345     03AF  2BBE               	goto	l1330
  2346     03B0  0A39               	incf	___fldiv@aexp,w
  2347     03B1  1D03               	btfss	3,2
  2348     03B2  2BBB               	goto	l1326
  2349     03B3  3000               	movlw	0
  2350     03B4  00A3               	movwf	___fldiv@a+3
  2351     03B5  3000               	movlw	0
  2352     03B6  00A2               	movwf	___fldiv@a+2
  2353     03B7  3000               	movlw	0
  2354     03B8  00A1               	movwf	___fldiv@a+1
  2355     03B9  3000               	movlw	0
  2356     03BA  00A0               	movwf	___fldiv@a
  2357     03BB                     l1326:
  2358     03BB  17A2               	bsf	___fldiv@a+2,7
  2359     03BC  01A3               	clrf	___fldiv@a+3
  2360     03BD  2BC6               	goto	l577
  2361     03BE                     l1330:
  2362     03BE  3000               	movlw	0
  2363     03BF  00A3               	movwf	___fldiv@a+3
  2364     03C0  3000               	movlw	0
  2365     03C1  00A2               	movwf	___fldiv@a+2
  2366     03C2  3000               	movlw	0
  2367     03C3  00A1               	movwf	___fldiv@a+1
  2368     03C4  3000               	movlw	0
  2369     03C5  00A0               	movwf	___fldiv@a
  2370     03C6                     l577:
  2371     03C6  0823               	movf	___fldiv@a+3,w
  2372     03C7  0422               	iorwf	___fldiv@a+2,w
  2373     03C8  0421               	iorwf	___fldiv@a+1,w
  2374     03C9  0420               	iorwf	___fldiv@a,w
  2375     03CA  1D03               	skipz
  2376     03CB  2BE5               	goto	l1340
  2377     03CC  3000               	movlw	0
  2378     03CD  00A7               	movwf	___fldiv@b+3
  2379     03CE  3000               	movlw	0
  2380     03CF  00A6               	movwf	___fldiv@b+2
  2381     03D0  3000               	movlw	0
  2382     03D1  00A5               	movwf	___fldiv@b+1
  2383     03D2  3000               	movlw	0
  2384     03D3  00A4               	movwf	___fldiv@b
  2385     03D4  3080               	movlw	128
  2386     03D5  04A6               	iorwf	___fldiv@b+2,f
  2387     03D6  307F               	movlw	127
  2388     03D7  04A7               	iorwf	___fldiv@b+3,f
  2389     03D8                     L2:
  2390     03D8  0831               	movf	___fldiv@sign,w
  2391     03D9  00A8               	movwf	??___fldiv
  2392     03DA  0828               	movf	??___fldiv,w
  2393     03DB  04A7               	iorwf	___fldiv@b+3,f
  2394     03DC  0827               	movf	___fldiv@b+3,w
  2395     03DD  00A3               	movwf	?___fldiv+3
  2396     03DE  0826               	movf	___fldiv@b+2,w
  2397     03DF  00A2               	movwf	?___fldiv+2
  2398     03E0  0825               	movf	___fldiv@b+1,w
  2399     03E1  00A1               	movwf	?___fldiv+1
  2400     03E2  0824               	movf	___fldiv@b,w
  2401     03E3  00A0               	movwf	?___fldiv
  2402     03E4  0008               	return
  2403     03E5                     l1340:
  2404     03E5  0838               	movf	___fldiv@bexp,w
  2405     03E6  1D03               	btfss	3,2
  2406     03E7  2BF1               	goto	l1346
  2407     03E8  3000               	movlw	0
  2408     03E9  00A3               	movwf	?___fldiv+3
  2409     03EA  3000               	movlw	0
  2410     03EB  00A2               	movwf	?___fldiv+2
  2411     03EC  3000               	movlw	0
  2412     03ED  00A1               	movwf	?___fldiv+1
  2413     03EE  3000               	movlw	0
  2414     03EF  00A0               	movwf	?___fldiv
  2415     03F0  0008               	return
  2416     03F1                     l1346:
  2417     03F1  0838               	movf	___fldiv@bexp,w
  2418     03F2  00A8               	movwf	??___fldiv
  2419     03F3  01A9               	clrf	??___fldiv+1
  2420     03F4  0829               	movf	??___fldiv+1,w
  2421     03F5  00AB               	movwf	??___fldiv+3
  2422     03F6  0839               	movf	___fldiv@aexp,w
  2423     03F7  0228               	subwf	??___fldiv,w
  2424     03F8  00AA               	movwf	??___fldiv+2
  2425     03F9  1C03               	skipc
  2426     03FA  03AB               	decf	??___fldiv+3,f
  2427     03FB  082A               	movf	??___fldiv+2,w
  2428     03FC  3E7F               	addlw	127
  2429     03FD  00B2               	movwf	___fldiv@new_exp
  2430     03FE  082B               	movf	??___fldiv+3,w
  2431     03FF  1803               	skipnc
  2432     0400  3E01               	addlw	1
  2433     0401  3E00               	addlw	0
  2434     0402  00B3               	movwf	___fldiv@new_exp+1
  2435     0403  0827               	movf	___fldiv@b+3,w
  2436     0404  00B0               	movwf	___fldiv@rem+3
  2437     0405  0826               	movf	___fldiv@b+2,w
  2438     0406  00AF               	movwf	___fldiv@rem+2
  2439     0407  0825               	movf	___fldiv@b+1,w
  2440     0408  00AE               	movwf	___fldiv@rem+1
  2441     0409  0824               	movf	___fldiv@b,w
  2442     040A  00AD               	movwf	___fldiv@rem
  2443     040B  3000               	movlw	0
  2444     040C  00A7               	movwf	___fldiv@b+3
  2445     040D  3000               	movlw	0
  2446     040E  00A6               	movwf	___fldiv@b+2
  2447     040F  3000               	movlw	0
  2448     0410  00A5               	movwf	___fldiv@b+1
  2449     0411  3000               	movlw	0
  2450     0412  00A4               	movwf	___fldiv@b
  2451     0413  3000               	movlw	0
  2452     0414  00B7               	movwf	___fldiv@grs+3
  2453     0415  3000               	movlw	0
  2454     0416  00B6               	movwf	___fldiv@grs+2
  2455     0417  3000               	movlw	0
  2456     0418  00B5               	movwf	___fldiv@grs+1
  2457     0419  3000               	movlw	0
  2458     041A  00B4               	movwf	___fldiv@grs
  2459     041B  01B9               	clrf	___fldiv@aexp
  2460     041C                     l1374:
  2461     041C  301A               	movlw	26
  2462     041D  0239               	subwf	___fldiv@aexp,w
  2463     041E  1803               	btfsc	3,0
  2464     041F  2C64               	goto	l1376
  2465     0420  0839               	movf	___fldiv@aexp,w
  2466     0421  1903               	btfsc	3,2
  2467     0422  2C40               	goto	l1366
  2468     0423  3001               	movlw	1
  2469     0424  00A8               	movwf	??___fldiv
  2470     0425                     u2195:
  2471     0425  1003               	clrc
  2472     0426  0DAD               	rlf	___fldiv@rem,f
  2473     0427  0DAE               	rlf	___fldiv@rem+1,f
  2474     0428  0DAF               	rlf	___fldiv@rem+2,f
  2475     0429  0DB0               	rlf	___fldiv@rem+3,f
  2476     042A  0BA8               	decfsz	??___fldiv,f
  2477     042B  2C25               	goto	u2195
  2478     042C  3001               	movlw	1
  2479     042D  00A8               	movwf	??___fldiv
  2480     042E                     u2205:
  2481     042E  1003               	clrc
  2482     042F  0DA4               	rlf	___fldiv@b,f
  2483     0430  0DA5               	rlf	___fldiv@b+1,f
  2484     0431  0DA6               	rlf	___fldiv@b+2,f
  2485     0432  0DA7               	rlf	___fldiv@b+3,f
  2486     0433  0BA8               	decfsz	??___fldiv,f
  2487     0434  2C2E               	goto	u2205
  2488     0435  1BB7               	btfsc	___fldiv@grs+3,7
  2489     0436  1424               	bsf	___fldiv@b,0
  2490     0437  3001               	movlw	1
  2491     0438  00A8               	movwf	??___fldiv
  2492     0439                     u2225:
  2493     0439  1003               	clrc
  2494     043A  0DB4               	rlf	___fldiv@grs,f
  2495     043B  0DB5               	rlf	___fldiv@grs+1,f
  2496     043C  0DB6               	rlf	___fldiv@grs+2,f
  2497     043D  0DB7               	rlf	___fldiv@grs+3,f
  2498     043E  0BA8               	decfsz	??___fldiv,f
  2499     043F  2C39               	goto	u2225
  2500     0440                     l1366:
  2501     0440  0823               	movf	___fldiv@a+3,w
  2502     0441  0230               	subwf	___fldiv@rem+3,w
  2503     0442  1D03               	skipz
  2504     0443  2C4E               	goto	u2235
  2505     0444  0822               	movf	___fldiv@a+2,w
  2506     0445  022F               	subwf	___fldiv@rem+2,w
  2507     0446  1D03               	skipz
  2508     0447  2C4E               	goto	u2235
  2509     0448  0821               	movf	___fldiv@a+1,w
  2510     0449  022E               	subwf	___fldiv@rem+1,w
  2511     044A  1D03               	skipz
  2512     044B  2C4E               	goto	u2235
  2513     044C  0820               	movf	___fldiv@a,w
  2514     044D  022D               	subwf	___fldiv@rem,w
  2515     044E                     u2235:
  2516     044E  1C03               	skipc
  2517     044F  2C5F               	goto	l1372
  2518     0450  1737               	bsf	___fldiv@grs+3,6
  2519     0451  0820               	movf	___fldiv@a,w
  2520     0452  02AD               	subwf	___fldiv@rem,f
  2521     0453  0821               	movf	___fldiv@a+1,w
  2522     0454  1C03               	skipc
  2523     0455  0F21               	incfsz	___fldiv@a+1,w
  2524     0456  02AE               	subwf	___fldiv@rem+1,f
  2525     0457  0822               	movf	___fldiv@a+2,w
  2526     0458  1C03               	skipc
  2527     0459  0F22               	incfsz	___fldiv@a+2,w
  2528     045A  02AF               	subwf	___fldiv@rem+2,f
  2529     045B  0823               	movf	___fldiv@a+3,w
  2530     045C  1C03               	skipc
  2531     045D  0F23               	incfsz	___fldiv@a+3,w
  2532     045E  02B0               	subwf	___fldiv@rem+3,f
  2533     045F                     l1372:
  2534     045F  3001               	movlw	1
  2535     0460  00A8               	movwf	??___fldiv
  2536     0461  0828               	movf	??___fldiv,w
  2537     0462  07B9               	addwf	___fldiv@aexp,f
  2538     0463  2C1C               	goto	l1374
  2539     0464                     l1376:
  2540     0464  0830               	movf	___fldiv@rem+3,w
  2541     0465  042F               	iorwf	___fldiv@rem+2,w
  2542     0466  042E               	iorwf	___fldiv@rem+1,w
  2543     0467  042D               	iorwf	___fldiv@rem,w
  2544     0468  1D03               	btfss	3,2
  2545     0469  1434               	bsf	___fldiv@grs,0
  2546     046A                     l1390:
  2547     046A  1BA6               	btfsc	___fldiv@b+2,7
  2548     046B  2C87               	goto	l1392
  2549     046C  3001               	movlw	1
  2550     046D  00A8               	movwf	??___fldiv
  2551     046E                     u2265:
  2552     046E  1003               	clrc
  2553     046F  0DA4               	rlf	___fldiv@b,f
  2554     0470  0DA5               	rlf	___fldiv@b+1,f
  2555     0471  0DA6               	rlf	___fldiv@b+2,f
  2556     0472  0DA7               	rlf	___fldiv@b+3,f
  2557     0473  0BA8               	decfsz	??___fldiv,f
  2558     0474  2C6E               	goto	u2265
  2559     0475  1BB7               	btfsc	___fldiv@grs+3,7
  2560     0476  1424               	bsf	___fldiv@b,0
  2561     0477  3001               	movlw	1
  2562     0478  00A8               	movwf	??___fldiv
  2563     0479                     u2285:
  2564     0479  1003               	clrc
  2565     047A  0DB4               	rlf	___fldiv@grs,f
  2566     047B  0DB5               	rlf	___fldiv@grs+1,f
  2567     047C  0DB6               	rlf	___fldiv@grs+2,f
  2568     047D  0DB7               	rlf	___fldiv@grs+3,f
  2569     047E  0BA8               	decfsz	??___fldiv,f
  2570     047F  2C79               	goto	u2285
  2571     0480  30FF               	movlw	255
  2572     0481  07B2               	addwf	___fldiv@new_exp,f
  2573     0482  1803               	skipnc
  2574     0483  0AB3               	incf	___fldiv@new_exp+1,f
  2575     0484  30FF               	movlw	255
  2576     0485  07B3               	addwf	___fldiv@new_exp+1,f
  2577     0486  2C6A               	goto	l1390
  2578     0487                     l1392:
  2579     0487  01B9               	clrf	___fldiv@aexp
  2580     0488  1FB7               	btfss	___fldiv@grs+3,7
  2581     0489  2CA0               	goto	l1402
  2582     048A  30FF               	movlw	255
  2583     048B  0534               	andwf	___fldiv@grs,w
  2584     048C  00A8               	movwf	??___fldiv
  2585     048D  30FF               	movlw	255
  2586     048E  0535               	andwf	___fldiv@grs+1,w
  2587     048F  00A9               	movwf	??___fldiv+1
  2588     0490  30FF               	movlw	255
  2589     0491  0536               	andwf	___fldiv@grs+2,w
  2590     0492  00AA               	movwf	??___fldiv+2
  2591     0493  307F               	movlw	127
  2592     0494  0537               	andwf	___fldiv@grs+3,w
  2593     0495  00AB               	movwf	??___fldiv+3
  2594     0496  082B               	movf	??___fldiv+3,w
  2595     0497  042A               	iorwf	??___fldiv+2,w
  2596     0498  0429               	iorwf	??___fldiv+1,w
  2597     0499  0428               	iorwf	??___fldiv,w
  2598     049A  1903               	skipnz
  2599     049B  1824               	btfsc	___fldiv@b,0
  2600     049C  2C9E               	goto	l1398
  2601     049D  2CA0               	goto	l1402
  2602     049E                     l1398:
  2603     049E  01B9               	clrf	___fldiv@aexp
  2604     049F  0AB9               	incf	___fldiv@aexp,f
  2605     04A0                     l1402:
  2606     04A0  0839               	movf	___fldiv@aexp,w
  2607     04A1  1903               	btfsc	3,2
  2608     04A2  2CD2               	goto	l1412
  2609     04A3  3001               	movlw	1
  2610     04A4  07A4               	addwf	___fldiv@b,f
  2611     04A5  3000               	movlw	0
  2612     04A6  1803               	skipnc
  2613     04A7  3001               	movlw	1
  2614     04A8  07A5               	addwf	___fldiv@b+1,f
  2615     04A9  3000               	movlw	0
  2616     04AA  1803               	skipnc
  2617     04AB  3001               	movlw	1
  2618     04AC  07A6               	addwf	___fldiv@b+2,f
  2619     04AD  3000               	movlw	0
  2620     04AE  1803               	skipnc
  2621     04AF  3001               	movlw	1
  2622     04B0  07A7               	addwf	___fldiv@b+3,f
  2623     04B1  1C27               	btfss	___fldiv@b+3,0
  2624     04B2  2CD2               	goto	l1412
  2625     04B3  0824               	movf	___fldiv@b,w
  2626     04B4  00A8               	movwf	??___fldiv
  2627     04B5  0825               	movf	___fldiv@b+1,w
  2628     04B6  00A9               	movwf	??___fldiv+1
  2629     04B7  0826               	movf	___fldiv@b+2,w
  2630     04B8  00AA               	movwf	??___fldiv+2
  2631     04B9  0827               	movf	___fldiv@b+3,w
  2632     04BA  00AB               	movwf	??___fldiv+3
  2633     04BB  3001               	movlw	1
  2634     04BC  00AC               	movwf	??___fldiv+4
  2635     04BD                     u2355:
  2636     04BD  0D2B               	rlf	??___fldiv+3,w
  2637     04BE  0CAB               	rrf	??___fldiv+3,f
  2638     04BF  0CAA               	rrf	??___fldiv+2,f
  2639     04C0  0CA9               	rrf	??___fldiv+1,f
  2640     04C1  0CA8               	rrf	??___fldiv,f
  2641     04C2  0BAC               	decfsz	??___fldiv+4,f
  2642     04C3  2CBD               	goto	u2355
  2643     04C4  082B               	movf	??___fldiv+3,w
  2644     04C5  00A7               	movwf	___fldiv@b+3
  2645     04C6  082A               	movf	??___fldiv+2,w
  2646     04C7  00A6               	movwf	___fldiv@b+2
  2647     04C8  0829               	movf	??___fldiv+1,w
  2648     04C9  00A5               	movwf	___fldiv@b+1
  2649     04CA  0828               	movf	??___fldiv,w
  2650     04CB  00A4               	movwf	___fldiv@b
  2651     04CC  3001               	movlw	1
  2652     04CD  07B2               	addwf	___fldiv@new_exp,f
  2653     04CE  1803               	skipnc
  2654     04CF  0AB3               	incf	___fldiv@new_exp+1,f
  2655     04D0  3000               	movlw	0
  2656     04D1  07B3               	addwf	___fldiv@new_exp+1,f
  2657     04D2                     l1412:
  2658     04D2  0833               	movf	___fldiv@new_exp+1,w
  2659     04D3  3A80               	xorlw	128
  2660     04D4  00FF               	movwf	127
  2661     04D5  3080               	movlw	128
  2662     04D6  027F               	subwf	127,w
  2663     04D7  1D03               	skipz
  2664     04D8  2CDB               	goto	u2365
  2665     04D9  30FF               	movlw	255
  2666     04DA  0232               	subwf	___fldiv@new_exp,w
  2667     04DB                     u2365:
  2668     04DB  1C03               	skipc
  2669     04DC  2CEB               	goto	l1416
  2670     04DD  30FF               	movlw	255
  2671     04DE  1283               	bcf	3,5	;RP0=0, select bank0
  2672     04DF  1303               	bcf	3,6	;RP1=0, select bank0
  2673     04E0  00B2               	movwf	___fldiv@new_exp
  2674     04E1  3000               	movlw	0
  2675     04E2  00B3               	movwf	___fldiv@new_exp+1
  2676     04E3  3000               	movlw	0
  2677     04E4  00A7               	movwf	___fldiv@b+3
  2678     04E5  3000               	movlw	0
  2679     04E6  00A6               	movwf	___fldiv@b+2
  2680     04E7  3000               	movlw	0
  2681     04E8  00A5               	movwf	___fldiv@b+1
  2682     04E9  3000               	movlw	0
  2683     04EA  00A4               	movwf	___fldiv@b
  2684     04EB                     l1416:
  2685     04EB  1283               	bcf	3,5	;RP0=0, select bank0
  2686     04EC  1303               	bcf	3,6	;RP1=0, select bank0
  2687     04ED  0833               	movf	___fldiv@new_exp+1,w
  2688     04EE  3A80               	xorlw	128
  2689     04EF  00FF               	movwf	127
  2690     04F0  3080               	movlw	128
  2691     04F1  027F               	subwf	127,w
  2692     04F2  1D03               	skipz
  2693     04F3  2CF6               	goto	u2375
  2694     04F4  3001               	movlw	1
  2695     04F5  0232               	subwf	___fldiv@new_exp,w
  2696     04F6                     u2375:
  2697     04F6  1803               	skipnc
  2698     04F7  2D05               	goto	l599
  2699     04F8  1283               	bcf	3,5	;RP0=0, select bank0
  2700     04F9  1303               	bcf	3,6	;RP1=0, select bank0
  2701     04FA  01B2               	clrf	___fldiv@new_exp
  2702     04FB  01B3               	clrf	___fldiv@new_exp+1
  2703     04FC  3000               	movlw	0
  2704     04FD  00A7               	movwf	___fldiv@b+3
  2705     04FE  3000               	movlw	0
  2706     04FF  00A6               	movwf	___fldiv@b+2
  2707     0500  3000               	movlw	0
  2708     0501  00A5               	movwf	___fldiv@b+1
  2709     0502  3000               	movlw	0
  2710     0503  00A4               	movwf	___fldiv@b
  2711     0504  01B1               	clrf	___fldiv@sign
  2712     0505                     l599:
  2713     0505  1283               	bcf	3,5	;RP0=0, select bank0
  2714     0506  1303               	bcf	3,6	;RP1=0, select bank0
  2715     0507  0832               	movf	___fldiv@new_exp,w
  2716     0508  00B8               	movwf	___fldiv@bexp
  2717     0509  1C38               	btfss	___fldiv@bexp,0
  2718     050A  2D0D               	goto	l1428
  2719     050B  17A6               	bsf	___fldiv@b+2,7
  2720     050C  2D11               	goto	l601
  2721     050D                     l1428:
  2722     050D  307F               	movlw	127
  2723     050E  00A8               	movwf	??___fldiv
  2724     050F  0828               	movf	??___fldiv,w
  2725     0510  05A6               	andwf	___fldiv@b+2,f
  2726     0511                     l601:
  2727     0511  0838               	movf	___fldiv@bexp,w
  2728     0512  00A8               	movwf	??___fldiv
  2729     0513  1003               	clrc
  2730     0514  0C28               	rrf	??___fldiv,w
  2731     0515  00A7               	movwf	___fldiv@b+3
  2732     0516  2BD8               	goto	L2
  2733     0517                     __end_of___fldiv:
  2734                           
  2735                           	psect	text7
  2736     0CBF                     __ptext7:	
  2737 ;; *************** function _initRPM *****************
  2738 ;; Defined at:
  2739 ;;		line 32 in file "rpm.c"
  2740 ;; Parameters:    Size  Location     Type
  2741 ;;		None
  2742 ;; Auto vars:     Size  Location     Type
  2743 ;;		None
  2744 ;; Return value:  Size  Location     Type
  2745 ;;                  1    wreg      void 
  2746 ;; Registers used:
  2747 ;;		wreg, status,2, status,0
  2748 ;; Tracked objects:
  2749 ;;		On entry : B00/100
  2750 ;;		On exit  : B00/0
  2751 ;;		Unchanged: 800/0
  2752 ;; Data sizes:     COMMON   BANK0   BANK1   BANK3   BANK2
  2753 ;;      Params:         0       0       0       0       0
  2754 ;;      Locals:         0       0       0       0       0
  2755 ;;      Temps:          0       0       0       0       0
  2756 ;;      Totals:         0       0       0       0       0
  2757 ;;Total ram usage:        0 bytes
  2758 ;; Hardware stack levels used: 1
  2759 ;; This function calls:
  2760 ;;		Nothing
  2761 ;; This function is called by:
  2762 ;;		_main
  2763 ;; This function uses a non-reentrant model
  2764 ;;
  2765                           
  2766     0CBF                     _initRPM:	
  2767                           ;psect for function _initRPM
  2768                           
  2769                           
  2770                           ;rpm.c: 34: 
  2771                           
  2772                           ;incstack = 0
  2773                           ; Regs used in _initRPM: [wreg+status,2+status,0]
  2774     0CBF  1406               	bsf	6,0	;volatile
  2775                           
  2776                           ;rpm.c: 35:     TMR0 = 0;
  2777     0CC0  1703               	bsf	3,6	;RP1=1, select bank3
  2778     0CC1  0189               	clrf	9	;volatile
  2779                           
  2780                           ;rpm.c: 37: 
  2781     0CC2  1303               	bcf	3,6	;RP1=0, select bank1
  2782     0CC3  1281               	bcf	1,5	;volatile
  2783                           
  2784                           ;rpm.c: 38:     while (!INTCONbits.TMR0IF) {
  2785     0CC4  1181               	bcf	1,3	;volatile
  2786                           
  2787                           ;rpm.c: 39:         currentState = PORTBbits.RB0;
  2788     0CC5  3007               	movlw	7
  2789     0CC6  0481               	iorwf	1,f	;volatile
  2790                           
  2791                           ;rpm.c: 40: 
  2792     0CC7  1283               	bcf	3,5	;RP0=0, select bank0
  2793     0CC8  0181               	clrf	1	;volatile
  2794     0CC9  0008               	return
  2795     0CCA                     __end_of_initRPM:
  2796                           
  2797                           	psect	text8
  2798     0CE1                     __ptext8:	
  2799 ;; *************** function _initPWM *****************
  2800 ;; Defined at:
  2801 ;;		line 19 in file "rpm.c"
  2802 ;; Parameters:    Size  Location     Type
  2803 ;;		None
  2804 ;; Auto vars:     Size  Location     Type
  2805 ;;		None
  2806 ;; Return value:  Size  Location     Type
  2807 ;;                  1    wreg      void 
  2808 ;; Registers used:
  2809 ;;		wreg, status,2
  2810 ;; Tracked objects:
  2811 ;;		On entry : B00/0
  2812 ;;		On exit  : B00/0
  2813 ;;		Unchanged: 800/0
  2814 ;; Data sizes:     COMMON   BANK0   BANK1   BANK3   BANK2
  2815 ;;      Params:         0       0       0       0       0
  2816 ;;      Locals:         0       0       0       0       0
  2817 ;;      Temps:          0       0       0       0       0
  2818 ;;      Totals:         0       0       0       0       0
  2819 ;;Total ram usage:        0 bytes
  2820 ;; Hardware stack levels used: 1
  2821 ;; This function calls:
  2822 ;;		Nothing
  2823 ;; This function is called by:
  2824 ;;		_main
  2825 ;; This function uses a non-reentrant model
  2826 ;;
  2827                           
  2828     0CE1                     _initPWM:	
  2829                           ;psect for function _initPWM
  2830                           
  2831                           
  2832                           ;rpm.c: 20:     TRISBbits.TRISB0 = 1;
  2833                           
  2834                           ;incstack = 0
  2835                           ; Regs used in _initPWM: [wreg+status,2]
  2836     0CE1  3060               	movlw	96
  2837     0CE2  1683               	bsf	3,5	;RP0=1, select bank1
  2838     0CE3  008F               	movwf	15	;volatile
  2839                           
  2840                           ;rpm.c: 21:     ANSELH = 0x00;
  2841     0CE4  0187               	clrf	7	;volatile
  2842                           
  2843                           ;rpm.c: 22: 
  2844     0CE5  3007               	movlw	7
  2845     0CE6  1283               	bcf	3,5	;RP0=0, select bank0
  2846     0CE7  0092               	movwf	18	;volatile
  2847                           
  2848                           ;rpm.c: 23:     OPTION_REGbits.T0CS = 0;
  2849     0CE8  30FF               	movlw	255
  2850     0CE9  1683               	bsf	3,5	;RP0=1, select bank1
  2851     0CEA  0092               	movwf	18	;volatile
  2852                           
  2853                           ;rpm.c: 24:     OPTION_REGbits.PSA = 0;
  2854     0CEB  300C               	movlw	12
  2855     0CEC  1283               	bcf	3,5	;RP0=0, select bank0
  2856     0CED  0097               	movwf	23	;volatile
  2857                           
  2858                           ;rpm.c: 25:     OPTION_REGbits.PS = 0b111;
  2859     0CEE  0195               	clrf	21	;volatile
  2860                           
  2861                           ;rpm.c: 26:     TMR0 = 0;
  2862     0CEF  3004               	movlw	4
  2863     0CF0  0092               	movwf	18	;volatile
  2864     0CF1  0008               	return
  2865     0CF2                     __end_of_initPWM:
  2866                           
  2867                           	psect	text9
  2868     0CD5                     __ptext9:	
  2869 ;; *************** function _initADC *****************
  2870 ;; Defined at:
  2871 ;;		line 65 in file "rpm.c"
  2872 ;; Parameters:    Size  Location     Type
  2873 ;;		None
  2874 ;; Auto vars:     Size  Location     Type
  2875 ;;		None
  2876 ;; Return value:  Size  Location     Type
  2877 ;;                  1    wreg      void 
  2878 ;; Registers used:
  2879 ;;		wreg
  2880 ;; Tracked objects:
  2881 ;;		On entry : B00/0
  2882 ;;		On exit  : B00/100
  2883 ;;		Unchanged: 800/0
  2884 ;; Data sizes:     COMMON   BANK0   BANK1   BANK3   BANK2
  2885 ;;      Params:         0       0       0       0       0
  2886 ;;      Locals:         0       0       0       0       0
  2887 ;;      Temps:          0       0       0       0       0
  2888 ;;      Totals:         0       0       0       0       0
  2889 ;;Total ram usage:        0 bytes
  2890 ;; Hardware stack levels used: 1
  2891 ;; This function calls:
  2892 ;;		Nothing
  2893 ;; This function is called by:
  2894 ;;		_main
  2895 ;; This function uses a non-reentrant model
  2896 ;;
  2897                           
  2898     0CD5                     _initADC:	
  2899                           ;psect for function _initADC
  2900                           
  2901                           
  2902                           ;rpm.c: 66:     return voltage / 0.01;
  2903                           
  2904                           ;incstack = 0
  2905                           ; Regs used in _initADC: [wreg]
  2906     0CD5  3001               	movlw	1
  2907     0CD6  1683               	bsf	3,5	;RP0=1, select bank3
  2908     0CD7  1703               	bsf	3,6	;RP1=1, select bank3
  2909     0CD8  0088               	movwf	8	;volatile
  2910                           
  2911                           ;rpm.c: 67: }
  2912     0CD9  3001               	movlw	1
  2913     0CDA  1283               	bcf	3,5	;RP0=0, select bank0
  2914     0CDB  1303               	bcf	3,6	;RP1=0, select bank0
  2915     0CDC  009F               	movwf	31	;volatile
  2916                           
  2917                           ;rpm.c: 68: 
  2918     0CDD  3080               	movlw	128
  2919     0CDE  1683               	bsf	3,5	;RP0=1, select bank1
  2920     0CDF  009F               	movwf	31	;volatile
  2921     0CE0  0008               	return
  2922     0CE1                     __end_of_initADC:
  2923                           
  2924                           	psect	text10
  2925     0D5C                     __ptext10:	
  2926 ;; *************** function _countPulses *****************
  2927 ;; Defined at:
  2928 ;;		line 44 in file "rpm.c"
  2929 ;; Parameters:    Size  Location     Type
  2930 ;;		None
  2931 ;; Auto vars:     Size  Location     Type
  2932 ;;  pulseCount      2    2[COMMON] unsigned int 
  2933 ;;  currentState    1    5[COMMON] unsigned char 
  2934 ;;  lastState       1    4[COMMON] unsigned char 
  2935 ;; Return value:  Size  Location     Type
  2936 ;;                  2    0[COMMON] unsigned int 
  2937 ;; Registers used:
  2938 ;;		wreg, status,2, status,0
  2939 ;; Tracked objects:
  2940 ;;		On entry : 300/0
  2941 ;;		On exit  : 300/0
  2942 ;;		Unchanged: 0/0
  2943 ;; Data sizes:     COMMON   BANK0   BANK1   BANK3   BANK2
  2944 ;;      Params:         2       0       0       0       0
  2945 ;;      Locals:         4       0       0       0       0
  2946 ;;      Temps:          0       0       0       0       0
  2947 ;;      Totals:         6       0       0       0       0
  2948 ;;Total ram usage:        6 bytes
  2949 ;; Hardware stack levels used: 1
  2950 ;; This function calls:
  2951 ;;		Nothing
  2952 ;; This function is called by:
  2953 ;;		_main
  2954 ;; This function uses a non-reentrant model
  2955 ;;
  2956                           
  2957     0D5C                     _countPulses:	
  2958                           ;psect for function _countPulses
  2959                           
  2960                           
  2961                           ;rpm.c: 45:     }
  2962                           
  2963                           ;incstack = 0
  2964                           ; Regs used in _countPulses: [wreg+status,2+status,0]
  2965     0D5C  01F2               	clrf	countPulses@pulseCount
  2966     0D5D  01F3               	clrf	countPulses@pulseCount+1
  2967                           
  2968                           ;rpm.c: 46: 
  2969     0D5E  3000               	movlw	0
  2970     0D5F  1806               	btfsc	6,0	;volatile
  2971     0D60  3001               	movlw	1
  2972     0D61  00F4               	movwf	countPulses@lastState
  2973                           
  2974                           ;rpm.c: 47:     return pulseCount;;rpm.c: 49: 
  2975     0D62  0181               	clrf	1	;volatile
  2976                           
  2977                           ;rpm.c: 50: 
  2978     0D63  110B               	bcf	11,2	;volatile
  2979     0D64                     l1658:	
  2980                           ;rpm.c: 52:     ANSEL = 0x01;
  2981                           
  2982                           
  2983                           ;rpm.c: 52:     ANSEL = 0x01;
  2984     0D64  190B               	btfsc	11,2	;volatile
  2985     0D65  2D7A               	goto	l1660
  2986                           
  2987                           ;rpm.c: 53:     ADCON0 = 0x01;
  2988     0D66  3000               	movlw	0
  2989     0D67  1806               	btfsc	6,0	;volatile
  2990     0D68  3001               	movlw	1
  2991     0D69  00F5               	movwf	countPulses@currentState
  2992                           
  2993                           ;rpm.c: 55: }
  2994     0D6A  0875               	movf	countPulses@currentState,w
  2995     0D6B  0674               	xorwf	countPulses@lastState,w
  2996     0D6C  1903               	skipnz
  2997     0D6D  2D77               	goto	l59
  2998     0D6E  0375               	decf	countPulses@currentState,w
  2999     0D6F  1D03               	btfss	3,2
  3000     0D70  2D77               	goto	l59
  3001                           
  3002                           ;rpm.c: 56: 
  3003     0D71  3001               	movlw	1
  3004     0D72  07F2               	addwf	countPulses@pulseCount,f
  3005     0D73  1803               	skipnc
  3006     0D74  0AF3               	incf	countPulses@pulseCount+1,f
  3007     0D75  3000               	movlw	0
  3008     0D76  07F3               	addwf	countPulses@pulseCount+1,f
  3009     0D77                     l59:	
  3010                           ;rpm.c: 57: unsigned int readADC() {
  3011                           
  3012                           
  3013                           ;rpm.c: 58:     ADCON0bits.GO = 1;
  3014     0D77  0875               	movf	countPulses@currentState,w
  3015     0D78  00F4               	movwf	countPulses@lastState
  3016     0D79  2D64               	goto	l1658
  3017     0D7A                     l1660:
  3018                           
  3019                           ;rpm.c: 61: }
  3020     0D7A  0873               	movf	countPulses@pulseCount+1,w
  3021     0D7B  00F1               	movwf	?_countPulses+1
  3022     0D7C  0872               	movf	countPulses@pulseCount,w
  3023     0D7D  00F0               	movwf	?_countPulses
  3024     0D7E  0008               	return
  3025     0D7F                     __end_of_countPulses:
  3026                           
  3027                           	psect	text11
  3028     0003                     __ptext11:	
  3029 ;; *************** function ___fltol *****************
  3030 ;; Defined at:
  3031 ;;		line 43 in file "/Applications/microchip/xc8/v2.45/pic/sources/c99/common/fltol.c"
  3032 ;; Parameters:    Size  Location     Type
  3033 ;;  f1              4   52[BANK0 ] unsigned int 
  3034 ;; Auto vars:     Size  Location     Type
  3035 ;;  exp1            1   61[BANK0 ] unsigned char 
  3036 ;;  sign1           1   60[BANK0 ] unsigned char 
  3037 ;; Return value:  Size  Location     Type
  3038 ;;                  4   52[BANK0 ] long 
  3039 ;; Registers used:
  3040 ;;		wreg, status,2, status,0
  3041 ;; Tracked objects:
  3042 ;;		On entry : 300/0
  3043 ;;		On exit  : 300/0
  3044 ;;		Unchanged: 0/0
  3045 ;; Data sizes:     COMMON   BANK0   BANK1   BANK3   BANK2
  3046 ;;      Params:         0       4       0       0       0
  3047 ;;      Locals:         0       2       0       0       0
  3048 ;;      Temps:          0       4       0       0       0
  3049 ;;      Totals:         0      10       0       0       0
  3050 ;;Total ram usage:       10 bytes
  3051 ;; Hardware stack levels used: 1
  3052 ;; This function calls:
  3053 ;;		Nothing
  3054 ;; This function is called by:
  3055 ;;		_main
  3056 ;; This function uses a non-reentrant model
  3057 ;;
  3058                           
  3059     0003                     ___fltol:	
  3060                           ;psect for function ___fltol
  3061                           
  3062                           
  3063                           ;incstack = 0
  3064                           ; Regs used in ___fltol: [wreg+status,2+status,0]
  3065     0003  1003               	clrc
  3066     0004  0D56               	rlf	___fltol@f1+2,w
  3067     0005  0D57               	rlf	___fltol@f1+3,w
  3068     0006  00DD               	movwf	___fltol@exp1
  3069     0007  085D               	movf	___fltol@exp1,w
  3070     0008  1D03               	btfss	3,2
  3071     0009  2813               	goto	l1748
  3072     000A                     l1744:
  3073     000A  3000               	movlw	0
  3074     000B  00D7               	movwf	?___fltol+3
  3075     000C  3000               	movlw	0
  3076     000D  00D6               	movwf	?___fltol+2
  3077     000E  3000               	movlw	0
  3078     000F  00D5               	movwf	?___fltol+1
  3079     0010  3000               	movlw	0
  3080     0011  00D4               	movwf	?___fltol
  3081     0012  0008               	return
  3082     0013                     l1748:
  3083     0013  0854               	movf	___fltol@f1,w
  3084     0014  00D8               	movwf	??___fltol
  3085     0015  0855               	movf	___fltol@f1+1,w
  3086     0016  00D9               	movwf	??___fltol+1
  3087     0017  0856               	movf	___fltol@f1+2,w
  3088     0018  00DA               	movwf	??___fltol+2
  3089     0019  0857               	movf	___fltol@f1+3,w
  3090     001A  00DB               	movwf	??___fltol+3
  3091     001B  301F               	movlw	31
  3092     001C                     u3015:
  3093     001C  1003               	clrc
  3094     001D  0CDB               	rrf	??___fltol+3,f
  3095     001E  0CDA               	rrf	??___fltol+2,f
  3096     001F  0CD9               	rrf	??___fltol+1,f
  3097     0020  0CD8               	rrf	??___fltol,f
  3098     0021  3EFF               	addlw	-1
  3099     0022  1D03               	skipz
  3100     0023  281C               	goto	u3015
  3101     0024  0858               	movf	??___fltol,w
  3102     0025  00DC               	movwf	___fltol@sign1
  3103     0026  17D6               	bsf	___fltol@f1+2,7
  3104     0027  30FF               	movlw	255
  3105     0028  05D4               	andwf	___fltol@f1,f
  3106     0029  30FF               	movlw	255
  3107     002A  05D5               	andwf	___fltol@f1+1,f
  3108     002B  30FF               	movlw	255
  3109     002C  05D6               	andwf	___fltol@f1+2,f
  3110     002D  3000               	movlw	0
  3111     002E  05D7               	andwf	___fltol@f1+3,f
  3112     002F  3096               	movlw	150
  3113     0030  02DD               	subwf	___fltol@exp1,f
  3114     0031  1FDD               	btfss	___fltol@exp1,7
  3115     0032  2848               	goto	l1766
  3116     0033  085D               	movf	___fltol@exp1,w
  3117     0034  3A80               	xorlw	128
  3118     0035  3E97               	addlw	151
  3119     0036  1C03               	btfss	3,0
  3120     0037  280A               	goto	l1744
  3121     0038                     l1764:
  3122     0038  3001               	movlw	1
  3123     0039                     u3045:
  3124     0039  1003               	clrc
  3125     003A  0CD7               	rrf	___fltol@f1+3,f
  3126     003B  0CD6               	rrf	___fltol@f1+2,f
  3127     003C  0CD5               	rrf	___fltol@f1+1,f
  3128     003D  0CD4               	rrf	___fltol@f1,f
  3129     003E  3EFF               	addlw	-1
  3130     003F  1D03               	skipz
  3131     0040  2839               	goto	u3045
  3132     0041  3001               	movlw	1
  3133     0042  00D8               	movwf	??___fltol
  3134     0043  0858               	movf	??___fltol,w
  3135     0044  07DD               	addwf	___fltol@exp1,f
  3136     0045  1903               	btfsc	3,2
  3137     0046  285B               	goto	l1774
  3138     0047  2838               	goto	l1764
  3139     0048                     l1766:
  3140     0048  3020               	movlw	32
  3141     0049  025D               	subwf	___fltol@exp1,w
  3142     004A  1803               	btfsc	3,0
  3143     004B  280A               	goto	l1744
  3144     004C                     l421:
  3145     004C  085D               	movf	___fltol@exp1,w
  3146     004D  1903               	btfsc	3,2
  3147     004E  285B               	goto	l1774
  3148     004F  3001               	movlw	1
  3149     0050  00D8               	movwf	??___fltol
  3150     0051                     u3075:
  3151     0051  1003               	clrc
  3152     0052  0DD4               	rlf	___fltol@f1,f
  3153     0053  0DD5               	rlf	___fltol@f1+1,f
  3154     0054  0DD6               	rlf	___fltol@f1+2,f
  3155     0055  0DD7               	rlf	___fltol@f1+3,f
  3156     0056  0BD8               	decfsz	??___fltol,f
  3157     0057  2851               	goto	u3075
  3158     0058  3001               	movlw	1
  3159     0059  02DD               	subwf	___fltol@exp1,f
  3160     005A  284C               	goto	l421
  3161     005B                     l1774:
  3162     005B  085C               	movf	___fltol@sign1,w
  3163     005C  1903               	btfsc	3,2
  3164     005D  0008               	return
  3165     005E  09D4               	comf	___fltol@f1,f
  3166     005F  09D5               	comf	___fltol@f1+1,f
  3167     0060  09D6               	comf	___fltol@f1+2,f
  3168     0061  09D7               	comf	___fltol@f1+3,f
  3169     0062  0AD4               	incf	___fltol@f1,f
  3170     0063  1903               	skipnz
  3171     0064  0AD5               	incf	___fltol@f1+1,f
  3172     0065  1903               	skipnz
  3173     0066  0AD6               	incf	___fltol@f1+2,f
  3174     0067  1903               	skipnz
  3175     0068  0AD7               	incf	___fltol@f1+3,f
  3176     0069  0008               	return
  3177     006A                     __end_of___fltol:
  3178                           
  3179                           	psect	text12
  3180     0ECC                     __ptext12:	
  3181 ;; *************** function ___flge *****************
  3182 ;; Defined at:
  3183 ;;		line 4 in file "/Applications/microchip/xc8/v2.45/pic/sources/c99/common/flge.c"
  3184 ;; Parameters:    Size  Location     Type
  3185 ;;  ff1             4    0[COMMON] long 
  3186 ;;  ff2             4    4[COMMON] long 
  3187 ;; Auto vars:     Size  Location     Type
  3188 ;;		None
  3189 ;; Return value:  Size  Location     Type
  3190 ;;		None               void
  3191 ;; Registers used:
  3192 ;;		wreg, status,2, status,0
  3193 ;; Tracked objects:
  3194 ;;		On entry : 300/0
  3195 ;;		On exit  : 300/0
  3196 ;;		Unchanged: 300/0
  3197 ;; Data sizes:     COMMON   BANK0   BANK1   BANK3   BANK2
  3198 ;;      Params:         8       0       0       0       0
  3199 ;;      Locals:         0       0       0       0       0
  3200 ;;      Temps:          4       0       0       0       0
  3201 ;;      Totals:        12       0       0       0       0
  3202 ;;Total ram usage:       12 bytes
  3203 ;; Hardware stack levels used: 1
  3204 ;; This function calls:
  3205 ;;		Nothing
  3206 ;; This function is called by:
  3207 ;;		_main
  3208 ;; This function uses a non-reentrant model
  3209 ;;
  3210                           
  3211     0ECC                     ___flge:	
  3212                           ;psect for function ___flge
  3213                           
  3214                           
  3215                           ;incstack = 0
  3216                           ; Regs used in ___flge: [wreg+status,2+status,0]
  3217     0ECC  3000               	movlw	0
  3218     0ECD  0570               	andwf	___flge@ff1,w
  3219     0ECE  00F8               	movwf	??___flge
  3220     0ECF  3000               	movlw	0
  3221     0ED0  0571               	andwf	___flge@ff1+1,w
  3222     0ED1  00F9               	movwf	??___flge+1
  3223     0ED2  3080               	movlw	128
  3224     0ED3  0572               	andwf	___flge@ff1+2,w
  3225     0ED4  00FA               	movwf	??___flge+2
  3226     0ED5  307F               	movlw	127
  3227     0ED6  0573               	andwf	___flge@ff1+3,w
  3228     0ED7  00FB               	movwf	??___flge+3
  3229     0ED8  087B               	movf	??___flge+3,w
  3230     0ED9  047A               	iorwf	??___flge+2,w
  3231     0EDA  0479               	iorwf	??___flge+1,w
  3232     0EDB  0478               	iorwf	??___flge,w
  3233     0EDC  1D03               	skipz
  3234     0EDD  2EE6               	goto	l398
  3235     0EDE  3000               	movlw	0
  3236     0EDF  00F3               	movwf	___flge@ff1+3
  3237     0EE0  3000               	movlw	0
  3238     0EE1  00F2               	movwf	___flge@ff1+2
  3239     0EE2  3000               	movlw	0
  3240     0EE3  00F1               	movwf	___flge@ff1+1
  3241     0EE4  3000               	movlw	0
  3242     0EE5  00F0               	movwf	___flge@ff1
  3243     0EE6                     l398:
  3244     0EE6  3000               	movlw	0
  3245     0EE7  0574               	andwf	___flge@ff2,w
  3246     0EE8  00F8               	movwf	??___flge
  3247     0EE9  3000               	movlw	0
  3248     0EEA  0575               	andwf	___flge@ff2+1,w
  3249     0EEB  00F9               	movwf	??___flge+1
  3250     0EEC  3080               	movlw	128
  3251     0EED  0576               	andwf	___flge@ff2+2,w
  3252     0EEE  00FA               	movwf	??___flge+2
  3253     0EEF  307F               	movlw	127
  3254     0EF0  0577               	andwf	___flge@ff2+3,w
  3255     0EF1  00FB               	movwf	??___flge+3
  3256     0EF2  087B               	movf	??___flge+3,w
  3257     0EF3  047A               	iorwf	??___flge+2,w
  3258     0EF4  0479               	iorwf	??___flge+1,w
  3259     0EF5  0478               	iorwf	??___flge,w
  3260     0EF6  1D03               	skipz
  3261     0EF7  2F00               	goto	l1728
  3262     0EF8  3000               	movlw	0
  3263     0EF9  00F7               	movwf	___flge@ff2+3
  3264     0EFA  3000               	movlw	0
  3265     0EFB  00F6               	movwf	___flge@ff2+2
  3266     0EFC  3000               	movlw	0
  3267     0EFD  00F5               	movwf	___flge@ff2+1
  3268     0EFE  3000               	movlw	0
  3269     0EFF  00F4               	movwf	___flge@ff2
  3270     0F00                     l1728:
  3271     0F00  1FF3               	btfss	___flge@ff1+3,7
  3272     0F01  2F26               	goto	l1732
  3273     0F02  3000               	movlw	0
  3274     0F03  00F8               	movwf	??___flge
  3275     0F04  3000               	movlw	0
  3276     0F05  00F9               	movwf	??___flge+1
  3277     0F06  3000               	movlw	0
  3278     0F07  00FA               	movwf	??___flge+2
  3279     0F08  3080               	movlw	128
  3280     0F09  00FB               	movwf	??___flge+3
  3281     0F0A  0870               	movf	___flge@ff1,w
  3282     0F0B  02F8               	subwf	??___flge,f
  3283     0F0C  0871               	movf	___flge@ff1+1,w
  3284     0F0D  1C03               	skipc
  3285     0F0E  0F71               	incfsz	___flge@ff1+1,w
  3286     0F0F  2F11               	goto	u2961
  3287     0F10  2F12               	goto	u2962
  3288     0F11                     u2961:
  3289     0F11  02F9               	subwf	??___flge+1,f
  3290     0F12                     u2962:
  3291     0F12  0872               	movf	___flge@ff1+2,w
  3292     0F13  1C03               	skipc
  3293     0F14  0F72               	incfsz	___flge@ff1+2,w
  3294     0F15  2F17               	goto	u2963
  3295     0F16  2F18               	goto	u2964
  3296     0F17                     u2963:
  3297     0F17  02FA               	subwf	??___flge+2,f
  3298     0F18                     u2964:
  3299     0F18  0873               	movf	___flge@ff1+3,w
  3300     0F19  1C03               	skipc
  3301     0F1A  0F73               	incfsz	___flge@ff1+3,w
  3302     0F1B  2F1D               	goto	u2965
  3303     0F1C  2F1E               	goto	u2966
  3304     0F1D                     u2965:
  3305     0F1D  02FB               	subwf	??___flge+3,f
  3306     0F1E                     u2966:
  3307     0F1E  087B               	movf	??___flge+3,w
  3308     0F1F  00F3               	movwf	___flge@ff1+3
  3309     0F20  087A               	movf	??___flge+2,w
  3310     0F21  00F2               	movwf	___flge@ff1+2
  3311     0F22  0879               	movf	??___flge+1,w
  3312     0F23  00F1               	movwf	___flge@ff1+1
  3313     0F24  0878               	movf	??___flge,w
  3314     0F25  00F0               	movwf	___flge@ff1
  3315     0F26                     l1732:
  3316     0F26  1FF7               	btfss	___flge@ff2+3,7
  3317     0F27  2F4C               	goto	l401
  3318     0F28  3000               	movlw	0
  3319     0F29  00F8               	movwf	??___flge
  3320     0F2A  3000               	movlw	0
  3321     0F2B  00F9               	movwf	??___flge+1
  3322     0F2C  3000               	movlw	0
  3323     0F2D  00FA               	movwf	??___flge+2
  3324     0F2E  3080               	movlw	128
  3325     0F2F  00FB               	movwf	??___flge+3
  3326     0F30  0874               	movf	___flge@ff2,w
  3327     0F31  02F8               	subwf	??___flge,f
  3328     0F32  0875               	movf	___flge@ff2+1,w
  3329     0F33  1C03               	skipc
  3330     0F34  0F75               	incfsz	___flge@ff2+1,w
  3331     0F35  2F37               	goto	u2981
  3332     0F36  2F38               	goto	u2982
  3333     0F37                     u2981:
  3334     0F37  02F9               	subwf	??___flge+1,f
  3335     0F38                     u2982:
  3336     0F38  0876               	movf	___flge@ff2+2,w
  3337     0F39  1C03               	skipc
  3338     0F3A  0F76               	incfsz	___flge@ff2+2,w
  3339     0F3B  2F3D               	goto	u2983
  3340     0F3C  2F3E               	goto	u2984
  3341     0F3D                     u2983:
  3342     0F3D  02FA               	subwf	??___flge+2,f
  3343     0F3E                     u2984:
  3344     0F3E  0877               	movf	___flge@ff2+3,w
  3345     0F3F  1C03               	skipc
  3346     0F40  0F77               	incfsz	___flge@ff2+3,w
  3347     0F41  2F43               	goto	u2985
  3348     0F42  2F44               	goto	u2986
  3349     0F43                     u2985:
  3350     0F43  02FB               	subwf	??___flge+3,f
  3351     0F44                     u2986:
  3352     0F44  087B               	movf	??___flge+3,w
  3353     0F45  00F7               	movwf	___flge@ff2+3
  3354     0F46  087A               	movf	??___flge+2,w
  3355     0F47  00F6               	movwf	___flge@ff2+2
  3356     0F48  0879               	movf	??___flge+1,w
  3357     0F49  00F5               	movwf	___flge@ff2+1
  3358     0F4A  0878               	movf	??___flge,w
  3359     0F4B  00F4               	movwf	___flge@ff2
  3360     0F4C                     l401:
  3361     0F4C  3080               	movlw	128
  3362     0F4D  06F3               	xorwf	___flge@ff1+3,f
  3363     0F4E  3080               	movlw	128
  3364     0F4F  06F7               	xorwf	___flge@ff2+3,f
  3365     0F50  0877               	movf	___flge@ff2+3,w
  3366     0F51  0273               	subwf	___flge@ff1+3,w
  3367     0F52  1D03               	skipz
  3368     0F53  0008               	return
  3369     0F54  0876               	movf	___flge@ff2+2,w
  3370     0F55  0272               	subwf	___flge@ff1+2,w
  3371     0F56  1D03               	skipz
  3372     0F57  0008               	return
  3373     0F58  0875               	movf	___flge@ff2+1,w
  3374     0F59  0271               	subwf	___flge@ff1+1,w
  3375     0F5A  1D03               	skipz
  3376     0F5B  0008               	return
  3377     0F5C  0874               	movf	___flge@ff2,w
  3378     0F5D  0270               	subwf	___flge@ff1,w
  3379     0F5E  0008               	return
  3380     0F5F                     __end_of___flge:
  3381                           
  3382                           	psect	text13
  3383     0D17                     __ptext13:	
  3384 ;; *************** function _Lcd_WriteString *****************
  3385 ;; Defined at:
  3386 ;;		line 103 in file "../../pic16flcd.c"
  3387 ;; Parameters:    Size  Location     Type
  3388 ;;  config          1    wreg     PTR struct .
  3389 ;;		 -> main@lcd(8), 
  3390 ;;  str             1   13[COMMON] PTR unsigned char 
  3391 ;;		 -> STR_1(19), 
  3392 ;; Auto vars:     Size  Location     Type
  3393 ;;  config          1    1[BANK0 ] PTR struct .
  3394 ;;		 -> main@lcd(8), 
  3395 ;; Return value:  Size  Location     Type
  3396 ;;                  1    wreg      void 
  3397 ;; Registers used:
  3398 ;;		wreg, fsr0l, fsr0h, status,2, status,0, pclath, cstack
  3399 ;; Tracked objects:
  3400 ;;		On entry : 0/0
  3401 ;;		On exit  : 300/0
  3402 ;;		Unchanged: 0/0
  3403 ;; Data sizes:     COMMON   BANK0   BANK1   BANK3   BANK2
  3404 ;;      Params:         1       0       0       0       0
  3405 ;;      Locals:         0       1       0       0       0
  3406 ;;      Temps:          0       1       0       0       0
  3407 ;;      Totals:         1       2       0       0       0
  3408 ;;Total ram usage:        3 bytes
  3409 ;; Hardware stack levels used: 1
  3410 ;; Hardware stack levels required when called: 3
  3411 ;; This function calls:
  3412 ;;		_Lcd_WriteChar
  3413 ;; This function is called by:
  3414 ;;		_main
  3415 ;; This function uses a non-reentrant model
  3416 ;;
  3417                           
  3418     0D17                     _Lcd_WriteString:	
  3419                           ;psect for function _Lcd_WriteString
  3420                           
  3421                           
  3422                           ;incstack = 0
  3423                           ; Regs used in _Lcd_WriteString: [wreg-fsr0h+status,2+status,0+pclath+cstack]
  3424                           ;Lcd_WriteString@config stored from wreg
  3425     0D17  1283               	bcf	3,5	;RP0=0, select bank0
  3426     0D18  1303               	bcf	3,6	;RP1=0, select bank0
  3427     0D19  00A1               	movwf	Lcd_WriteString@config
  3428     0D1A                     l1720:	
  3429                           ;../../pic16flcd.c: 104:     while(*str != '\0') {
  3430                           
  3431                           
  3432                           ;../../pic16flcd.c: 104:     while(*str != '\0') {
  3433     0D1A  087D               	movf	Lcd_WriteString@str,w
  3434     0D1B  0084               	movwf	4
  3435     0D1C  120A  158A  2000  120A  158A  	fcall	stringdir
  3436     0D21  3A00               	xorlw	0
  3437     0D22  1903               	btfsc	3,2
  3438     0D23  0008               	return
  3439                           
  3440                           ;../../pic16flcd.c: 105:         Lcd_WriteChar(config, (unsigned char)(*str));
  3441     0D24  087D               	movf	Lcd_WriteString@str,w
  3442     0D25  0084               	movwf	4
  3443     0D26  120A  158A  2000  120A  158A  	fcall	stringdir
  3444     0D2B  00F9               	movwf	Lcd_WriteChar@data
  3445     0D2C  0821               	movf	Lcd_WriteString@config,w
  3446     0D2D  120A  118A  225F  120A  158A  	fcall	_Lcd_WriteChar
  3447                           
  3448                           ;../../pic16flcd.c: 106:         str++;
  3449     0D32  3001               	movlw	1
  3450     0D33  1283               	bcf	3,5	;RP0=0, select bank0
  3451     0D34  1303               	bcf	3,6	;RP1=0, select bank0
  3452     0D35  00A0               	movwf	??_Lcd_WriteString
  3453     0D36  0820               	movf	??_Lcd_WriteString,w
  3454     0D37  07FD               	addwf	Lcd_WriteString@str,f
  3455     0D38  2D1A               	goto	l1720
  3456     0D39                     __end_of_Lcd_WriteString:
  3457                           
  3458                           	psect	text14
  3459     025F                     __ptext14:	
  3460 ;; *************** function _Lcd_WriteChar *****************
  3461 ;; Defined at:
  3462 ;;		line 78 in file "../../pic16flcd.c"
  3463 ;; Parameters:    Size  Location     Type
  3464 ;;  config          1    wreg     PTR struct .
  3465 ;;		 -> main@lcd(8), 
  3466 ;;  data            1    9[COMMON] unsigned char 
  3467 ;; Auto vars:     Size  Location     Type
  3468 ;;  config          1   12[COMMON] PTR struct .
  3469 ;;		 -> main@lcd(8), 
  3470 ;; Return value:  Size  Location     Type
  3471 ;;                  1    wreg      void 
  3472 ;; Registers used:
  3473 ;;		wreg, fsr0l, fsr0h, status,2, status,0, pclath, cstack
  3474 ;; Tracked objects:
  3475 ;;		On entry : 300/0
  3476 ;;		On exit  : 0/0
  3477 ;;		Unchanged: 0/0
  3478 ;; Data sizes:     COMMON   BANK0   BANK1   BANK3   BANK2
  3479 ;;      Params:         1       0       0       0       0
  3480 ;;      Locals:         1       0       0       0       0
  3481 ;;      Temps:          2       0       0       0       0
  3482 ;;      Totals:         4       0       0       0       0
  3483 ;;Total ram usage:        4 bytes
  3484 ;; Hardware stack levels used: 1
  3485 ;; Hardware stack levels required when called: 2
  3486 ;; This function calls:
  3487 ;;		_PulseEnable
  3488 ;;		_SetBit
  3489 ;; This function is called by:
  3490 ;;		_Lcd_WriteString
  3491 ;; This function uses a non-reentrant model
  3492 ;;
  3493                           
  3494     025F                     _Lcd_WriteChar:	
  3495                           ;psect for function _Lcd_WriteChar
  3496                           
  3497                           
  3498                           ;incstack = 0
  3499                           ; Regs used in _Lcd_WriteChar: [wreg-fsr0h+status,2+status,0+pclath+cstack]
  3500                           ;Lcd_WriteChar@config stored from wreg
  3501     025F  00FC               	movwf	Lcd_WriteChar@config
  3502                           
  3503                           ;../../pic16flcd.c: 80:     SetBit(config->port, config->d4_pin, (data >> 4) & 0x01);
  3504     0260  087C               	movf	Lcd_WriteChar@config,w
  3505     0261  0084               	movwf	4
  3506     0262  1383               	bcf	3,7	;select IRP bank0
  3507     0263  0800               	movf	0,w
  3508     0264  00F0               	movwf	SetBit@port
  3509     0265  0A84               	incf	4,f
  3510     0266  0800               	movf	0,w
  3511     0267  0384               	decf	4,f
  3512     0268  00F1               	movwf	SetBit@port+1
  3513     0269  087C               	movf	Lcd_WriteChar@config,w
  3514     026A  3E04               	addlw	4
  3515     026B  0084               	movwf	4
  3516     026C  0800               	movf	0,w
  3517     026D  00F2               	movwf	SetBit@pin
  3518     026E  0879               	movf	Lcd_WriteChar@data,w
  3519     026F  00FB               	movwf	??_Lcd_WriteChar+1
  3520     0270  3004               	movlw	4
  3521     0271                     u1875:
  3522     0271  1003               	clrc
  3523     0272  0CFB               	rrf	??_Lcd_WriteChar+1,f
  3524     0273  3EFF               	addlw	-1
  3525     0274  1D03               	skipz
  3526     0275  2A71               	goto	u1875
  3527     0276  1C7B               	btfss	??_Lcd_WriteChar+1,0
  3528     0277  2A7A               	goto	u1880
  3529     0278  3001               	movlw	1
  3530     0279  2A7B               	goto	u1890
  3531     027A                     u1880:
  3532     027A  3000               	movlw	0
  3533     027B                     u1890:
  3534     027B  00F3               	movwf	SetBit@value
  3535     027C  120A  158A  25A2  120A  118A  	fcall	_SetBit
  3536                           
  3537                           ;../../pic16flcd.c: 81:     SetBit(config->port, config->d5_pin, (data >> 5) & 0x01);
  3538     0281  087C               	movf	Lcd_WriteChar@config,w
  3539     0282  0084               	movwf	4
  3540     0283  1383               	bcf	3,7	;select IRP bank0
  3541     0284  0800               	movf	0,w
  3542     0285  00F0               	movwf	SetBit@port
  3543     0286  0A84               	incf	4,f
  3544     0287  0800               	movf	0,w
  3545     0288  0384               	decf	4,f
  3546     0289  00F1               	movwf	SetBit@port+1
  3547     028A  087C               	movf	Lcd_WriteChar@config,w
  3548     028B  3E05               	addlw	5
  3549     028C  0084               	movwf	4
  3550     028D  0800               	movf	0,w
  3551     028E  00F2               	movwf	SetBit@pin
  3552     028F  0879               	movf	Lcd_WriteChar@data,w
  3553     0290  00FB               	movwf	??_Lcd_WriteChar+1
  3554     0291  3005               	movlw	5
  3555     0292                     u1905:
  3556     0292  1003               	clrc
  3557     0293  0CFB               	rrf	??_Lcd_WriteChar+1,f
  3558     0294  3EFF               	addlw	-1
  3559     0295  1D03               	skipz
  3560     0296  2A92               	goto	u1905
  3561     0297  1C7B               	btfss	??_Lcd_WriteChar+1,0
  3562     0298  2A9B               	goto	u1910
  3563     0299  3001               	movlw	1
  3564     029A  2A9C               	goto	u1920
  3565     029B                     u1910:
  3566     029B  3000               	movlw	0
  3567     029C                     u1920:
  3568     029C  00F3               	movwf	SetBit@value
  3569     029D  120A  158A  25A2  120A  118A  	fcall	_SetBit
  3570                           
  3571                           ;../../pic16flcd.c: 82:     SetBit(config->port, config->d6_pin, (data >> 6) & 0x01);
  3572     02A2  087C               	movf	Lcd_WriteChar@config,w
  3573     02A3  0084               	movwf	4
  3574     02A4  1383               	bcf	3,7	;select IRP bank0
  3575     02A5  0800               	movf	0,w
  3576     02A6  00F0               	movwf	SetBit@port
  3577     02A7  0A84               	incf	4,f
  3578     02A8  0800               	movf	0,w
  3579     02A9  0384               	decf	4,f
  3580     02AA  00F1               	movwf	SetBit@port+1
  3581     02AB  087C               	movf	Lcd_WriteChar@config,w
  3582     02AC  3E06               	addlw	6
  3583     02AD  0084               	movwf	4
  3584     02AE  0800               	movf	0,w
  3585     02AF  00F2               	movwf	SetBit@pin
  3586     02B0  0879               	movf	Lcd_WriteChar@data,w
  3587     02B1  00FB               	movwf	??_Lcd_WriteChar+1
  3588     02B2  3006               	movlw	6
  3589     02B3                     u1935:
  3590     02B3  1003               	clrc
  3591     02B4  0CFB               	rrf	??_Lcd_WriteChar+1,f
  3592     02B5  3EFF               	addlw	-1
  3593     02B6  1D03               	skipz
  3594     02B7  2AB3               	goto	u1935
  3595     02B8  1C7B               	btfss	??_Lcd_WriteChar+1,0
  3596     02B9  2ABC               	goto	u1940
  3597     02BA  3001               	movlw	1
  3598     02BB  2ABD               	goto	u1950
  3599     02BC                     u1940:
  3600     02BC  3000               	movlw	0
  3601     02BD                     u1950:
  3602     02BD  00F3               	movwf	SetBit@value
  3603     02BE  120A  158A  25A2  120A  118A  	fcall	_SetBit
  3604                           
  3605                           ;../../pic16flcd.c: 83:     SetBit(config->port, config->d7_pin, (data >> 7) & 0x01);
  3606     02C3  087C               	movf	Lcd_WriteChar@config,w
  3607     02C4  0084               	movwf	4
  3608     02C5  1383               	bcf	3,7	;select IRP bank0
  3609     02C6  0800               	movf	0,w
  3610     02C7  00F0               	movwf	SetBit@port
  3611     02C8  0A84               	incf	4,f
  3612     02C9  0800               	movf	0,w
  3613     02CA  0384               	decf	4,f
  3614     02CB  00F1               	movwf	SetBit@port+1
  3615     02CC  087C               	movf	Lcd_WriteChar@config,w
  3616     02CD  3E07               	addlw	7
  3617     02CE  0084               	movwf	4
  3618     02CF  0800               	movf	0,w
  3619     02D0  00F2               	movwf	SetBit@pin
  3620     02D1  0879               	movf	Lcd_WriteChar@data,w
  3621     02D2  00FB               	movwf	??_Lcd_WriteChar+1
  3622     02D3  3007               	movlw	7
  3623     02D4                     u1965:
  3624     02D4  1003               	clrc
  3625     02D5  0CFB               	rrf	??_Lcd_WriteChar+1,f
  3626     02D6  3EFF               	addlw	-1
  3627     02D7  1D03               	skipz
  3628     02D8  2AD4               	goto	u1965
  3629     02D9  1C7B               	btfss	??_Lcd_WriteChar+1,0
  3630     02DA  2ADD               	goto	u1970
  3631     02DB  3001               	movlw	1
  3632     02DC  2ADE               	goto	u1980
  3633     02DD                     u1970:
  3634     02DD  3000               	movlw	0
  3635     02DE                     u1980:
  3636     02DE  00F3               	movwf	SetBit@value
  3637     02DF  120A  158A  25A2  120A  118A  	fcall	_SetBit
  3638                           
  3639                           ;../../pic16flcd.c: 85:     SetBit(config->port, config->rs_pin, 1);
  3640     02E4  087C               	movf	Lcd_WriteChar@config,w
  3641     02E5  0084               	movwf	4
  3642     02E6  1383               	bcf	3,7	;select IRP bank0
  3643     02E7  0800               	movf	0,w
  3644     02E8  00F0               	movwf	SetBit@port
  3645     02E9  0A84               	incf	4,f
  3646     02EA  0800               	movf	0,w
  3647     02EB  0384               	decf	4,f
  3648     02EC  00F1               	movwf	SetBit@port+1
  3649     02ED  087C               	movf	Lcd_WriteChar@config,w
  3650     02EE  3E02               	addlw	2
  3651     02EF  0084               	movwf	4
  3652     02F0  0800               	movf	0,w
  3653     02F1  00F2               	movwf	SetBit@pin
  3654     02F2  01F3               	clrf	SetBit@value
  3655     02F3  0AF3               	incf	SetBit@value,f
  3656     02F4  120A  158A  25A2  120A  118A  	fcall	_SetBit
  3657                           
  3658                           ;../../pic16flcd.c: 86:     PulseEnable(config);
  3659     02F9  087C               	movf	Lcd_WriteChar@config,w
  3660     02FA  120A  158A  25CC  120A  118A  	fcall	_PulseEnable
  3661                           
  3662                           ;../../pic16flcd.c: 89:     SetBit(config->port, config->d4_pin, data & 0x01);
  3663     02FF  087C               	movf	Lcd_WriteChar@config,w
  3664     0300  0084               	movwf	4
  3665     0301  1383               	bcf	3,7	;select IRP bank0
  3666     0302  0800               	movf	0,w
  3667     0303  00F0               	movwf	SetBit@port
  3668     0304  0A84               	incf	4,f
  3669     0305  0800               	movf	0,w
  3670     0306  0384               	decf	4,f
  3671     0307  00F1               	movwf	SetBit@port+1
  3672     0308  087C               	movf	Lcd_WriteChar@config,w
  3673     0309  3E04               	addlw	4
  3674     030A  0084               	movwf	4
  3675     030B  0800               	movf	0,w
  3676     030C  00F2               	movwf	SetBit@pin
  3677     030D  1C79               	btfss	Lcd_WriteChar@data,0
  3678     030E  2B11               	goto	u1990
  3679     030F  3001               	movlw	1
  3680     0310  2B12               	goto	u2000
  3681     0311                     u1990:
  3682     0311  3000               	movlw	0
  3683     0312                     u2000:
  3684     0312  00F3               	movwf	SetBit@value
  3685     0313  120A  158A  25A2  120A  118A  	fcall	_SetBit
  3686                           
  3687                           ;../../pic16flcd.c: 90:     SetBit(config->port, config->d5_pin, (data >> 1) & 0x01);
  3688     0318  087C               	movf	Lcd_WriteChar@config,w
  3689     0319  0084               	movwf	4
  3690     031A  1383               	bcf	3,7	;select IRP bank0
  3691     031B  0800               	movf	0,w
  3692     031C  00F0               	movwf	SetBit@port
  3693     031D  0A84               	incf	4,f
  3694     031E  0800               	movf	0,w
  3695     031F  0384               	decf	4,f
  3696     0320  00F1               	movwf	SetBit@port+1
  3697     0321  087C               	movf	Lcd_WriteChar@config,w
  3698     0322  3E05               	addlw	5
  3699     0323  0084               	movwf	4
  3700     0324  0800               	movf	0,w
  3701     0325  00F2               	movwf	SetBit@pin
  3702     0326  0879               	movf	Lcd_WriteChar@data,w
  3703     0327  00FB               	movwf	??_Lcd_WriteChar+1
  3704     0328  3001               	movlw	1
  3705     0329                     u2015:
  3706     0329  1003               	clrc
  3707     032A  0CFB               	rrf	??_Lcd_WriteChar+1,f
  3708     032B  3EFF               	addlw	-1
  3709     032C  1D03               	skipz
  3710     032D  2B29               	goto	u2015
  3711     032E  1C7B               	btfss	??_Lcd_WriteChar+1,0
  3712     032F  2B32               	goto	u2020
  3713     0330  3001               	movlw	1
  3714     0331  2B33               	goto	u2030
  3715     0332                     u2020:
  3716     0332  3000               	movlw	0
  3717     0333                     u2030:
  3718     0333  00F3               	movwf	SetBit@value
  3719     0334  120A  158A  25A2  120A  118A  	fcall	_SetBit
  3720                           
  3721                           ;../../pic16flcd.c: 91:     SetBit(config->port, config->d6_pin, (data >> 2) & 0x01);
  3722     0339  087C               	movf	Lcd_WriteChar@config,w
  3723     033A  0084               	movwf	4
  3724     033B  1383               	bcf	3,7	;select IRP bank0
  3725     033C  0800               	movf	0,w
  3726     033D  00F0               	movwf	SetBit@port
  3727     033E  0A84               	incf	4,f
  3728     033F  0800               	movf	0,w
  3729     0340  0384               	decf	4,f
  3730     0341  00F1               	movwf	SetBit@port+1
  3731     0342  087C               	movf	Lcd_WriteChar@config,w
  3732     0343  3E06               	addlw	6
  3733     0344  0084               	movwf	4
  3734     0345  0800               	movf	0,w
  3735     0346  00F2               	movwf	SetBit@pin
  3736     0347  0879               	movf	Lcd_WriteChar@data,w
  3737     0348  00FB               	movwf	??_Lcd_WriteChar+1
  3738     0349  3002               	movlw	2
  3739     034A                     u2045:
  3740     034A  1003               	clrc
  3741     034B  0CFB               	rrf	??_Lcd_WriteChar+1,f
  3742     034C  3EFF               	addlw	-1
  3743     034D  1D03               	skipz
  3744     034E  2B4A               	goto	u2045
  3745     034F  1C7B               	btfss	??_Lcd_WriteChar+1,0
  3746     0350  2B53               	goto	u2050
  3747     0351  3001               	movlw	1
  3748     0352  2B54               	goto	u2060
  3749     0353                     u2050:
  3750     0353  3000               	movlw	0
  3751     0354                     u2060:
  3752     0354  00F3               	movwf	SetBit@value
  3753     0355  120A  158A  25A2  120A  118A  	fcall	_SetBit
  3754                           
  3755                           ;../../pic16flcd.c: 92:     SetBit(config->port, config->d7_pin, (data >> 3) & 0x01);
  3756     035A  087C               	movf	Lcd_WriteChar@config,w
  3757     035B  0084               	movwf	4
  3758     035C  1383               	bcf	3,7	;select IRP bank0
  3759     035D  0800               	movf	0,w
  3760     035E  00F0               	movwf	SetBit@port
  3761     035F  0A84               	incf	4,f
  3762     0360  0800               	movf	0,w
  3763     0361  0384               	decf	4,f
  3764     0362  00F1               	movwf	SetBit@port+1
  3765     0363  087C               	movf	Lcd_WriteChar@config,w
  3766     0364  3E07               	addlw	7
  3767     0365  0084               	movwf	4
  3768     0366  0800               	movf	0,w
  3769     0367  00F2               	movwf	SetBit@pin
  3770     0368  0879               	movf	Lcd_WriteChar@data,w
  3771     0369  00FB               	movwf	??_Lcd_WriteChar+1
  3772     036A  3003               	movlw	3
  3773     036B                     u2075:
  3774     036B  1003               	clrc
  3775     036C  0CFB               	rrf	??_Lcd_WriteChar+1,f
  3776     036D  3EFF               	addlw	-1
  3777     036E  1D03               	skipz
  3778     036F  2B6B               	goto	u2075
  3779     0370  1C7B               	btfss	??_Lcd_WriteChar+1,0
  3780     0371  2B74               	goto	u2080
  3781     0372  3001               	movlw	1
  3782     0373  2B75               	goto	u2090
  3783     0374                     u2080:
  3784     0374  3000               	movlw	0
  3785     0375                     u2090:
  3786     0375  00F3               	movwf	SetBit@value
  3787     0376  120A  158A  25A2  120A  118A  	fcall	_SetBit
  3788                           
  3789                           ;../../pic16flcd.c: 94:     PulseEnable(config);
  3790     037B  087C               	movf	Lcd_WriteChar@config,w
  3791     037C  120A  158A  25CC   	fcall	_PulseEnable
  3792     037F  0008               	return
  3793     0380                     __end_of_Lcd_WriteChar:
  3794                           
  3795                           	psect	text15
  3796     0D39                     __ptext15:	
  3797 ;; *************** function _Lcd_SetCursor *****************
  3798 ;; Defined at:
  3799 ;;		line 149 in file "../../pic16flcd.c"
  3800 ;; Parameters:    Size  Location     Type
  3801 ;;  config          1    wreg     PTR struct .
  3802 ;;		 -> main@lcd(8), 
  3803 ;;  row             1    0[BANK0 ] unsigned char 
  3804 ;;  column          1    1[BANK0 ] unsigned char 
  3805 ;; Auto vars:     Size  Location     Type
  3806 ;;  config          1    4[BANK0 ] PTR struct .
  3807 ;;		 -> main@lcd(8), 
  3808 ;;  address         1    5[BANK0 ] unsigned char 
  3809 ;; Return value:  Size  Location     Type
  3810 ;;                  1    wreg      void 
  3811 ;; Registers used:
  3812 ;;		wreg, fsr0l, fsr0h, status,2, status,0, pclath, cstack
  3813 ;; Tracked objects:
  3814 ;;		On entry : 300/0
  3815 ;;		On exit  : 0/0
  3816 ;;		Unchanged: 0/0
  3817 ;; Data sizes:     COMMON   BANK0   BANK1   BANK3   BANK2
  3818 ;;      Params:         0       2       0       0       0
  3819 ;;      Locals:         0       2       0       0       0
  3820 ;;      Temps:          0       2       0       0       0
  3821 ;;      Totals:         0       6       0       0       0
  3822 ;;Total ram usage:        6 bytes
  3823 ;; Hardware stack levels used: 1
  3824 ;; Hardware stack levels required when called: 3
  3825 ;; This function calls:
  3826 ;;		_Lcd_Command
  3827 ;; This function is called by:
  3828 ;;		_main
  3829 ;; This function uses a non-reentrant model
  3830 ;;
  3831                           
  3832     0D39                     _Lcd_SetCursor:	
  3833                           ;psect for function _Lcd_SetCursor
  3834                           
  3835                           
  3836                           ;incstack = 0
  3837                           ; Regs used in _Lcd_SetCursor: [wreg-fsr0h+status,2+status,0+pclath+cstack]
  3838                           ;Lcd_SetCursor@config stored from wreg
  3839     0D39  00A4               	movwf	Lcd_SetCursor@config
  3840                           
  3841                           ;../../pic16flcd.c: 150:     unsigned char address;;../../pic16flcd.c: 153:     switch(r
      +                          ow) {
  3842     0D3A  2D40               	goto	l1702
  3843     0D3B                     l1696:
  3844                           
  3845                           ;../../pic16flcd.c: 155:             address = 0x80;
  3846     0D3B  3080               	movlw	128
  3847     0D3C  2D3E               	goto	L4
  3848     0D3D                     l1698:	
  3849                           ;../../pic16flcd.c: 156:             break;
  3850                           
  3851                           
  3852                           ;../../pic16flcd.c: 158:             address = 0xC0;
  3853     0D3D  30C0               	movlw	192
  3854     0D3E                     L4:
  3855     0D3E  00A5               	movwf	Lcd_SetCursor@address
  3856                           
  3857                           ;../../pic16flcd.c: 159:             break;
  3858     0D3F  2D50               	goto	l1704
  3859     0D40                     l1702:
  3860     0D40  0820               	movf	Lcd_SetCursor@row,w
  3861     0D41  00A2               	movwf	??_Lcd_SetCursor
  3862     0D42  01A3               	clrf	??_Lcd_SetCursor+1
  3863                           
  3864                           ; Switch on 2 bytes has been partitioned into a top level switch of size 1, and 1 sub-sw
      +                          itches
  3865                           ; Switch size 1, requested type "simple"
  3866                           ; Number of cases is 1, Range of values is 0 to 0
  3867                           ; switch strategies available:
  3868                           ; Name         Instructions Cycles
  3869                           ; simple_byte            4     3 (average)
  3870                           ; direct_byte           11     8 (fixed)
  3871                           ; jumptable            260     6 (fixed)
  3872                           ;	Chosen strategy is simple_byte
  3873     0D43  0823               	movf	??_Lcd_SetCursor+1,w
  3874     0D44  3A00               	xorlw	0	; case 0
  3875     0D45  1903               	skipnz
  3876     0D46  2D48               	goto	l1828
  3877     0D47  2D3B               	goto	l1696
  3878     0D48                     l1828:
  3879                           
  3880                           ; Switch size 1, requested type "simple"
  3881                           ; Number of cases is 2, Range of values is 1 to 2
  3882                           ; switch strategies available:
  3883                           ; Name         Instructions Cycles
  3884                           ; simple_byte            7     4 (average)
  3885                           ; direct_byte           17    11 (fixed)
  3886                           ; jumptable            263     9 (fixed)
  3887                           ;	Chosen strategy is simple_byte
  3888     0D48  0822               	movf	??_Lcd_SetCursor,w
  3889     0D49  3A01               	xorlw	1	; case 1
  3890     0D4A  1903               	skipnz
  3891     0D4B  2D3B               	goto	l1696
  3892     0D4C  3A03               	xorlw	3	; case 2
  3893     0D4D  1903               	skipnz
  3894     0D4E  2D3D               	goto	l1698
  3895     0D4F  2D3B               	goto	l1696
  3896     0D50                     l1704:
  3897                           
  3898                           ;../../pic16flcd.c: 165:     address += (column - 1);
  3899     0D50  0821               	movf	Lcd_SetCursor@column,w
  3900     0D51  3EFF               	addlw	255
  3901     0D52  00A2               	movwf	??_Lcd_SetCursor
  3902     0D53  0822               	movf	??_Lcd_SetCursor,w
  3903     0D54  07A5               	addwf	Lcd_SetCursor@address,f
  3904                           
  3905                           ;../../pic16flcd.c: 168:     Lcd_Command(config, address);
  3906     0D55  0825               	movf	Lcd_SetCursor@address,w
  3907     0D56  00F9               	movwf	Lcd_Command@cmd
  3908     0D57  0824               	movf	Lcd_SetCursor@config,w
  3909     0D58  120A  118A  213F   	fcall	_Lcd_Command
  3910     0D5B  0008               	return
  3911     0D5C                     __end_of_Lcd_SetCursor:
  3912                           
  3913                           	psect	text16
  3914     0E62                     __ptext16:	
  3915 ;; *************** function _Lcd_Init *****************
  3916 ;; Defined at:
  3917 ;;		line 111 in file "../../pic16flcd.c"
  3918 ;; Parameters:    Size  Location     Type
  3919 ;;  config          1    wreg     PTR struct .
  3920 ;;		 -> main@lcd(8), 
  3921 ;; Auto vars:     Size  Location     Type
  3922 ;;  config          1    4[BANK0 ] PTR struct .
  3923 ;;		 -> main@lcd(8), 
  3924 ;; Return value:  Size  Location     Type
  3925 ;;                  1    wreg      void 
  3926 ;; Registers used:
  3927 ;;		wreg, fsr0l, fsr0h, status,2, status,0, pclath, cstack
  3928 ;; Tracked objects:
  3929 ;;		On entry : B00/0
  3930 ;;		On exit  : 0/0
  3931 ;;		Unchanged: 0/0
  3932 ;; Data sizes:     COMMON   BANK0   BANK1   BANK3   BANK2
  3933 ;;      Params:         0       0       0       0       0
  3934 ;;      Locals:         0       1       0       0       0
  3935 ;;      Temps:          0       2       0       0       0
  3936 ;;      Totals:         0       3       0       0       0
  3937 ;;Total ram usage:        3 bytes
  3938 ;; Hardware stack levels used: 1
  3939 ;; Hardware stack levels required when called: 4
  3940 ;; This function calls:
  3941 ;;		_Lcd_Clear
  3942 ;;		_Lcd_Command
  3943 ;; This function is called by:
  3944 ;;		_main
  3945 ;; This function uses a non-reentrant model
  3946 ;;
  3947                           
  3948     0E62                     _Lcd_Init:	
  3949                           ;psect for function _Lcd_Init
  3950                           
  3951                           
  3952                           ;incstack = 0
  3953                           ; Regs used in _Lcd_Init: [wreg-fsr0h+status,2+status,0+pclath+cstack]
  3954                           ;Lcd_Init@config stored from wreg
  3955     0E62  00A4               	movwf	Lcd_Init@config
  3956                           
  3957                           ;../../pic16flcd.c: 117:     _delay((unsigned long)((15)*(4000000/4000.0)));
  3958     0E63  3014               	movlw	20
  3959     0E64  1283               	bcf	3,5	;RP0=0, select bank0
  3960     0E65  1303               	bcf	3,6	;RP1=0, select bank0
  3961     0E66  00A3               	movwf	??_Lcd_Init+1
  3962     0E67  3079               	movlw	121
  3963     0E68  00A2               	movwf	??_Lcd_Init
  3964     0E69                     u3147:
  3965     0E69  0BA2               	decfsz	??_Lcd_Init,f
  3966     0E6A  2E69               	goto	u3147
  3967     0E6B  0BA3               	decfsz	??_Lcd_Init+1,f
  3968     0E6C  2E69               	goto	u3147
  3969                           
  3970                           ;../../pic16flcd.c: 118:     Lcd_Command(config, 0x03);
  3971     0E6D  3003               	movlw	3
  3972     0E6E  00F9               	movwf	Lcd_Command@cmd
  3973     0E6F  1283               	bcf	3,5	;RP0=0, select bank0
  3974     0E70  1303               	bcf	3,6	;RP1=0, select bank0
  3975     0E71  0824               	movf	Lcd_Init@config,w
  3976     0E72  120A  118A  213F  120A  158A  	fcall	_Lcd_Command
  3977                           
  3978                           ;../../pic16flcd.c: 119:     _delay((unsigned long)((5)*(4000000/4000.0)));
  3979     0E77  3007               	movlw	7
  3980     0E78  1283               	bcf	3,5	;RP0=0, select bank0
  3981     0E79  1303               	bcf	3,6	;RP1=0, select bank0
  3982     0E7A  00A3               	movwf	??_Lcd_Init+1
  3983     0E7B  307C               	movlw	124
  3984     0E7C  00A2               	movwf	??_Lcd_Init
  3985     0E7D                     u3157:
  3986     0E7D  0BA2               	decfsz	??_Lcd_Init,f
  3987     0E7E  2E7D               	goto	u3157
  3988     0E7F  0BA3               	decfsz	??_Lcd_Init+1,f
  3989     0E80  2E7D               	goto	u3157
  3990     0E81  0000               	nop
  3991                           
  3992                           ;../../pic16flcd.c: 120:     Lcd_Command(config, 0x03);
  3993     0E82  3003               	movlw	3
  3994     0E83  00F9               	movwf	Lcd_Command@cmd
  3995     0E84  1283               	bcf	3,5	;RP0=0, select bank0
  3996     0E85  1303               	bcf	3,6	;RP1=0, select bank0
  3997     0E86  0824               	movf	Lcd_Init@config,w
  3998     0E87  120A  118A  213F  120A  158A  	fcall	_Lcd_Command
  3999                           
  4000                           ;../../pic16flcd.c: 121:     _delay((unsigned long)((100)*(4000000/4000000.0)));
  4001     0E8C  3020               	movlw	32
  4002     0E8D  1283               	bcf	3,5	;RP0=0, select bank0
  4003     0E8E  1303               	bcf	3,6	;RP1=0, select bank0
  4004     0E8F  00A2               	movwf	??_Lcd_Init
  4005     0E90                     u3167:
  4006     0E90  0BA2               	decfsz	??_Lcd_Init,f
  4007     0E91  2E90               	goto	u3167
  4008     0E92  0000               	nop
  4009                           
  4010                           ;../../pic16flcd.c: 122:     Lcd_Command(config, 0x03);
  4011     0E93  3003               	movlw	3
  4012     0E94  00F9               	movwf	Lcd_Command@cmd
  4013     0E95  1283               	bcf	3,5	;RP0=0, select bank0
  4014     0E96  1303               	bcf	3,6	;RP1=0, select bank0
  4015     0E97  0824               	movf	Lcd_Init@config,w
  4016     0E98  120A  118A  213F  120A  158A  	fcall	_Lcd_Command
  4017                           
  4018                           ;../../pic16flcd.c: 123:     Lcd_Command(config, 0x02);
  4019     0E9D  3002               	movlw	2
  4020     0E9E  00F9               	movwf	Lcd_Command@cmd
  4021     0E9F  1283               	bcf	3,5	;RP0=0, select bank0
  4022     0EA0  1303               	bcf	3,6	;RP1=0, select bank0
  4023     0EA1  0824               	movf	Lcd_Init@config,w
  4024     0EA2  120A  118A  213F  120A  158A  	fcall	_Lcd_Command
  4025                           
  4026                           ;../../pic16flcd.c: 125:     Lcd_Command(config, 0x28);
  4027     0EA7  3028               	movlw	40
  4028     0EA8  00F9               	movwf	Lcd_Command@cmd
  4029     0EA9  1283               	bcf	3,5	;RP0=0, select bank0
  4030     0EAA  1303               	bcf	3,6	;RP1=0, select bank0
  4031     0EAB  0824               	movf	Lcd_Init@config,w
  4032     0EAC  120A  118A  213F  120A  158A  	fcall	_Lcd_Command
  4033                           
  4034                           ;../../pic16flcd.c: 126:     Lcd_Command(config, 0x0C);
  4035     0EB1  300C               	movlw	12
  4036     0EB2  00F9               	movwf	Lcd_Command@cmd
  4037     0EB3  1283               	bcf	3,5	;RP0=0, select bank0
  4038     0EB4  1303               	bcf	3,6	;RP1=0, select bank0
  4039     0EB5  0824               	movf	Lcd_Init@config,w
  4040     0EB6  120A  118A  213F  120A  158A  	fcall	_Lcd_Command
  4041                           
  4042                           ;../../pic16flcd.c: 127:     Lcd_Command(config, 0x06);
  4043     0EBB  3006               	movlw	6
  4044     0EBC  00F9               	movwf	Lcd_Command@cmd
  4045     0EBD  1283               	bcf	3,5	;RP0=0, select bank0
  4046     0EBE  1303               	bcf	3,6	;RP1=0, select bank0
  4047     0EBF  0824               	movf	Lcd_Init@config,w
  4048     0EC0  120A  118A  213F  120A  158A  	fcall	_Lcd_Command
  4049                           
  4050                           ;../../pic16flcd.c: 128:     Lcd_Clear(config);
  4051     0EC5  1283               	bcf	3,5	;RP0=0, select bank0
  4052     0EC6  1303               	bcf	3,6	;RP1=0, select bank0
  4053     0EC7  0824               	movf	Lcd_Init@config,w
  4054     0EC8  120A  158A  2503   	fcall	_Lcd_Clear
  4055     0ECB  0008               	return
  4056     0ECC                     __end_of_Lcd_Init:
  4057                           
  4058                           	psect	text17
  4059     0D03                     __ptext17:	
  4060 ;; *************** function _Lcd_Clear *****************
  4061 ;; Defined at:
  4062 ;;		line 136 in file "../../pic16flcd.c"
  4063 ;; Parameters:    Size  Location     Type
  4064 ;;  config          1    wreg     PTR struct .
  4065 ;;		 -> main@lcd(8), 
  4066 ;; Auto vars:     Size  Location     Type
  4067 ;;  config          1   13[COMMON] PTR struct .
  4068 ;;		 -> main@lcd(8), 
  4069 ;; Return value:  Size  Location     Type
  4070 ;;                  1    wreg      void 
  4071 ;; Registers used:
  4072 ;;		wreg, fsr0l, fsr0h, status,2, status,0, pclath, cstack
  4073 ;; Tracked objects:
  4074 ;;		On entry : 0/0
  4075 ;;		On exit  : 0/0
  4076 ;;		Unchanged: 0/0
  4077 ;; Data sizes:     COMMON   BANK0   BANK1   BANK3   BANK2
  4078 ;;      Params:         0       0       0       0       0
  4079 ;;      Locals:         1       0       0       0       0
  4080 ;;      Temps:          0       2       0       0       0
  4081 ;;      Totals:         1       2       0       0       0
  4082 ;;Total ram usage:        3 bytes
  4083 ;; Hardware stack levels used: 1
  4084 ;; Hardware stack levels required when called: 3
  4085 ;; This function calls:
  4086 ;;		_Lcd_Command
  4087 ;; This function is called by:
  4088 ;;		_main
  4089 ;;		_Lcd_Init
  4090 ;; This function uses a non-reentrant model
  4091 ;;
  4092                           
  4093     0D03                     _Lcd_Clear:	
  4094                           ;psect for function _Lcd_Clear
  4095                           
  4096                           
  4097                           ;incstack = 0
  4098                           ; Regs used in _Lcd_Clear: [wreg-fsr0h+status,2+status,0+pclath+cstack]
  4099                           ;Lcd_Clear@config stored from wreg
  4100     0D03  00FD               	movwf	Lcd_Clear@config
  4101                           
  4102                           ;../../pic16flcd.c: 137:     Lcd_Command(config, 0x01);
  4103     0D04  01F9               	clrf	Lcd_Command@cmd
  4104     0D05  0AF9               	incf	Lcd_Command@cmd,f
  4105     0D06  087D               	movf	Lcd_Clear@config,w
  4106     0D07  120A  118A  213F  120A  158A  	fcall	_Lcd_Command
  4107                           
  4108                           ;../../pic16flcd.c: 138:     _delay((unsigned long)((2)*(4000000/4000.0)));
  4109     0D0C  3003               	movlw	3
  4110     0D0D  1283               	bcf	3,5	;RP0=0, select bank0
  4111     0D0E  1303               	bcf	3,6	;RP1=0, select bank0
  4112     0D0F  00A1               	movwf	??_Lcd_Clear+1
  4113     0D10  3097               	movlw	151
  4114     0D11  00A0               	movwf	??_Lcd_Clear
  4115     0D12                     u3177:
  4116     0D12  0BA0               	decfsz	??_Lcd_Clear,f
  4117     0D13  2D12               	goto	u3177
  4118     0D14  0BA1               	decfsz	??_Lcd_Clear+1,f
  4119     0D15  2D12               	goto	u3177
  4120     0D16  0008               	return
  4121     0D17                     __end_of_Lcd_Clear:
  4122                           
  4123                           	psect	text18
  4124     013F                     __ptext18:	
  4125 ;; *************** function _Lcd_Command *****************
  4126 ;; Defined at:
  4127 ;;		line 52 in file "../../pic16flcd.c"
  4128 ;; Parameters:    Size  Location     Type
  4129 ;;  config          1    wreg     PTR struct .
  4130 ;;		 -> main@lcd(8), 
  4131 ;;  cmd             1    9[COMMON] unsigned char 
  4132 ;; Auto vars:     Size  Location     Type
  4133 ;;  config          1   12[COMMON] PTR struct .
  4134 ;;		 -> main@lcd(8), 
  4135 ;; Return value:  Size  Location     Type
  4136 ;;                  1    wreg      void 
  4137 ;; Registers used:
  4138 ;;		wreg, fsr0l, fsr0h, status,2, status,0, pclath, cstack
  4139 ;; Tracked objects:
  4140 ;;		On entry : 0/0
  4141 ;;		On exit  : 0/0
  4142 ;;		Unchanged: 0/0
  4143 ;; Data sizes:     COMMON   BANK0   BANK1   BANK3   BANK2
  4144 ;;      Params:         1       0       0       0       0
  4145 ;;      Locals:         1       0       0       0       0
  4146 ;;      Temps:          2       0       0       0       0
  4147 ;;      Totals:         4       0       0       0       0
  4148 ;;Total ram usage:        4 bytes
  4149 ;; Hardware stack levels used: 1
  4150 ;; Hardware stack levels required when called: 2
  4151 ;; This function calls:
  4152 ;;		_PulseEnable
  4153 ;;		_SetBit
  4154 ;; This function is called by:
  4155 ;;		_Lcd_Init
  4156 ;;		_Lcd_Clear
  4157 ;;		_Lcd_SetCursor
  4158 ;; This function uses a non-reentrant model
  4159 ;;
  4160                           
  4161     013F                     _Lcd_Command:	
  4162                           ;psect for function _Lcd_Command
  4163                           
  4164                           
  4165                           ;incstack = 0
  4166                           ; Regs used in _Lcd_Command: [wreg-fsr0h+status,2+status,0+pclath+cstack]
  4167                           ;Lcd_Command@config stored from wreg
  4168     013F  00FC               	movwf	Lcd_Command@config
  4169                           
  4170                           ;../../pic16flcd.c: 54:     SetBit(config->port, config->d4_pin, (cmd >> 4) & 0x01);
  4171     0140  087C               	movf	Lcd_Command@config,w
  4172     0141  0084               	movwf	4
  4173     0142  1383               	bcf	3,7	;select IRP bank0
  4174     0143  0800               	movf	0,w
  4175     0144  00F0               	movwf	SetBit@port
  4176     0145  0A84               	incf	4,f
  4177     0146  0800               	movf	0,w
  4178     0147  0384               	decf	4,f
  4179     0148  00F1               	movwf	SetBit@port+1
  4180     0149  087C               	movf	Lcd_Command@config,w
  4181     014A  3E04               	addlw	4
  4182     014B  0084               	movwf	4
  4183     014C  0800               	movf	0,w
  4184     014D  00F2               	movwf	SetBit@pin
  4185     014E  0879               	movf	Lcd_Command@cmd,w
  4186     014F  00FB               	movwf	??_Lcd_Command+1
  4187     0150  3004               	movlw	4
  4188     0151                     u1605:
  4189     0151  1003               	clrc
  4190     0152  0CFB               	rrf	??_Lcd_Command+1,f
  4191     0153  3EFF               	addlw	-1
  4192     0154  1D03               	skipz
  4193     0155  2951               	goto	u1605
  4194     0156  1C7B               	btfss	??_Lcd_Command+1,0
  4195     0157  295A               	goto	u1610
  4196     0158  3001               	movlw	1
  4197     0159  295B               	goto	u1620
  4198     015A                     u1610:
  4199     015A  3000               	movlw	0
  4200     015B                     u1620:
  4201     015B  00F3               	movwf	SetBit@value
  4202     015C  120A  158A  25A2  120A  118A  	fcall	_SetBit
  4203                           
  4204                           ;../../pic16flcd.c: 55:     SetBit(config->port, config->d5_pin, (cmd >> 5) & 0x01);
  4205     0161  087C               	movf	Lcd_Command@config,w
  4206     0162  0084               	movwf	4
  4207     0163  1383               	bcf	3,7	;select IRP bank0
  4208     0164  0800               	movf	0,w
  4209     0165  00F0               	movwf	SetBit@port
  4210     0166  0A84               	incf	4,f
  4211     0167  0800               	movf	0,w
  4212     0168  0384               	decf	4,f
  4213     0169  00F1               	movwf	SetBit@port+1
  4214     016A  087C               	movf	Lcd_Command@config,w
  4215     016B  3E05               	addlw	5
  4216     016C  0084               	movwf	4
  4217     016D  0800               	movf	0,w
  4218     016E  00F2               	movwf	SetBit@pin
  4219     016F  0879               	movf	Lcd_Command@cmd,w
  4220     0170  00FB               	movwf	??_Lcd_Command+1
  4221     0171  3005               	movlw	5
  4222     0172                     u1635:
  4223     0172  1003               	clrc
  4224     0173  0CFB               	rrf	??_Lcd_Command+1,f
  4225     0174  3EFF               	addlw	-1
  4226     0175  1D03               	skipz
  4227     0176  2972               	goto	u1635
  4228     0177  1C7B               	btfss	??_Lcd_Command+1,0
  4229     0178  297B               	goto	u1640
  4230     0179  3001               	movlw	1
  4231     017A  297C               	goto	u1650
  4232     017B                     u1640:
  4233     017B  3000               	movlw	0
  4234     017C                     u1650:
  4235     017C  00F3               	movwf	SetBit@value
  4236     017D  120A  158A  25A2  120A  118A  	fcall	_SetBit
  4237                           
  4238                           ;../../pic16flcd.c: 56:     SetBit(config->port, config->d6_pin, (cmd >> 6) & 0x01);
  4239     0182  087C               	movf	Lcd_Command@config,w
  4240     0183  0084               	movwf	4
  4241     0184  1383               	bcf	3,7	;select IRP bank0
  4242     0185  0800               	movf	0,w
  4243     0186  00F0               	movwf	SetBit@port
  4244     0187  0A84               	incf	4,f
  4245     0188  0800               	movf	0,w
  4246     0189  0384               	decf	4,f
  4247     018A  00F1               	movwf	SetBit@port+1
  4248     018B  087C               	movf	Lcd_Command@config,w
  4249     018C  3E06               	addlw	6
  4250     018D  0084               	movwf	4
  4251     018E  0800               	movf	0,w
  4252     018F  00F2               	movwf	SetBit@pin
  4253     0190  0879               	movf	Lcd_Command@cmd,w
  4254     0191  00FB               	movwf	??_Lcd_Command+1
  4255     0192  3006               	movlw	6
  4256     0193                     u1665:
  4257     0193  1003               	clrc
  4258     0194  0CFB               	rrf	??_Lcd_Command+1,f
  4259     0195  3EFF               	addlw	-1
  4260     0196  1D03               	skipz
  4261     0197  2993               	goto	u1665
  4262     0198  1C7B               	btfss	??_Lcd_Command+1,0
  4263     0199  299C               	goto	u1670
  4264     019A  3001               	movlw	1
  4265     019B  299D               	goto	u1680
  4266     019C                     u1670:
  4267     019C  3000               	movlw	0
  4268     019D                     u1680:
  4269     019D  00F3               	movwf	SetBit@value
  4270     019E  120A  158A  25A2  120A  118A  	fcall	_SetBit
  4271                           
  4272                           ;../../pic16flcd.c: 57:     SetBit(config->port, config->d7_pin, (cmd >> 7) & 0x01);
  4273     01A3  087C               	movf	Lcd_Command@config,w
  4274     01A4  0084               	movwf	4
  4275     01A5  1383               	bcf	3,7	;select IRP bank0
  4276     01A6  0800               	movf	0,w
  4277     01A7  00F0               	movwf	SetBit@port
  4278     01A8  0A84               	incf	4,f
  4279     01A9  0800               	movf	0,w
  4280     01AA  0384               	decf	4,f
  4281     01AB  00F1               	movwf	SetBit@port+1
  4282     01AC  087C               	movf	Lcd_Command@config,w
  4283     01AD  3E07               	addlw	7
  4284     01AE  0084               	movwf	4
  4285     01AF  0800               	movf	0,w
  4286     01B0  00F2               	movwf	SetBit@pin
  4287     01B1  0879               	movf	Lcd_Command@cmd,w
  4288     01B2  00FB               	movwf	??_Lcd_Command+1
  4289     01B3  3007               	movlw	7
  4290     01B4                     u1695:
  4291     01B4  1003               	clrc
  4292     01B5  0CFB               	rrf	??_Lcd_Command+1,f
  4293     01B6  3EFF               	addlw	-1
  4294     01B7  1D03               	skipz
  4295     01B8  29B4               	goto	u1695
  4296     01B9  1C7B               	btfss	??_Lcd_Command+1,0
  4297     01BA  29BD               	goto	u1700
  4298     01BB  3001               	movlw	1
  4299     01BC  29BE               	goto	u1710
  4300     01BD                     u1700:
  4301     01BD  3000               	movlw	0
  4302     01BE                     u1710:
  4303     01BE  00F3               	movwf	SetBit@value
  4304     01BF  120A  158A  25A2  120A  118A  	fcall	_SetBit
  4305                           
  4306                           ;../../pic16flcd.c: 59:     SetBit(config->port, config->rs_pin, 0);
  4307     01C4  087C               	movf	Lcd_Command@config,w
  4308     01C5  0084               	movwf	4
  4309     01C6  1383               	bcf	3,7	;select IRP bank0
  4310     01C7  0800               	movf	0,w
  4311     01C8  00F0               	movwf	SetBit@port
  4312     01C9  0A84               	incf	4,f
  4313     01CA  0800               	movf	0,w
  4314     01CB  0384               	decf	4,f
  4315     01CC  00F1               	movwf	SetBit@port+1
  4316     01CD  087C               	movf	Lcd_Command@config,w
  4317     01CE  3E02               	addlw	2
  4318     01CF  0084               	movwf	4
  4319     01D0  0800               	movf	0,w
  4320     01D1  00F2               	movwf	SetBit@pin
  4321     01D2  01F3               	clrf	SetBit@value
  4322     01D3  120A  158A  25A2  120A  118A  	fcall	_SetBit
  4323                           
  4324                           ;../../pic16flcd.c: 60:     PulseEnable(config);
  4325     01D8  087C               	movf	Lcd_Command@config,w
  4326     01D9  120A  158A  25CC  120A  118A  	fcall	_PulseEnable
  4327                           
  4328                           ;../../pic16flcd.c: 63:     SetBit(config->port, config->d4_pin, cmd & 0x01);
  4329     01DE  087C               	movf	Lcd_Command@config,w
  4330     01DF  0084               	movwf	4
  4331     01E0  1383               	bcf	3,7	;select IRP bank0
  4332     01E1  0800               	movf	0,w
  4333     01E2  00F0               	movwf	SetBit@port
  4334     01E3  0A84               	incf	4,f
  4335     01E4  0800               	movf	0,w
  4336     01E5  0384               	decf	4,f
  4337     01E6  00F1               	movwf	SetBit@port+1
  4338     01E7  087C               	movf	Lcd_Command@config,w
  4339     01E8  3E04               	addlw	4
  4340     01E9  0084               	movwf	4
  4341     01EA  0800               	movf	0,w
  4342     01EB  00F2               	movwf	SetBit@pin
  4343     01EC  1C79               	btfss	Lcd_Command@cmd,0
  4344     01ED  29F0               	goto	u1720
  4345     01EE  3001               	movlw	1
  4346     01EF  29F1               	goto	u1730
  4347     01F0                     u1720:
  4348     01F0  3000               	movlw	0
  4349     01F1                     u1730:
  4350     01F1  00F3               	movwf	SetBit@value
  4351     01F2  120A  158A  25A2  120A  118A  	fcall	_SetBit
  4352                           
  4353                           ;../../pic16flcd.c: 64:     SetBit(config->port, config->d5_pin, (cmd >> 1) & 0x01);
  4354     01F7  087C               	movf	Lcd_Command@config,w
  4355     01F8  0084               	movwf	4
  4356     01F9  1383               	bcf	3,7	;select IRP bank0
  4357     01FA  0800               	movf	0,w
  4358     01FB  00F0               	movwf	SetBit@port
  4359     01FC  0A84               	incf	4,f
  4360     01FD  0800               	movf	0,w
  4361     01FE  0384               	decf	4,f
  4362     01FF  00F1               	movwf	SetBit@port+1
  4363     0200  087C               	movf	Lcd_Command@config,w
  4364     0201  3E05               	addlw	5
  4365     0202  0084               	movwf	4
  4366     0203  0800               	movf	0,w
  4367     0204  00F2               	movwf	SetBit@pin
  4368     0205  0879               	movf	Lcd_Command@cmd,w
  4369     0206  00FB               	movwf	??_Lcd_Command+1
  4370     0207  3001               	movlw	1
  4371     0208                     u1745:
  4372     0208  1003               	clrc
  4373     0209  0CFB               	rrf	??_Lcd_Command+1,f
  4374     020A  3EFF               	addlw	-1
  4375     020B  1D03               	skipz
  4376     020C  2A08               	goto	u1745
  4377     020D  1C7B               	btfss	??_Lcd_Command+1,0
  4378     020E  2A11               	goto	u1750
  4379     020F  3001               	movlw	1
  4380     0210  2A12               	goto	u1760
  4381     0211                     u1750:
  4382     0211  3000               	movlw	0
  4383     0212                     u1760:
  4384     0212  00F3               	movwf	SetBit@value
  4385     0213  120A  158A  25A2  120A  118A  	fcall	_SetBit
  4386                           
  4387                           ;../../pic16flcd.c: 65:     SetBit(config->port, config->d6_pin, (cmd >> 2) & 0x01);
  4388     0218  087C               	movf	Lcd_Command@config,w
  4389     0219  0084               	movwf	4
  4390     021A  1383               	bcf	3,7	;select IRP bank0
  4391     021B  0800               	movf	0,w
  4392     021C  00F0               	movwf	SetBit@port
  4393     021D  0A84               	incf	4,f
  4394     021E  0800               	movf	0,w
  4395     021F  0384               	decf	4,f
  4396     0220  00F1               	movwf	SetBit@port+1
  4397     0221  087C               	movf	Lcd_Command@config,w
  4398     0222  3E06               	addlw	6
  4399     0223  0084               	movwf	4
  4400     0224  0800               	movf	0,w
  4401     0225  00F2               	movwf	SetBit@pin
  4402     0226  0879               	movf	Lcd_Command@cmd,w
  4403     0227  00FB               	movwf	??_Lcd_Command+1
  4404     0228  3002               	movlw	2
  4405     0229                     u1775:
  4406     0229  1003               	clrc
  4407     022A  0CFB               	rrf	??_Lcd_Command+1,f
  4408     022B  3EFF               	addlw	-1
  4409     022C  1D03               	skipz
  4410     022D  2A29               	goto	u1775
  4411     022E  1C7B               	btfss	??_Lcd_Command+1,0
  4412     022F  2A32               	goto	u1780
  4413     0230  3001               	movlw	1
  4414     0231  2A33               	goto	u1790
  4415     0232                     u1780:
  4416     0232  3000               	movlw	0
  4417     0233                     u1790:
  4418     0233  00F3               	movwf	SetBit@value
  4419     0234  120A  158A  25A2  120A  118A  	fcall	_SetBit
  4420                           
  4421                           ;../../pic16flcd.c: 66:     SetBit(config->port, config->d7_pin, (cmd >> 3) & 0x01);
  4422     0239  087C               	movf	Lcd_Command@config,w
  4423     023A  0084               	movwf	4
  4424     023B  1383               	bcf	3,7	;select IRP bank0
  4425     023C  0800               	movf	0,w
  4426     023D  00F0               	movwf	SetBit@port
  4427     023E  0A84               	incf	4,f
  4428     023F  0800               	movf	0,w
  4429     0240  0384               	decf	4,f
  4430     0241  00F1               	movwf	SetBit@port+1
  4431     0242  087C               	movf	Lcd_Command@config,w
  4432     0243  3E07               	addlw	7
  4433     0244  0084               	movwf	4
  4434     0245  0800               	movf	0,w
  4435     0246  00F2               	movwf	SetBit@pin
  4436     0247  0879               	movf	Lcd_Command@cmd,w
  4437     0248  00FB               	movwf	??_Lcd_Command+1
  4438     0249  3003               	movlw	3
  4439     024A                     u1805:
  4440     024A  1003               	clrc
  4441     024B  0CFB               	rrf	??_Lcd_Command+1,f
  4442     024C  3EFF               	addlw	-1
  4443     024D  1D03               	skipz
  4444     024E  2A4A               	goto	u1805
  4445     024F  1C7B               	btfss	??_Lcd_Command+1,0
  4446     0250  2A53               	goto	u1810
  4447     0251  3001               	movlw	1
  4448     0252  2A54               	goto	u1820
  4449     0253                     u1810:
  4450     0253  3000               	movlw	0
  4451     0254                     u1820:
  4452     0254  00F3               	movwf	SetBit@value
  4453     0255  120A  158A  25A2  120A  118A  	fcall	_SetBit
  4454                           
  4455                           ;../../pic16flcd.c: 68:     PulseEnable(config);
  4456     025A  087C               	movf	Lcd_Command@config,w
  4457     025B  120A  158A  25CC   	fcall	_PulseEnable
  4458     025E  0008               	return
  4459     025F                     __end_of_Lcd_Command:
  4460                           
  4461                           	psect	text19
  4462     0DCC                     __ptext19:	
  4463 ;; *************** function _PulseEnable *****************
  4464 ;; Defined at:
  4465 ;;		line 38 in file "../../pic16flcd.c"
  4466 ;; Parameters:    Size  Location     Type
  4467 ;;  config          1    wreg     PTR struct .
  4468 ;;		 -> main@lcd(8), 
  4469 ;; Auto vars:     Size  Location     Type
  4470 ;;  config          1    8[COMMON] PTR struct .
  4471 ;;		 -> main@lcd(8), 
  4472 ;; Return value:  Size  Location     Type
  4473 ;;                  1    wreg      void 
  4474 ;; Registers used:
  4475 ;;		wreg, fsr0l, fsr0h, status,2, status,0, pclath, cstack
  4476 ;; Tracked objects:
  4477 ;;		On entry : 0/0
  4478 ;;		On exit  : 0/0
  4479 ;;		Unchanged: 0/0
  4480 ;; Data sizes:     COMMON   BANK0   BANK1   BANK3   BANK2
  4481 ;;      Params:         0       0       0       0       0
  4482 ;;      Locals:         1       0       0       0       0
  4483 ;;      Temps:          2       0       0       0       0
  4484 ;;      Totals:         3       0       0       0       0
  4485 ;;Total ram usage:        3 bytes
  4486 ;; Hardware stack levels used: 1
  4487 ;; Hardware stack levels required when called: 1
  4488 ;; This function calls:
  4489 ;;		_SetBit
  4490 ;; This function is called by:
  4491 ;;		_Lcd_Command
  4492 ;;		_Lcd_WriteChar
  4493 ;; This function uses a non-reentrant model
  4494 ;;
  4495                           
  4496     0DCC                     _PulseEnable:	
  4497                           ;psect for function _PulseEnable
  4498                           
  4499                           
  4500                           ;incstack = 0
  4501                           ; Regs used in _PulseEnable: [wreg-fsr0h+status,2+status,0+pclath+cstack]
  4502                           ;PulseEnable@config stored from wreg
  4503     0DCC  00F8               	movwf	PulseEnable@config
  4504                           
  4505                           ;../../pic16flcd.c: 39:     SetBit(config->port, config->en_pin, 1);
  4506     0DCD  0878               	movf	PulseEnable@config,w
  4507     0DCE  0084               	movwf	4
  4508     0DCF  1383               	bcf	3,7	;select IRP bank0
  4509     0DD0  0800               	movf	0,w
  4510     0DD1  00F0               	movwf	SetBit@port
  4511     0DD2  0A84               	incf	4,f
  4512     0DD3  0800               	movf	0,w
  4513     0DD4  0384               	decf	4,f
  4514     0DD5  00F1               	movwf	SetBit@port+1
  4515     0DD6  0878               	movf	PulseEnable@config,w
  4516     0DD7  3E03               	addlw	3
  4517     0DD8  0084               	movwf	4
  4518     0DD9  0800               	movf	0,w
  4519     0DDA  00F2               	movwf	SetBit@pin
  4520     0DDB  01F3               	clrf	SetBit@value
  4521     0DDC  0AF3               	incf	SetBit@value,f
  4522     0DDD  120A  158A  25A2  120A  158A  	fcall	_SetBit
  4523                           
  4524                           ;../../pic16flcd.c: 40:     _delay((unsigned long)((2)*(4000000/4000.0)));
  4525     0DE2  3003               	movlw	3
  4526     0DE3  00F7               	movwf	??_PulseEnable+1
  4527     0DE4  3097               	movlw	151
  4528     0DE5  00F6               	movwf	??_PulseEnable
  4529     0DE6                     u3187:
  4530     0DE6  0BF6               	decfsz	??_PulseEnable,f
  4531     0DE7  2DE6               	goto	u3187
  4532     0DE8  0BF7               	decfsz	??_PulseEnable+1,f
  4533     0DE9  2DE6               	goto	u3187
  4534     0DEA  2DEB               	nop2
  4535                           
  4536                           ;../../pic16flcd.c: 41:     SetBit(config->port, config->en_pin, 0);
  4537     0DEB  0878               	movf	PulseEnable@config,w
  4538     0DEC  0084               	movwf	4
  4539     0DED  1383               	bcf	3,7	;select IRP bank0
  4540     0DEE  0800               	movf	0,w
  4541     0DEF  00F0               	movwf	SetBit@port
  4542     0DF0  0A84               	incf	4,f
  4543     0DF1  0800               	movf	0,w
  4544     0DF2  0384               	decf	4,f
  4545     0DF3  00F1               	movwf	SetBit@port+1
  4546     0DF4  0878               	movf	PulseEnable@config,w
  4547     0DF5  3E03               	addlw	3
  4548     0DF6  0084               	movwf	4
  4549     0DF7  0800               	movf	0,w
  4550     0DF8  00F2               	movwf	SetBit@pin
  4551     0DF9  01F3               	clrf	SetBit@value
  4552     0DFA  120A  158A  25A2   	fcall	_SetBit
  4553     0DFD  0008               	return
  4554     0DFE                     __end_of_PulseEnable:
  4555                           
  4556                           	psect	text20
  4557     0DA2                     __ptext20:	
  4558 ;; *************** function _SetBit *****************
  4559 ;; Defined at:
  4560 ;;		line 24 in file "../../pic16flcd.c"
  4561 ;; Parameters:    Size  Location     Type
  4562 ;;  port            2    0[COMMON] PTR volatile unsigned ch
  4563 ;;		 -> PORTC(1), 
  4564 ;;  pin             1    2[COMMON] unsigned char 
  4565 ;;  value           1    3[COMMON] _Bool 
  4566 ;; Auto vars:     Size  Location     Type
  4567 ;;		None
  4568 ;; Return value:  Size  Location     Type
  4569 ;;                  1    wreg      void 
  4570 ;; Registers used:
  4571 ;;		wreg, fsr0l, fsr0h, status,2, status,0
  4572 ;; Tracked objects:
  4573 ;;		On entry : 800/0
  4574 ;;		On exit  : 0/0
  4575 ;;		Unchanged: 0/0
  4576 ;; Data sizes:     COMMON   BANK0   BANK1   BANK3   BANK2
  4577 ;;      Params:         4       0       0       0       0
  4578 ;;      Locals:         0       0       0       0       0
  4579 ;;      Temps:          2       0       0       0       0
  4580 ;;      Totals:         6       0       0       0       0
  4581 ;;Total ram usage:        6 bytes
  4582 ;; Hardware stack levels used: 1
  4583 ;; This function calls:
  4584 ;;		Nothing
  4585 ;; This function is called by:
  4586 ;;		_PulseEnable
  4587 ;;		_Lcd_Command
  4588 ;;		_Lcd_WriteChar
  4589 ;; This function uses a non-reentrant model
  4590 ;;
  4591                           
  4592     0DA2                     _SetBit:	
  4593                           ;psect for function _SetBit
  4594                           
  4595                           
  4596                           ;../../pic16flcd.c: 25:     if (value) {
  4597                           
  4598                           ;incstack = 0
  4599                           ; Regs used in _SetBit: [wreg-fsr0h+status,2+status,0]
  4600     0DA2  0873               	movf	SetBit@value,w
  4601     0DA3  1903               	btfsc	3,2
  4602     0DA4  2DB8               	goto	l1256
  4603                           
  4604                           ;../../pic16flcd.c: 26:         *port |= (1 << pin);
  4605     0DA5  3001               	movlw	1
  4606     0DA6  00F4               	movwf	??_SetBit
  4607     0DA7  0A72               	incf	SetBit@pin,w
  4608     0DA8  2DAB               	goto	u1584
  4609     0DA9                     u1585:
  4610     0DA9  1003               	clrc
  4611     0DAA  0DF4               	rlf	??_SetBit,f
  4612     0DAB                     u1584:
  4613     0DAB  3EFF               	addlw	-1
  4614     0DAC  1D03               	skipz
  4615     0DAD  2DA9               	goto	u1585
  4616     0DAE  0874               	movf	??_SetBit,w
  4617     0DAF  00F5               	movwf	??_SetBit+1
  4618     0DB0  0870               	movf	SetBit@port,w
  4619     0DB1  0084               	movwf	4
  4620     0DB2  1783               	bsf	3,7
  4621     0DB3  1C71               	btfss	SetBit@port+1,0
  4622     0DB4  1383               	bcf	3,7
  4623     0DB5  0875               	movf	??_SetBit+1,w
  4624     0DB6  0480               	iorwf	0,f
  4625                           
  4626                           ;../../pic16flcd.c: 27:     } else {
  4627     0DB7  0008               	return
  4628     0DB8                     l1256:
  4629                           
  4630                           ;../../pic16flcd.c: 28:         *port &= ~(1 << pin);
  4631     0DB8  3001               	movlw	1
  4632     0DB9  00F4               	movwf	??_SetBit
  4633     0DBA  0A72               	incf	SetBit@pin,w
  4634     0DBB  2DBE               	goto	u1594
  4635     0DBC                     u1595:
  4636     0DBC  1003               	clrc
  4637     0DBD  0DF4               	rlf	??_SetBit,f
  4638     0DBE                     u1594:
  4639     0DBE  3EFF               	addlw	-1
  4640     0DBF  1D03               	skipz
  4641     0DC0  2DBC               	goto	u1595
  4642     0DC1  0874               	movf	??_SetBit,w
  4643     0DC2  3AFF               	xorlw	255
  4644     0DC3  00F5               	movwf	??_SetBit+1
  4645     0DC4  0870               	movf	SetBit@port,w
  4646     0DC5  0084               	movwf	4
  4647     0DC6  1783               	bsf	3,7
  4648     0DC7  1C71               	btfss	SetBit@port+1,0
  4649     0DC8  1383               	bcf	3,7
  4650     0DC9  0875               	movf	??_SetBit+1,w
  4651     0DCA  0580               	andwf	0,f
  4652     0DCB  0008               	return
  4653     0DCC                     __end_of_SetBit:
  4654     007E                     btemp	set	126	;btemp
  4655     007E                     wtemp0	set	126
  4656                           
  4657                           	psect	config
  4658                           
  4659                           ;Config register CONFIG1 @ 0x2007
  4660                           ;	Oscillator Selection bits
  4661                           ;	FOSC = INTRC_NOCLKOUT, INTOSCIO oscillator: I/O function on RA6/OSC2/CLKOUT pin, I/O f
      +                          unction on RA7/OSC1/CLKIN
  4662                           ;	Watchdog Timer Enable bit
  4663                           ;	WDTE = OFF, WDT disabled and can be enabled by SWDTEN bit of the WDTCON register
  4664                           ;	Power-up Timer Enable bit
  4665                           ;	PWRTE = OFF, PWRT disabled
  4666                           ;	RE3/MCLR pin function select bit
  4667                           ;	MCLRE = ON, RE3/MCLR pin function is MCLR
  4668                           ;	Code Protection bit
  4669                           ;	CP = OFF, Program memory code protection is disabled
  4670                           ;	Data Code Protection bit
  4671                           ;	CPD = OFF, Data memory code protection is disabled
  4672                           ;	Brown Out Reset Selection bits
  4673                           ;	BOREN = ON, BOR enabled
  4674                           ;	Internal External Switchover bit
  4675                           ;	IESO = 0x1, unprogrammed default
  4676                           ;	Fail-Safe Clock Monitor Enabled bit
  4677                           ;	FCMEN = 0x1, unprogrammed default
  4678                           ;	Low Voltage Programming Enable bit
  4679                           ;	LVP = OFF, RB3 pin has digital I/O, HV on MCLR must be used for programming
  4680                           ;	In-Circuit Debugger Mode bit
  4681                           ;	DEBUG = 0x1, unprogrammed default
  4682     2007                     	org	8199
  4683     2007  2FF4               	dw	12276

Data Sizes:
    Strings     19
    Constant    0
    Data        8
    BSS         0
    Persistent  0
    Stack       0

Auto Spaces:
    Space          Size  Autos    Used
    COMMON           14     14      14
    BANK0            80     80      80
    BANK1            80      0       8
    BANK3            96      0       0
    BANK2            96      0       0

Pointer List with Targets:

    F1466$port	PTR volatile unsigned char  size(2) Largest target is 1
		 -> PORTC(SFR0[1]), 

    lcd$port	PTR volatile unsigned char  size(2) Largest target is 1
		 -> PORTC(SFR0[1]), 

    Lcd_Clear@config	PTR struct . size(1) Largest target is 8
		 -> main@lcd(BANK0[8]), 

    Lcd_Clear@config$port	PTR volatile unsigned char  size(2) Largest target is 1
		 -> PORTC(SFR0[1]), 

    Lcd_Command@config	PTR struct . size(1) Largest target is 8
		 -> main@lcd(BANK0[8]), 

    Lcd_Command@config$port	PTR volatile unsigned char  size(2) Largest target is 1
		 -> PORTC(SFR0[1]), 

    Lcd_Init@config	PTR struct . size(1) Largest target is 8
		 -> main@lcd(BANK0[8]), 

    Lcd_Init@config$port	PTR volatile unsigned char  size(2) Largest target is 1
		 -> PORTC(SFR0[1]), 

    Lcd_SetCursor@config	PTR struct . size(1) Largest target is 8
		 -> main@lcd(BANK0[8]), 

    Lcd_SetCursor@config$port	PTR volatile unsigned char  size(2) Largest target is 1
		 -> PORTC(SFR0[1]), 

    Lcd_WriteChar@config	PTR struct . size(1) Largest target is 8
		 -> main@lcd(BANK0[8]), 

    Lcd_WriteChar@config$port	PTR volatile unsigned char  size(2) Largest target is 1
		 -> PORTC(SFR0[1]), 

    Lcd_WriteString@config	PTR struct . size(1) Largest target is 8
		 -> main@lcd(BANK0[8]), 

    Lcd_WriteString@config$port	PTR volatile unsigned char  size(2) Largest target is 1
		 -> PORTC(SFR0[1]), 

    Lcd_WriteString@str	PTR unsigned char  size(1) Largest target is 19
		 -> STR_1(CODE[19]), 

    PulseEnable@config	PTR struct . size(1) Largest target is 8
		 -> main@lcd(BANK0[8]), 

    PulseEnable@config$port	PTR volatile unsigned char  size(2) Largest target is 1
		 -> PORTC(SFR0[1]), 

    S181$port	PTR volatile unsigned char  size(2) Largest target is 1
		 -> PORTC(SFR0[1]), 

    SetBit@port	PTR volatile unsigned char  size(2) Largest target is 1
		 -> PORTC(SFR0[1]), 


Critical Paths under _main in COMMON

    _main->_Lcd_Clear
    _main->_Lcd_WriteString
    _main->___xxtofl
    _readTemperature->___xxtofl
    ___flmul->___xxtofl
    ___fldiv->___xxtofl
    ___fltol->___xxtofl
    _Lcd_WriteString->_Lcd_WriteChar
    _Lcd_WriteChar->_PulseEnable
    _Lcd_SetCursor->_Lcd_Command
    _Lcd_Init->_Lcd_Clear
    _Lcd_Clear->_Lcd_Command
    _Lcd_Command->_PulseEnable
    _PulseEnable->_SetBit

Critical Paths under _main in BANK0

    _main->___fltol
    _main->_readTemperature
    _readTemperature->___flmul
    ___flmul->___fldiv
    ___fltol->___flmul
    _Lcd_Init->_Lcd_Clear

Critical Paths under _main in BANK1

    None.

Critical Paths under _main in BANK3

    None.

Critical Paths under _main in BANK2

    None.

Call Graph Tables:

 ---------------------------------------------------------------------------------
 (Depth) Function   	        Calls       Base Space   Used Autos Params    Refs
 ---------------------------------------------------------------------------------
 (0) _main                                                20    20      0   64990
                                             62 BANK0     18    18      0
                          _Lcd_Clear
                           _Lcd_Init
                      _Lcd_SetCursor
                    _Lcd_WriteString
                             ___flge
                            ___flmul
                            ___fltol
                           ___xxtofl
                        _countPulses
                            _initADC
                            _initPWM
                            _initRPM
                    _readTemperature
 ---------------------------------------------------------------------------------
 (1) _readTemperature                                     10     6      4    4515
                                             52 BANK0     10     6      4
                            ___fldiv
                            ___flmul
                           ___xxtofl
                            _readADC
 ---------------------------------------------------------------------------------
 (2) _readADC                                              2     0      2       0
                                              0 COMMON     2     0      2
 ---------------------------------------------------------------------------------
 (2) ___xxtofl                                            14    10      4     474
                                              0 COMMON    14    10      4
 ---------------------------------------------------------------------------------
 (2) ___flmul                                             26    18      8    2570
                                             26 BANK0     26    18      8
                          __Umul8_16
                            ___fldiv (ARG)
                           ___xxtofl (ARG)
 ---------------------------------------------------------------------------------
 (3) __Umul8_16                                            9     7      2     799
                                              0 COMMON     9     7      2
 ---------------------------------------------------------------------------------
 (2) ___fldiv                                             26    18      8    1425
                                              0 BANK0     26    18      8
                           ___xxtofl (ARG)
 ---------------------------------------------------------------------------------
 (1) _initRPM                                              0     0      0       0
 ---------------------------------------------------------------------------------
 (1) _initPWM                                              0     0      0       0
 ---------------------------------------------------------------------------------
 (1) _initADC                                              0     0      0       0
 ---------------------------------------------------------------------------------
 (1) _countPulses                                          6     4      2     115
                                              0 COMMON     6     4      2
 ---------------------------------------------------------------------------------
 (1) ___fltol                                             10     6      4     305
                                             52 BANK0     10     6      4
                            ___flmul (ARG)
                           ___xxtofl (ARG)
 ---------------------------------------------------------------------------------
 (1) ___flge                                              12     4      8     486
                                              0 COMMON    12     4      8
 ---------------------------------------------------------------------------------
 (1) _Lcd_WriteString                                      3     2      1   10653
                                             13 COMMON     1     0      1
                                              0 BANK0      2     2      0
                      _Lcd_WriteChar
 ---------------------------------------------------------------------------------
 (2) _Lcd_WriteChar                                        4     3      1   10477
                                              9 COMMON     4     3      1
                        _PulseEnable
                             _SetBit
 ---------------------------------------------------------------------------------
 (1) _Lcd_SetCursor                                        6     4      2   11530
                                              0 BANK0      6     4      2
                        _Lcd_Command
 ---------------------------------------------------------------------------------
 (1) _Lcd_Init                                             3     3      0   22803
                                              2 BANK0      3     3      0
                          _Lcd_Clear
                        _Lcd_Command
 ---------------------------------------------------------------------------------
 (2) _Lcd_Clear                                            3     3      0   11341
                                             13 COMMON     1     1      0
                                              0 BANK0      2     2      0
                        _Lcd_Command
 ---------------------------------------------------------------------------------
 (2) _Lcd_Command                                          4     3      1   11253
                                              9 COMMON     4     3      1
                        _PulseEnable
                             _SetBit
 ---------------------------------------------------------------------------------
 (3) _PulseEnable                                          3     3      0    4890
                                              6 COMMON     3     3      0
                             _SetBit
 ---------------------------------------------------------------------------------
 (3) _SetBit                                               6     2      4    4670
                                              0 COMMON     6     2      4
 ---------------------------------------------------------------------------------
 Estimated maximum stack depth 3
 ---------------------------------------------------------------------------------

 Call Graph Graphs:

 _main (ROOT)
   _Lcd_Clear
     _Lcd_Command
       _PulseEnable
         _SetBit
       _SetBit
   _Lcd_Init
     _Lcd_Clear
     _Lcd_Command
   _Lcd_SetCursor
     _Lcd_Command
   _Lcd_WriteString
     _Lcd_WriteChar
       _PulseEnable
       _SetBit
   ___flge
   ___flmul
     __Umul8_16
     ___fldiv (ARG)
       ___xxtofl (ARG)
     ___xxtofl (ARG)
   ___fltol
     ___flmul (ARG)
     ___xxtofl (ARG)
   ___xxtofl
   _countPulses
   _initADC
   _initPWM
   _initRPM
   _readTemperature
     ___fldiv
     ___flmul
     ___xxtofl
     _readADC

 Address spaces:
Name               Size   Autos  Total    Cost      Usage
BANK3               60      0       0       9        0.0%
BITBANK3            60      0       0       8        0.0%
SFR3                 0      0       0       4        0.0%
BITSFR3              0      0       0       4        0.0%
BANK2               60      0       0      11        0.0%
BITBANK2            60      0       0      10        0.0%
SFR2                 0      0       0       5        0.0%
BITSFR2              0      0       0       5        0.0%
BANK1               50      0       8       7       10.0%
BITBANK1            50      0       0       6        0.0%
SFR1                 0      0       0       2        0.0%
BITSFR1              0      0       0       2        0.0%
BANK0               50     50      50       5      100.0%
BITBANK0            50      0       0       4        0.0%
SFR0                 0      0       0       1        0.0%
BITSFR0              0      0       0       1        0.0%
COMMON               E      E       E       1      100.0%
BITCOMMON            E      0       0       0        0.0%
CODE                 0      0       0       0        0.0%
DATA                 0      0      66      12        0.0%
ABS                  0      0      66       3        0.0%
NULL                 0      0       0       0        0.0%
STACK                0      0       0       2        0.0%
EEDATA             100      0       0       0        0.0%


Microchip Technology PIC Macro Assembler V2.45 build 20230818022343 
Symbol Table                                                                                   Wed Jan  3 11:17:58 2024

           ___fldiv@aexp 0039             ___fldiv@bexp 0038                        pc 0002  
           ___fldiv@sign 0031                       l59 0D77                       l67 0CCD  
         Lcd_Init@config 0024                       fsr 0004      __Umul8_16@word_mpld 0076  
                    l401 0F4C                      l421 004C                      l601 0511  
                    l636 0D91                      l629 07E3                      l661 0F7C  
                    l398 0EE6                      l577 03C6                      l674 0FD0  
                    l675 0FDA                      l667 0FBA                      l599 0505  
                    _PR2 0092                      fsr0 0004         ?_Lcd_WriteString 007D  
                    indf 0000             ___flmul@aexp 0048             ___flmul@bexp 004D  
    __end_of_Lcd_Command 025F             ___flmul@sign 0047             ___flmul@temp 0052  
           ___flmul@prod 004E             ___fltol@exp1 005D                     l1310 039A  
                   l1312 03A2                     l1402 04A0                     l1330 03BE  
                   l1306 0397                     l1412 04D2                     l1340 03E5  
                   l1326 03BB                     l1270 0D89                     l1256 0DB8  
                   l1416 04EB                     l1600 0FCE                     l1346 03F1  
                   l1530 0739                     l1450 0530                     l1602 0FBF  
                   l1428 050D                     l1372 045F                     l1532 0756  
                   l1452 0538                     l1702 0D40                     l1390 046A  
                   l1366 0440                     l1374 041C                     l1542 076F  
                   l1470 055B                     l1614 0FF7                     l1704 0D50  
                   l1720 0D1A                     l1392 0487                     l1376 0464  
                   l1552 07A1                     l1448 052E                     l1562 07D0  
                   l1538 076D                     l1466 0551                     l1802 0115  
                   l1732 0F26                     l1660 0D7A                     l1556 07B7  
                   l1468 0553                     l1580 0F74                     l1398 049E  
                   l1478 0569                     l1590 0F8D                     l1806 012E  
                   l1728 0F00                     l1744 000A                     l1592 0F9F  
                   l1658 0D64                     l1586 0F8B                     l1828 0D48  
                   l1764 0038                     l1748 0013                     l1774 005B  
                   l1766 0048                     l1696 0D3B                     l1792 00B1  
                   l1698 0D3D                     STR_1 0806                     u2000 0312  
                   u2020 0332                     u2030 0333                     u2015 0329  
                   u2050 0353                     u2060 0354                     u3100 0084  
                   u2045 034A                     u2205 042E                     u3015 001C  
                   u2080 0374                     u2225 0439                     u1610 015A  
                   u2090 0375                     u2075 036B                     u2235 044E  
                   u1700 01BD                     u1620 015B                     u1605 0151  
                   u3045 0039                     u1710 01BE                     u1720 01F0  
                   u1640 017B                     u2265 046E                     u3137 0138  
                   u1810 0253                     u1730 01F1                     u1650 017C  
                   u1635 0172                     u3147 0E69                     u3075 0051  
                   u2355 04BD                     u2195 0425                     u2515 060D  
                   u1820 0254                     u1805 024A                     u3157 0E7D  
                   u2365 04DB                     u2285 0479                     u1750 0211  
                   u1670 019C                     u1910 029B                     u3167 0E90  
                   u2375 04F6                     u2615 0725                     u1584 0DAB  
                   u1760 0212                     u1680 019D                     u1920 029C  
                   u1585 0DA9                     u1745 0208                     u1665 0193  
                   u3177 0D12                     u1905 0292                     u2625 073D  
                   u2545 0662                     u1594 0DBE                     u1595 0DBC  
                   u3187 0DE6                     u2715 078C                     u1780 0232  
                   u1940 02BC                     u1845 0D92                     u2725 07AA  
                   u2645 0748                     u2805 0FB2                     u1790 0233  
                   u1950 02BD                     u1775 0229                     u1695 01B4  
                   u1935 02B3                     u2735 07C2                     u1880 027A  
                   u2585 06EE                     u2825 0FC7                     u1970 02DD  
                   u1890 027B                     u1875 0271                     u1980 02DE  
                   u1965 02D4                     u1990 0311                     u2961 0F11  
                   u2865 0FE2                     u2785 0F96                     u2962 0F12  
                   u2963 0F17                     u2964 0F18                     u2981 0F37  
                   u2965 0F1D                     u2982 0F38                     u2966 0F1E  
                   u2983 0F3D                     u2984 0F3E                     u2985 0F43  
                   u2986 0F44                     _TMR0 0001       Lcd_WriteString@str 007D  
           ?_countPulses 0070                     _main 006A                     btemp 007E  
                   start 0000          ___fldiv@new_exp 0032            ___fltol@sign1 005C  
                  ?_main 0070          __end_of___fldiv 0517          __end_of___flmul 07F0  
        __end_of___fltol 006A                    _ANSEL 0188                    _T2CON 0012  
                  _PORTC 0007                    _TRISC 0087          __end_of_initADC 0CE1  
        __end_of_readADC 0CD5          __end_of_initRPM 0CCA          __end_of_initPWM 0CF2  
             SetBit@port 0070                    pclath 000A                    status 0003  
                  wtemp0 007E         __end_of_Lcd_Init 0ECC        PulseEnable@config 0078  
        __initialization 07F0             __end_of_main 013F              _Lcd_Command 013F  
                 ??_main 005E          _readTemperature 0DFE                   _ADCON0 001F  
                 _ADCON1 009F    __end_of_Lcd_SetCursor 0D5C                   _ADRESH 001E  
                 _ADRESL 009E                   _CCPR1L 0015                   _ANSELH 0189  
                 _OSCCON 008F         __end_of___xxtofl 1000                   _SetBit 0DA2  
   Lcd_SetCursor@address 0025                   ___flge 0ECC                ??___fldiv 0028  
              ??___flmul 0042                ??___fltol 0058              SetBit@value 0073  
  __end_of_Lcd_WriteChar 0380                ??_initADC 0070                ??_readADC 0072  
              ??_initRPM 0070                ??_initPWM 0070               ___flge@ff1 0070  
             ___flge@ff2 0074             ___xxtofl@arg 007A             ___xxtofl@exp 0079  
           ___xxtofl@val 0070  __end_of__initialization 07FC            ??_PulseEnable 0076  
      __end_of_Lcd_Clear 0D17               ___fltol@f1 0054           __pcstackCOMMON 0070  
           __pidataBANK1 0CB7  __end_of_readTemperature 0E62           _OPTION_REGbits 0081  
              ?_Lcd_Init 0070        __end_of__Umul8_16 0DA2                  ?_SetBit 0070  
             __pmaintext 006A                  ?___flge 0070      __end_of_PulseEnable 0DFE  
   countPulses@lastState 0074                  _CCP1CON 0017                ?___xxtofl 0070  
             ??_Lcd_Init 0022    Lcd_WriteString@config 0021               __stringtab 0800  
 readTemperature@voltage 0058                  ___fldiv 0380        Lcd_WriteChar@data 0079  
                ___flmul 0517                  ___fltol 0003         ?_readTemperature 0054  
           ?_Lcd_Command 0079                  __ptext1 0DFE                  __ptext2 0CCA  
                __ptext3 0F5F                  __ptext4 0517                  __ptext5 0D7F  
                __ptext6 0380                  __ptext7 0CBF                  __ptext8 0CE1  
                __ptext9 0CD5                  _initADC 0CD5                  _readADC 0CCA  
                _initRPM 0CBF                  _initPWM 0CE1               ??___xxtofl 0074  
                main@lcd 0068     end_of_initialization 07FC         Lcd_SetCursor@row 0020  
            _PulseEnable 0DCC                _PORTBbits 0006            ___xxtofl@sign 0078  
              _TRISBbits 0086              ___fldiv@grs 0034              ___fldiv@rem 002D  
            ___flmul@grs 0049               main@pulses 0062        ??_Lcd_WriteString 0020  
              _Lcd_Clear 0D03           __end_of_SetBit 0DCC           __end_of___flge 0F5F  
              SetBit@pin 0072      start_initialization 07F0            ??_countPulses 0072  
               ??_SetBit 0074               ?_Lcd_Clear 0070                 ??___flge 0078  
    Lcd_SetCursor@config 0024      Lcd_SetCursor@column 0021               init_fetch0 0CF2  
              __Umul8_16 0D7F              __pdataBANK1 00A0        Lcd_Command@config 007C  
              ___fldiv@a 0020                ___fldiv@b 0024                ___flmul@a 003E  
              ___flmul@b 003A      Lcd_WriteChar@config 007C                ___latbits 0002  
          __pcstackBANK0 0020            _Lcd_SetCursor 0D39      __end_of_countPulses 0D7F  
               ?___fldiv 0020                 ?___flmul 003A                 ?___fltol 0054  
             ?__Umul8_16 0070                __pstrings 0800                 ?_initADC 0070  
               ?_readADC 0070            _Lcd_WriteChar 025F                 ?_initRPM 0070  
               ?_initPWM 0070  readTemperature@adcValue 005C           ?_Lcd_SetCursor 0020  
           ?_PulseEnable 0070              ??_Lcd_Clear 0020          Lcd_Clear@config 007D  
              main@F1466 00A0               _ADCON0bits 001F              __stringbase 0805  
         ?_Lcd_WriteChar 0079                 _Lcd_Init 0E62          _Lcd_WriteString 0D17  
            _countPulses 0D5C    countPulses@pulseCount 0072  countPulses@currentState 0075  
            ??__Umul8_16 0072       __end_of__stringtab 0806                 ___xxtofl 0F5F  
        ??_Lcd_SetCursor 0022                 __ptext10 0D5C                 __ptext11 0003  
               __ptext20 0DA2                 __ptext12 0ECC                 __ptext13 0D17  
               __ptext14 025F                 __ptext15 0D39                 __ptext16 0E62  
               __ptext17 0D03                 __ptext18 013F                 __ptext19 0DCC  
        ??_Lcd_WriteChar 007A          main@temperature 0064  __end_of_Lcd_WriteString 0D39  
             _INTCONbits 000B                 init_ram0 0CF6        ??_readTemperature 007E  
              stringcode 0800            ??_Lcd_Command 007A           Lcd_Command@cmd 0079  
 __Umul8_16@multiplicand 0070                 stringdir 0800                 stringtab 0800  
   __Umul8_16@multiplier 0078        __Umul8_16@product 0074  
