Microchip MPLAB XC8 Compiler V2.45

Linker command line:

-W-3 \
  --edf=/Users/rcaratti/.mchp_packs/Microchip/PIC16Fxxx_DFP/1.6.156/xc8/pic/dat/20231012211500_en.msgs \
  -cn -h+dist/default/production/PIC16F887_cooler_rpm.X.production.sym \
  --cmf=dist/default/production/PIC16F887_cooler_rpm.X.production.cmf -z \
  -Q16F887 -o/tmp/xcLzfUEz4/driver_tmp_3.o --defsym=__MPLAB_BUILD=1 \
  --fixupoverflow=error \
  -Mdist/default/production/PIC16F887_cooler_rpm.X.production.map \
  --md=/tmp/xcLzfUEz4/driver_tmp_0.dat -E1 -ver=XC8 Compiler --acfsm=1493 \
  -ACODE=00h-07FFhx4 -ASTRCODE=00h-01FFFh -ASTRING=00h-0FFhx32 \
  -ACONST=00h-0FFhx32 -AENTRY=00h-0FFhx32 -ACOMMON=070h-07Fh \
  -ABANK0=020h-06Fh -ABANK1=0A0h-0EFh -ABANK2=0110h-016Fh \
  -ABANK3=0190h-01EFh -ARAM=020h-06Fh,0A0h-0EFh,0110h-016Fh,0190h-01EFh \
  -AABS1=020h-07Fh,0A0h-0EFh,0110h-016Fh,0190h-01EFh -ASFR0=00h-01Fh \
  -ASFR1=080h-09Fh -ASFR2=0100h-010Fh -ASFR3=0180h-018Fh \
  -ACONFIG=02007h-02008h -DCONFIG=2 -AIDLOC=02000h-02003h -DIDLOC=2 \
  -AEEDATA=00h-0FFh/02100h -peeprom_data=EEDATA -DEEDATA=2 -DCODE=2 \
  -DSTRCODE=2 -DSTRING=2 -DCONST=2 -DENTRY=2 \
  -preset_vec=00h,intentry,init,end_init -ppowerup=CODE -pcinit=CODE \
  -pfunctab=ENTRY -k /tmp/xcLzfUEz4/driver_tmp_17.o \
  dist/default/production/PIC16F887_cooler_rpm.X.production.o 

Object code version is 3.11

Machine type is 16F887



                Name                               Link     Load   Length Selector   Space Scale
/tmp/xcLzfUEz4/driver_tmp_17.o
                end_init                              0        0        3        0       0
                config                             2007     2007        1        0       4
dist/default/production/PIC16F887_cooler_rpm.X.production.o
                cinit                               7E3      7E3       1D      FC6       0
                config                             2007     2007        1        0       4
                text27                                3        3       2A        0       0
                text26                              C53      C53       32     18A6       0
                text25                              132      132      120      264       0
                text24                              B58      B58       14     16B0       0
                text23                              DA1      DA1       6B     1B42       0
                text22                              BC3      BC3       23     1786       0
                text21                              252      252      121      4A4       0
                text20                              C2D      C2D       26     185A       0
                text19                              E0C      E0C       93     1C18       0
                text18                              BA2      BA2       21     1744       0
                text17                              C09      C09       24     1812       0
                text16                              B2F      B2F        C     165E       0
                text15                              B3B      B3B        C     1676       0
                text14                              B19      B19        B     1632       0
                text13                              373      373      197      6E6       0
                text12                              BE6      BE6       23     17CC       0
                text11                              50A      50A      2D9      A14       0
                text10                              E9F      E9F       A1     1D3E       0
                text9                               B24      B24        B     1648       0
                text8                               D3D      D3D       64     1A7A       0
                text7                               CB7      CB7       3C     196E       0
                text6                               C85      C85       32     190A       0
                text5                               B08      B08        1     1610       0
                text4                               CF3      CF3       4A     19E6       0
                text3                               F40      F40       C0     1E80       0
                text2                               B85      B85       1D     170A       0
                text1                               B6C      B6C       19     16D8       0
                maintext                             2D       2D      105       5A       0
                cstackBANK0                          20       20       42       20       1
                cstackCOMMON                         70       70        E       70       1
                cstackBANK1                          C0       C0       1A       A0       1
                clrtext                             B09      B09        8     1612       0
                inittext                            B47      B47       11     168E       0
                dataBANK1                            DA       DA        8       A0       1
                bssBANK1                             A0       A0       20       A0       1
                bssBANK0                             62       62        5       20       1
                strings                             800      800       2C     1000       0
                idataBANK1                          B11      B11        8     1622       0

TOTAL           Name                               Link     Load   Length     Space
        CLASS   CODE           
                end_init                              0        0        3         0
                cinit                               7E3      7E3       1D         0
                text27                                3        3       2A         0
                text26                              C53      C53       32         0
                text25                              132      132      120         0
                text24                              B58      B58       14         0
                text23                              DA1      DA1       6B         0
                text22                              BC3      BC3       23         0
                text21                              252      252      121         0
                text20                              C2D      C2D       26         0
                text19                              E0C      E0C       93         0
                text18                              BA2      BA2       21         0
                text17                              C09      C09       24         0
                text16                              B2F      B2F        C         0
                text15                              B3B      B3B        C         0
                text14                              B19      B19        B         0
                text13                              373      373      197         0
                text12                              BE6      BE6       23         0
                text11                              50A      50A      2D9         0
                text10                              E9F      E9F       A1         0
                text9                               B24      B24        B         0
                text8                               D3D      D3D       64         0
                text7                               CB7      CB7       3C         0
                text6                               C85      C85       32         0
                text5                               B08      B08        1         0
                text4                               CF3      CF3       4A         0
                text3                               F40      F40       C0         0
                text2                               B85      B85       1D         0
                text1                               B6C      B6C       19         0
                maintext                             2D       2D      105         0
                clrtext                             B09      B09        8         0
                inittext                            B47      B47       11         0
                idataBANK1                          B11      B11        8         0

        CLASS   STRCODE        

        CLASS   STRING         
                strings                             800      800       2C         0

        CLASS   CONST          

        CLASS   ENTRY          

        CLASS   COMMON         
                cstackCOMMON                         70       70        E         1

        CLASS   BANK0          
                cstackBANK0                          20       20       42         1
                bssBANK0                             62       62        5         1

        CLASS   BANK1          
                cstackBANK1                          C0       C0       1A         1
                dataBANK1                            DA       DA        8         1
                bssBANK1                             A0       A0       20         1

        CLASS   BANK2          

        CLASS   BANK3          

        CLASS   RAM            

        CLASS   ABS1           
                abs_s1                               7E       7E        2         1

        CLASS   SFR0           

        CLASS   SFR1           

        CLASS   SFR2           

        CLASS   SFR3           

        CLASS   CONFIG         
                config                             2007     2007        1         4

        CLASS   IDLOC          

        CLASS   EEDATA         

        CLASS   HEAP           

        CLASS   STACK          



SEGMENTS        Name                           Load    Length   Top    Selector   Space  Class     Delta

                strings                        000800  00002C  00082C      1000       0  STRING      2
                text26                         000C53  000032  000C85      18A6       0  CODE        2
                text6                          000C85  000032  000CB7      190A       0  CODE        2
                text12                         000BE6  000023  000C09      17CC       0  CODE        2
                text17                         000C09  000024  000C2D      1812       0  CODE        2
                text20                         000C2D  000026  000C53      185A       0  CODE        2
                text23                         000DA1  00006B  000E0C      1B42       0  CODE        2
                text19                         000E0C  000093  000E9F      1C18       0  CODE        2
                text10                         000E9F  0000A1  000F40      1D3E       0  CODE        2
                text7                          000CB7  00003C  000CF3      196E       0  CODE        2
                text4                          000CF3  00004A  000D3D      19E6       0  CODE        2
                text8                          000D3D  000064  000DA1      1A7A       0  CODE        2
                text22                         000BC3  000023  000BE6      1786       0  CODE        2
                text14                         000B19  00000B  000B24      1632       0  CODE        2
                text9                          000B24  00000B  000B2F      1648       0  CODE        2
                text16                         000B2F  00000C  000B3B      165E       0  CODE        2
                text5                          000B08  000001  000B09      1610       0  CODE        2
                clrtext                        000B09  000008  000B11      1612       0  CODE        2
                idataBANK1                     000B11  000008  000B19      1622       0  CODE        2
                text1                          000B6C  000019  000B85      16D8       0  CODE        2
                text2                          000B85  00001D  000BA2      170A       0  CODE        2
                text18                         000BA2  000021  000BC3      1744       0  CODE        2
                text15                         000B3B  00000C  000B47      1676       0  CODE        2
                inittext                       000B47  000011  000B58      168E       0  CODE        2
                text24                         000B58  000014  000B6C      16B0       0  CODE        2
                cstackBANK0                    000020  000047  000067        20       1  BANK0       1
                reset_vec                      000000  00002D  00002D         0       0  CODE        2
                cstackCOMMON                   000070  00000E  00007E        70       1  COMMON      1
                cinit                          0007E3  00001D  000800       FC6       0  CODE        2
                bssBANK1                       0000A0  000042  0000E2        A0       1  BANK1       1
                maintext                       00002D  000105  000132        5A       0  CODE        2
                text25                         000132  000120  000252       264       0  CODE        2
                text3                          000F40  0000C0  001000      1E80       0  CODE        2
                text21                         000252  000121  000373       4A4       0  CODE        2
                text11                         00050A  0002D9  0007E3       A14       0  CODE        2
                text13                         000373  000197  00050A       6E6       0  CODE        2


UNUSED ADDRESS RANGES

        Name                Unused          Largest block    Delta
        BANK0            0067-006F              9           1
        BANK1            00E2-00EF              E           1
        BANK2            0110-016F             60           1
        BANK3            0190-01EF             60           1
        CODE             082C-0B07            2DC           2
                         1000-1FFF            800
        CONFIG           2008-2008              1           2
        CONST            082C-0B07            100           2
                         1000-1FFF            100
        EEDATA           2100-21FF            100           2
        ENTRY            082C-0B07            100           2
                         1000-1FFF            100
        IDLOC            2000-2003              4           2
        RAM              0067-006F              9           1
                         00E2-00EF              E
                         0110-016F             60
                         0190-01EF             60
        SFR0             0000-001F             20           1
        SFR1             0080-009F             20           1
        SFR2             0100-010F             10           1
        SFR3             0180-018F             10           1
        STRCODE          082C-0B07            2DC           2
                         1000-1FFF           1000
        STRING           082C-0B07            100           2
                         1000-1FFF            100

                                  Symbol Table

?__Umul8_16              cstackCOMMON 0070
?___fldiv                cstackBANK0  0020
?___flmul                cstackBANK0  003A
?___lwdiv                cstackCOMMON 0070
?___lwmod                cstackCOMMON 0070
?___wmul                 cstackCOMMON 0070
?___xxtofl               cstackCOMMON 0070
?_countPulses            cstackCOMMON 0070
?_readADC                cstackCOMMON 0070
?_readTemperature        cstackBANK0  0054
?_sprintf                cstackBANK0  0029
?_vfprintf               cstackCOMMON 007C
Lcd_Clear@config         cstackCOMMON 007D
Lcd_Command@cmd          cstackCOMMON 0079
Lcd_Command@config       cstackCOMMON 007C
Lcd_Init@config          cstackBANK0  0024
Lcd_SetCursor@address    cstackBANK0  0024
Lcd_SetCursor@column     cstackBANK0  0021
Lcd_SetCursor@config     cstackBANK0  0025
Lcd_SetCursor@row        cstackBANK0  0020
Lcd_WriteChar@config     cstackCOMMON 007C
Lcd_WriteChar@data       cstackCOMMON 0079
Lcd_WriteString@config   cstackCOMMON 007D
Lcd_WriteString@str      cstackBANK0  0020
PulseEnable@config       cstackCOMMON 0078
SetBit@pin               cstackCOMMON 0072
SetBit@port              cstackCOMMON 0070
SetBit@value             cstackCOMMON 0073
_ADCON0                  (abs)        001F
_ADCON0bits              (abs)        001F
_ADCON1                  (abs)        009F
_ADRESH                  (abs)        001E
_ADRESL                  (abs)        009E
_ANSEL                   (abs)        0188
_ANSELH                  (abs)        0189
_CCP1CON                 (abs)        0017
_CCPR1L                  (abs)        0015
_INTCONbits              (abs)        000B
_Lcd_Clear               text24       0B58
_Lcd_Command             text25       0132
_Lcd_Init                text23       0DA1
_Lcd_SetCursor           text22       0BC3
_Lcd_WriteChar           text21       0252
_Lcd_WriteString         text20       0C2D
_OPTION_REGbits          (abs)        0081
_PORTBbits               (abs)        0006
_PORTD                   (abs)        0008
_PR2                     (abs)        0092
_PulseEnable             text26       0C53
_SetBit                  text27       0003
_T2CON                   (abs)        0012
_TMR0                    (abs)        0001
_TRISBbits               (abs)        0086
_TRISD                   (abs)        0088
__H__absolute__          __absolute__ 0000
__Habs1                  abs1         0000
__Hbank0                 bank0        0000
__Hbank1                 bank1        0000
__Hbank2                 bank2        0000
__Hbank3                 bank3        0000
__HbssBANK0              bssBANK0     0000
__HbssBANK1              bssBANK1     0000
__Hcinit                 cinit        0800
__Hclrtext               clrtext      0000
__Hcode                  code         0000
__Hcommon                common       0000
__Hconfig                config       2008
__HcstackBANK0           cstackBANK0  0000
__HcstackBANK1           cstackBANK1  0000
__HcstackCOMMON          cstackCOMMON 0000
__HdataBANK1             dataBANK1    0000
__Heeprom_data           eeprom_data  0000
__Hend_init              end_init     0003
__Hfunctab               functab      0000
__Hheap                  heap         0000
__HidataBANK1            idataBANK1   0000
__Hinit                  init         0000
__Hinittext              inittext     0000
__Hintentry              intentry     0000
__Hmaintext              maintext     0000
__Hpowerup               powerup      0000
__Hram                   ram          0000
__Hreset_vec             reset_vec    0000
__Hsfr0                  sfr0         0000
__Hsfr1                  sfr1         0000
__Hsfr2                  sfr2         0000
__Hsfr3                  sfr3         0000
__Hspace_0               (abs)        1000
__Hspace_1               (abs)        00E2
__Hspace_2               (abs)        0000
__Hspace_3               (abs)        0000
__Hspace_4               (abs)        400F
__Hstack                 stack        0000
__Hstrings               strings      0000
__Htext                  text         0000
__L__absolute__          __absolute__ 0000
__Labs1                  abs1         0000
__Lbank0                 bank0        0000
__Lbank1                 bank1        0000
__Lbank2                 bank2        0000
__Lbank3                 bank3        0000
__LbssBANK0              bssBANK0     0000
__LbssBANK1              bssBANK1     0000
__Lcinit                 cinit        07E3
__Lclrtext               clrtext      0000
__Lcode                  code         0000
__Lcommon                common       0000
__Lconfig                config       0000
__LcstackBANK0           cstackBANK0  0000
__LcstackBANK1           cstackBANK1  0000
__LcstackCOMMON          cstackCOMMON 0000
__LdataBANK1             dataBANK1    0000
__Leeprom_data           eeprom_data  0000
__Lend_init              end_init     0000
__Lfunctab               functab      0000
__Lheap                  heap         0000
__LidataBANK1            idataBANK1   0000
__Linit                  init         0000
__Linittext              inittext     0000
__Lintentry              intentry     0000
__Lmaintext              maintext     0000
__Lpowerup               powerup      0000
__Lram                   ram          0000
__Lreset_vec             reset_vec    0000
__Lsfr0                  sfr0         0000
__Lsfr1                  sfr1         0000
__Lsfr2                  sfr2         0000
__Lsfr3                  sfr3         0000
__Lspace_0               (abs)        0000
__Lspace_1               (abs)        0000
__Lspace_2               (abs)        0000
__Lspace_3               (abs)        0000
__Lspace_4               (abs)        0000
__Lstack                 stack        0000
__Lstrings               strings      0000
__Ltext                  text         0000
__S0                     (abs)        1000
__S1                     (abs)        00E2
__S3                     (abs)        0000
__Umul8_16               text12       0BE6
__Umul8_16@multiplicand  cstackCOMMON 0070
__Umul8_16@multiplier    cstackCOMMON 0078
__Umul8_16@product       cstackCOMMON 0074
__Umul8_16@word_mpld     cstackCOMMON 0076
___fldiv                 text13       0373
___fldiv@a               cstackBANK0  0020
___fldiv@aexp            cstackBANK0  0039
___fldiv@b               cstackBANK0  0024
___fldiv@bexp            cstackBANK0  0038
___fldiv@grs             cstackBANK0  0034
___fldiv@new_exp         cstackBANK0  0032
___fldiv@rem             cstackBANK0  002D
___fldiv@sign            cstackBANK0  0031
___flge                  text19       0E0C
___flge@ff1              cstackCOMMON 0070
___flge@ff2              cstackCOMMON 0074
___flmul                 text11       050A
___flmul@a               cstackBANK0  003E
___flmul@aexp            cstackBANK0  0048
___flmul@b               cstackBANK0  003A
___flmul@bexp            cstackBANK0  004D
___flmul@grs             cstackBANK0  0049
___flmul@prod            cstackBANK0  004E
___flmul@sign            cstackBANK0  0047
___flmul@temp            cstackBANK0  0052
___heap_hi               (abs)        0000
___heap_lo               (abs)        0000
___int_sp                stack        0000
___int_stack_hi          stack        0000
___int_stack_lo          stack        0000
___latbits               (abs)        0002
___lwdiv                 text7        0CB7
___lwdiv@counter         cstackCOMMON 0077
___lwdiv@dividend        cstackCOMMON 0072
___lwdiv@divisor         cstackCOMMON 0070
___lwdiv@quotient        cstackCOMMON 0075
___lwmod                 text6        0C85
___lwmod@counter         cstackCOMMON 0075
___lwmod@dividend        cstackCOMMON 0072
___lwmod@divisor         cstackCOMMON 0070
___sp                    stack        0000
___stack_hi              stack        0000
___stack_lo              stack        0000
___stackhi               (abs)        0000
___stacklo               (abs)        0000
___wmul                  text18       0BA2
___wmul@multiplicand     cstackCOMMON 0072
___wmul@multiplier       cstackCOMMON 0070
___wmul@product          cstackCOMMON 0074
___xxtofl                text10       0E9F
___xxtofl@arg            cstackCOMMON 007A
___xxtofl@exp            cstackCOMMON 0079
___xxtofl@sign           cstackCOMMON 0078
___xxtofl@val            cstackCOMMON 0070
__end_of_Lcd_Clear       text24       0B6C
__end_of_Lcd_Command     text25       0252
__end_of_Lcd_Init        text23       0E0C
__end_of_Lcd_SetCursor   text22       0BE6
__end_of_Lcd_WriteChar   text21       0373
__end_of_Lcd_WriteString text20       0C53
__end_of_PulseEnable     text26       0C85
__end_of_SetBit          text27       002D
__end_of__Umul8_16       text12       0C09
__end_of___fldiv         text13       050A
__end_of___flge          text19       0E9F
__end_of___flmul         text11       07E3
__end_of___lwdiv         text7        0CF3
__end_of___lwmod         text6        0CB7
__end_of___wmul          text18       0BC3
__end_of___xxtofl        text10       0F40
__end_of__initialization cinit        07FC
__end_of__stringtab      strings      0810
__end_of_countPulses     text17       0C2D
__end_of_fputc           text4        0D3D
__end_of_initADC         text16       0B3B
__end_of_initPWM         text15       0B47
__end_of_initRPM         text14       0B24
__end_of_main            maintext     0132
__end_of_putch           text5        0B09
__end_of_readADC         text9        0B2F
__end_of_readTemperature text8        0DA1
__end_of_sprintf         text1        0B85
__end_of_vfpfcnvrt       text3        1000
__end_of_vfprintf        text2        0BA2
__initialization         cinit        07E3
__pbssBANK0              bssBANK0     0062
__pbssBANK1              bssBANK1     00A0
__pcstackBANK0           cstackBANK0  0020
__pcstackBANK1           cstackBANK1  00C0
__pcstackCOMMON          cstackCOMMON 0070
__pdataBANK1             dataBANK1    00DA
__pidataBANK1            idataBANK1   0B11
__pmaintext              maintext     002D
__pstrings               strings      0800
__ptext1                 text1        0B6C
__ptext10                text10       0E9F
__ptext11                text11       050A
__ptext12                text12       0BE6
__ptext13                text13       0373
__ptext14                text14       0B19
__ptext15                text15       0B3B
__ptext16                text16       0B2F
__ptext17                text17       0C09
__ptext18                text18       0BA2
__ptext19                text19       0E0C
__ptext2                 text2        0B85
__ptext20                text20       0C2D
__ptext21                text21       0252
__ptext22                text22       0BC3
__ptext23                text23       0DA1
__ptext24                text24       0B58
__ptext25                text25       0132
__ptext26                text26       0C53
__ptext27                text27       0003
__ptext3                 text3        0F40
__ptext4                 text4        0CF3
__ptext5                 text5        0B08
__ptext6                 text6        0C85
__ptext7                 text7        0CB7
__ptext8                 text8        0D3D
__ptext9                 text9        0B24
__stringbase             strings      080F
__stringtab              strings      0800
_countPulses             text17       0C09
_dbuf                    bssBANK1     00A0
_flags                   bssBANK0     0066
_fputc                   text4        0CF3
_initADC                 text16       0B2F
_initPWM                 text15       0B3B
_initRPM                 text14       0B19
_main                    maintext     002D
_prec                    bssBANK0     0064
_putch                   text5        0B08
_readADC                 text9        0B24
_readTemperature         text8        0D3D
_sprintf                 text1        0B6C
_vfpfcnvrt               text3        0F40
_vfprintf                text2        0B85
_width                   bssBANK0     0062
btemp                    (abs)        007E
clear_ram0               clrtext      0B09
countPulses@currentState cstackCOMMON 0075
countPulses@lastState    cstackCOMMON 0074
countPulses@pulseCount   cstackCOMMON 0072
end_of_initialization    cinit        07FC
fputc@c                  cstackCOMMON 0070
fputc@fp                 cstackCOMMON 0072
init_fetch0              inittext     0B47
init_ram0                inittext     0B4B
intlevel0                functab      0000
intlevel1                functab      0000
intlevel2                functab      0000
intlevel3                functab      0000
intlevel4                functab      0000
intlevel5                functab      0000
main@F1787               dataBANK1    00DA
main@fanRPM              cstackBANK1  00CC
main@lcd                 cstackBANK1  00D2
main@pulses              cstackBANK1  00CA
main@rpm                 cstackBANK1  00C0
main@temperature         cstackBANK1  00CE
readTemperature@adcValue cstackBANK0  005C
readTemperature@voltage  cstackBANK0  0058
reset_vec                reset_vec    0000
sprintf@ap               cstackBANK0  002D
sprintf@f                cstackBANK0  002F
sprintf@fmt              cstackBANK0  0029
sprintf@s                cstackBANK0  002E
start                    init         0000
start_initialization     cinit        07E3
vfpfcnvrt@ap             cstackCOMMON 0079
vfpfcnvrt@c              cstackBANK0  0026
vfpfcnvrt@convarg        cstackBANK0  0021
vfpfcnvrt@cp             cstackBANK0  0025
vfpfcnvrt@fmt            cstackCOMMON 0078
vfpfcnvrt@fp             cstackBANK0  0020
vfprintf@ap              cstackCOMMON 007D
vfprintf@cfmt            cstackBANK0  0028
vfprintf@fmt             cstackCOMMON 007C
vfprintf@fp              cstackBANK0  0027
wtemp0                   (abs)        007E


MODULE INFORMATION

Module		Function		Class		Link	Load	Size
/Applications/microchip/xc8/v2.45/pic/sources/c99/common/Umul8_16.c
		__Umul8_16     		CODE           	0BE6	0000	35

/Applications/microchip/xc8/v2.45/pic/sources/c99/common/Umul8_16.c estimated size: 35

/Applications/microchip/xc8/v2.45/pic/sources/c99/common/sprcmul.c
		___flmul       		CODE           	050A	0000	729

/Applications/microchip/xc8/v2.45/pic/sources/c99/common/sprcmul.c estimated size: 729

/Applications/microchip/xc8/v2.45/pic/sources/c99/common/nf_fputc.c
		_fputc         		CODE           	0CF3	0000	74

/Applications/microchip/xc8/v2.45/pic/sources/c99/common/nf_fputc.c estimated size: 74

/Applications/microchip/xc8/v2.45/pic/sources/c99/common/sprcdiv.c
		___fldiv       		CODE           	0373	0000	407

/Applications/microchip/xc8/v2.45/pic/sources/c99/common/sprcdiv.c estimated size: 407

/Applications/microchip/xc8/v2.45/pic/sources/c99/common/lwmod.c
		___lwmod       		CODE           	0C85	0000	50

/Applications/microchip/xc8/v2.45/pic/sources/c99/common/lwmod.c estimated size: 50

/Applications/microchip/xc8/v2.45/pic/sources/c99/common/Umul16.c
		___wmul        		CODE           	0BA2	0000	33

/Applications/microchip/xc8/v2.45/pic/sources/c99/common/Umul16.c estimated size: 33

/Applications/microchip/xc8/v2.45/pic/sources/c99/common/nf_sprintf.c
		_sprintf       		CODE           	0B6C	0000	25

/Applications/microchip/xc8/v2.45/pic/sources/c99/common/nf_sprintf.c estimated size: 25

/Applications/microchip/xc8/v2.45/pic/sources/c99/common/putch.c
		_putch         		CODE           	0B08	0000	1

/Applications/microchip/xc8/v2.45/pic/sources/c99/common/putch.c estimated size: 1

newmain.c
		_countPulses   		CODE           	0C09	0000	36
		_main          		CODE           	002D	0000	261
		_initRPM       		CODE           	0B19	0000	11
		_initPWM       		CODE           	0B3B	0000	12
		_initADC       		CODE           	0B2F	0000	12
		_readADC       		CODE           	0B24	0000	11
		_readTemperature		CODE           	0D3D	0000	100

newmain.c estimated size: 443

../../pic16flcd.c
		_Lcd_WriteChar 		CODE           	0252	0000	289
		_Lcd_Init      		CODE           	0DA1	0000	107
		_Lcd_Command   		CODE           	0132	0000	288
		_Lcd_SetCursor 		CODE           	0BC3	0000	35
		_Lcd_WriteString		CODE           	0C2D	0000	38
		_Lcd_Clear     		CODE           	0B58	0000	20
		_SetBit        		CODE           	0003	0000	42
		_PulseEnable   		CODE           	0C53	0000	50

../../pic16flcd.c estimated size: 869

/Applications/microchip/xc8/v2.45/pic/sources/c99/common/lwdiv.c
		___lwdiv       		CODE           	0CB7	0000	60

/Applications/microchip/xc8/v2.45/pic/sources/c99/common/lwdiv.c estimated size: 60

/Applications/microchip/xc8/v2.45/pic/sources/c99/common/xxtofl.c
		___xxtofl      		CODE           	0E9F	0000	161

/Applications/microchip/xc8/v2.45/pic/sources/c99/common/xxtofl.c estimated size: 161

/Applications/microchip/xc8/v2.45/pic/sources/c99/common/flge.c
		___flge        		CODE           	0E0C	0000	147

/Applications/microchip/xc8/v2.45/pic/sources/c99/common/flge.c estimated size: 147

shared
		__stringtab    		STRING         	0800	0000	16
		__initialization		CODE           	07E3	0000	25

shared estimated size: 41

/Applications/microchip/xc8/v2.45/pic/sources/c99/common/doprnt.c
		_vfpfcnvrt     		CODE           	0F40	0000	192
		_vfprintf      		CODE           	0B85	0000	29

/Applications/microchip/xc8/v2.45/pic/sources/c99/common/doprnt.c estimated size: 221

