

Microchip MPLAB XC8 Assembler V2.45 build 20230818022343 
                                                                                               Sat Jan  6 21:04:08 2024

Microchip MPLAB XC8 C Compiler v2.45 (Free license) build 20230818022343 Og1 
     1                           	processor	16F887
     2                           	pagewidth 120
     3                           	opt	flic
     4                           	psect	idataBANK1,global,class=CODE,delta=2,noexec
     5                           	psect	strings,global,class=STRING,delta=2,noexec
     6                           	psect	cinit,global,class=CODE,merge=1,delta=2
     7                           	psect	bssBANK0,global,class=BANK0,space=1,delta=1,noexec
     8                           	psect	bssBANK1,global,class=BANK1,space=1,delta=1,noexec
     9                           	psect	dataBANK1,global,class=BANK1,space=1,delta=1,noexec
    10                           	psect	bssBANK3,global,class=BANK3,space=1,delta=1,noexec
    11                           	psect	inittext,global,class=CODE,delta=2
    12                           	psect	clrtext,global,class=CODE,delta=2
    13                           	psect	cstackBANK1,global,class=BANK1,space=1,delta=1,noexec
    14                           	psect	cstackCOMMON,global,class=COMMON,space=1,delta=1,noexec
    15                           	psect	cstackBANK0,global,class=BANK0,space=1,delta=1,noexec
    16                           	psect	maintext,global,class=CODE,split=1,delta=2
    17                           	psect	text1,local,class=CODE,merge=1,delta=2,group=3
    18                           	psect	text2,local,class=CODE,merge=1,delta=2,group=1
    19                           	psect	text3,local,class=CODE,merge=1,delta=2,group=1
    20                           	psect	text4,local,class=CODE,merge=1,delta=2,group=1
    21                           	psect	text5,local,class=CODE,merge=1,delta=2,group=1
    22                           	psect	text6,local,class=CODE,merge=1,delta=2,group=3
    23                           	psect	text7,local,class=CODE,merge=1,delta=2,group=3
    24                           	psect	text8,local,class=CODE,merge=1,delta=2,group=3
    25                           	psect	text9,local,class=CODE,merge=1,delta=2,group=2
    26                           	psect	text10,local,class=CODE,merge=1,delta=2,group=2
    27                           	psect	text11,local,class=CODE,merge=1,delta=2,group=1
    28                           	psect	text12,local,class=CODE,merge=1,delta=2,group=2
    29                           	psect	text13,local,class=CODE,merge=1,delta=2
    30                           	psect	text14,local,class=CODE,merge=1,delta=2
    31                           	psect	text15,local,class=CODE,merge=1,delta=2,group=2
    32                           	psect	text16,local,class=CODE,merge=1,delta=2,group=2
    33                           	psect	text17,local,class=CODE,merge=1,delta=2,group=2
    34                           	psect	text18,local,class=CODE,merge=1,delta=2,group=2
    35                           	psect	text19,local,class=CODE,merge=1,delta=2
    36                           	psect	text20,local,class=CODE,merge=1,delta=2
    37                           	psect	text21,local,class=CODE,merge=1,delta=2
    38                           	psect	text22,local,class=CODE,merge=1,delta=2
    39                           	psect	text23,local,class=CODE,merge=1,delta=2,group=2
    40                           	psect	text24,local,class=CODE,merge=1,delta=2,group=2
    41                           	psect	text25,local,class=CODE,merge=1,delta=2,group=2
    42                           	psect	text26,local,class=CODE,merge=1,delta=2
    43                           	psect	text27,local,class=CODE,merge=1,inline,delta=2
    44                           	psect	text28,local,class=CODE,merge=1,delta=2
    45                           	psect	text29,local,class=CODE,merge=1,delta=2
    46                           	psect	text30,local,class=CODE,merge=1,delta=2
    47                           	psect	text31,local,class=CODE,merge=1,delta=2
    48                           	psect	text32,local,class=CODE,merge=1,delta=2
    49                           	psect	text33,local,class=CODE,merge=1,delta=2
    50                           	psect	text34,local,class=CODE,merge=1,delta=2
    51                           	psect	text35,local,class=CODE,merge=1,delta=2
    52                           	psect	config,global,abs,ovrld,class=CONFIG,space=4,delta=2,noexec
    53                           	dabs	1,0x7E,2
    54     0000                     
    55                           ; Generated 12/10/2023 GMT
    56                           ; 
    57                           ; Copyright © 2023, Microchip Technology Inc. and its subsidiaries ("Microchip")
    58                           ; All rights reserved.
    59                           ; 
    60                           ; This software is developed by Microchip Technology Inc. and its subsidiaries ("Microch
      +                          ip").
    61                           ; 
    62                           ; Redistribution and use in source and binary forms, with or without modification, are
    63                           ; permitted provided that the following conditions are met:
    64                           ; 
    65                           ;     1. Redistributions of source code must retain the above copyright notice, this lis
      +                          t of
    66                           ;        conditions and the following disclaimer.
    67                           ; 
    68                           ;     2. Redistributions in binary form must reproduce the above copyright notice, this 
      +                          list
    69                           ;        of conditions and the following disclaimer in the documentation and/or other
    70                           ;        materials provided with the distribution. Publication is not required when
    71                           ;        this file is used in an embedded application.
    72                           ; 
    73                           ;     3. Microchip's name may not be used to endorse or promote products derived from th
      +                          is
    74                           ;        software without specific prior written permission.
    75                           ; 
    76                           ; THIS SOFTWARE IS PROVIDED BY MICROCHIP "AS IS" AND ANY EXPRESS OR IMPLIED WARRANTIES,
    77                           ; INCLUDING, BUT NOT LIMITED TO, THE IMPLIED WARRANTIES OF MERCHANTABILITY AND FITNESS F
      +                          OR
    78                           ; PURPOSE ARE DISCLAIMED.  IN NO EVENT SHALL MICROCHIP BE LIABLE FOR ANY DIRECT, INDIREC
      +                          T,
    79                           ; INCIDENTAL, SPECIAL, EXEMPLARY, OR CONSEQUENTIAL DAMAGES (INCLUDING BUT NOT LIMITED TO
    80                           ; PROCUREMENT OF SUBSTITUTE GOODS OR SERVICES; LOSS OF USE, DATA OR PROFITS; OR BUSINESS
    81                           ; INTERRUPTION) HOWSOEVER CAUSED AND ON ANY THEORY OF LIABILITY, WHETHER IN CONTRACT, ST
      +                          RICT
    82                           ; LIABILITY, OR TORT (INCLUDING NEGLIGENCE OR OTHERWISE) ARISING IN ANY WAY OUT OF THE U
      +                          SE OF
    83                           ; THIS SOFTWARE, EVEN IF ADVISED OF THE POSSIBILITY OF SUCH DAMAGE.
    84                           ; 
    85                           ; 
    86                           ; Code-generator required, PIC16F887 Definitions
    87                           ; 
    88                           ; SFR Addresses
    89     0000                     	;# 
    90     0001                     	;# 
    91     0002                     	;# 
    92     0003                     	;# 
    93     0004                     	;# 
    94     0005                     	;# 
    95     0006                     	;# 
    96     0007                     	;# 
    97     0008                     	;# 
    98     0009                     	;# 
    99     000A                     	;# 
   100     000B                     	;# 
   101     000C                     	;# 
   102     000D                     	;# 
   103     000E                     	;# 
   104     000E                     	;# 
   105     000F                     	;# 
   106     0010                     	;# 
   107     0011                     	;# 
   108     0012                     	;# 
   109     0013                     	;# 
   110     0014                     	;# 
   111     0015                     	;# 
   112     0015                     	;# 
   113     0016                     	;# 
   114     0017                     	;# 
   115     0018                     	;# 
   116     0019                     	;# 
   117     001A                     	;# 
   118     001B                     	;# 
   119     001B                     	;# 
   120     001C                     	;# 
   121     001D                     	;# 
   122     001E                     	;# 
   123     001F                     	;# 
   124     0081                     	;# 
   125     0085                     	;# 
   126     0086                     	;# 
   127     0087                     	;# 
   128     0088                     	;# 
   129     0089                     	;# 
   130     008C                     	;# 
   131     008D                     	;# 
   132     008E                     	;# 
   133     008F                     	;# 
   134     0090                     	;# 
   135     0091                     	;# 
   136     0092                     	;# 
   137     0093                     	;# 
   138     0093                     	;# 
   139     0093                     	;# 
   140     0094                     	;# 
   141     0095                     	;# 
   142     0096                     	;# 
   143     0097                     	;# 
   144     0098                     	;# 
   145     0099                     	;# 
   146     009A                     	;# 
   147     009B                     	;# 
   148     009C                     	;# 
   149     009D                     	;# 
   150     009E                     	;# 
   151     009F                     	;# 
   152     0105                     	;# 
   153     0107                     	;# 
   154     0108                     	;# 
   155     0109                     	;# 
   156     010C                     	;# 
   157     010C                     	;# 
   158     010D                     	;# 
   159     010E                     	;# 
   160     010F                     	;# 
   161     0185                     	;# 
   162     0187                     	;# 
   163     0188                     	;# 
   164     0189                     	;# 
   165     018C                     	;# 
   166     018D                     	;# 
   167     0000                     	;# 
   168     0001                     	;# 
   169     0002                     	;# 
   170     0003                     	;# 
   171     0004                     	;# 
   172     0005                     	;# 
   173     0006                     	;# 
   174     0007                     	;# 
   175     0008                     	;# 
   176     0009                     	;# 
   177     000A                     	;# 
   178     000B                     	;# 
   179     000C                     	;# 
   180     000D                     	;# 
   181     000E                     	;# 
   182     000E                     	;# 
   183     000F                     	;# 
   184     0010                     	;# 
   185     0011                     	;# 
   186     0012                     	;# 
   187     0013                     	;# 
   188     0014                     	;# 
   189     0015                     	;# 
   190     0015                     	;# 
   191     0016                     	;# 
   192     0017                     	;# 
   193     0018                     	;# 
   194     0019                     	;# 
   195     001A                     	;# 
   196     001B                     	;# 
   197     001B                     	;# 
   198     001C                     	;# 
   199     001D                     	;# 
   200     001E                     	;# 
   201     001F                     	;# 
   202     0081                     	;# 
   203     0085                     	;# 
   204     0086                     	;# 
   205     0087                     	;# 
   206     0088                     	;# 
   207     0089                     	;# 
   208     008C                     	;# 
   209     008D                     	;# 
   210     008E                     	;# 
   211     008F                     	;# 
   212     0090                     	;# 
   213     0091                     	;# 
   214     0092                     	;# 
   215     0093                     	;# 
   216     0093                     	;# 
   217     0093                     	;# 
   218     0094                     	;# 
   219     0095                     	;# 
   220     0096                     	;# 
   221     0097                     	;# 
   222     0098                     	;# 
   223     0099                     	;# 
   224     009A                     	;# 
   225     009B                     	;# 
   226     009C                     	;# 
   227     009D                     	;# 
   228     009E                     	;# 
   229     009F                     	;# 
   230     0105                     	;# 
   231     0107                     	;# 
   232     0108                     	;# 
   233     0109                     	;# 
   234     010C                     	;# 
   235     010C                     	;# 
   236     010D                     	;# 
   237     010E                     	;# 
   238     010F                     	;# 
   239     0185                     	;# 
   240     0187                     	;# 
   241     0188                     	;# 
   242     0189                     	;# 
   243     018C                     	;# 
   244     018D                     	;# 
   245     0000                     	;# 
   246     0001                     	;# 
   247     0002                     	;# 
   248     0003                     	;# 
   249     0004                     	;# 
   250     0005                     	;# 
   251     0006                     	;# 
   252     0007                     	;# 
   253     0008                     	;# 
   254     0009                     	;# 
   255     000A                     	;# 
   256     000B                     	;# 
   257     000C                     	;# 
   258     000D                     	;# 
   259     000E                     	;# 
   260     000E                     	;# 
   261     000F                     	;# 
   262     0010                     	;# 
   263     0011                     	;# 
   264     0012                     	;# 
   265     0013                     	;# 
   266     0014                     	;# 
   267     0015                     	;# 
   268     0015                     	;# 
   269     0016                     	;# 
   270     0017                     	;# 
   271     0018                     	;# 
   272     0019                     	;# 
   273     001A                     	;# 
   274     001B                     	;# 
   275     001B                     	;# 
   276     001C                     	;# 
   277     001D                     	;# 
   278     001E                     	;# 
   279     001F                     	;# 
   280     0081                     	;# 
   281     0085                     	;# 
   282     0086                     	;# 
   283     0087                     	;# 
   284     0088                     	;# 
   285     0089                     	;# 
   286     008C                     	;# 
   287     008D                     	;# 
   288     008E                     	;# 
   289     008F                     	;# 
   290     0090                     	;# 
   291     0091                     	;# 
   292     0092                     	;# 
   293     0093                     	;# 
   294     0093                     	;# 
   295     0093                     	;# 
   296     0094                     	;# 
   297     0095                     	;# 
   298     0096                     	;# 
   299     0097                     	;# 
   300     0098                     	;# 
   301     0099                     	;# 
   302     009A                     	;# 
   303     009B                     	;# 
   304     009C                     	;# 
   305     009D                     	;# 
   306     009E                     	;# 
   307     009F                     	;# 
   308     0105                     	;# 
   309     0107                     	;# 
   310     0108                     	;# 
   311     0109                     	;# 
   312     010C                     	;# 
   313     010C                     	;# 
   314     010D                     	;# 
   315     010E                     	;# 
   316     010F                     	;# 
   317     0185                     	;# 
   318     0187                     	;# 
   319     0188                     	;# 
   320     0189                     	;# 
   321     018C                     	;# 
   322     018D                     	;# 
   323                           
   324                           	psect	idataBANK1
   325     0004                     __pidataBANK1:
   326                           
   327                           ;initializer for main@F1788
   328     0004  3408               	retlw	8
   329     0005  3400               	retlw	0
   330     0006  3402               	retlw	2
   331     0007  3403               	retlw	3
   332     0008  3404               	retlw	4
   333     0009  3405               	retlw	5
   334     000A  3406               	retlw	6
   335     000B  3407               	retlw	7
   336                           
   337                           ;initializer for _celsiusChar
   338     000C  3418               	retlw	24
   339     000D  3418               	retlw	24
   340     000E  3400               	retlw	0
   341     000F  340F               	retlw	15
   342     0010  3408               	retlw	8
   343     0011  3408               	retlw	8
   344     0012  3408               	retlw	8
   345     0013  340F               	retlw	15
   346     000B                     _INTCONbits	set	11
   347     0006                     _PORTBbits	set	6
   348     001E                     _ADRESH	set	30
   349     001F                     _ADCON0bits	set	31
   350     001F                     _ADCON0	set	31
   351     0001                     _TMR0	set	1
   352     0015                     _CCPR1L	set	21
   353     0017                     _CCP1CON	set	23
   354     0012                     _T2CON	set	18
   355     0008                     _PORTD	set	8
   356     0088                     _TRISD	set	136
   357     009E                     _ADRESL	set	158
   358     009F                     _ADCON1	set	159
   359     0081                     _OPTION_REGbits	set	129
   360     0086                     _TRISBbits	set	134
   361     0092                     _PR2	set	146
   362     0087                     _TRISC	set	135
   363     008F                     _OSCCON	set	143
   364     0188                     _ANSEL	set	392
   365     0189                     _ANSELH	set	393
   366                           
   367                           	psect	strings
   368     1000                     __pstrings:
   369     1000                     stringtab:
   370     1000                     __stringtab:
   371                           
   372                           ;	String table - string pointers are 1 byte each
   373     1000  1BFF               	btfsc	btemp+1,7
   374     1001  280A               	ljmp	stringcode
   375     1002  1383               	bcf	3,7
   376     1003  187F               	btfsc	btemp+1,0
   377     1004  1783               	bsf	3,7
   378     1005  0800               	movf	0,w
   379     1006  0A84               	incf	4,f
   380     1007  1903               	skipnz
   381     1008  0AFF               	incf	btemp+1,f
   382     1009  0008               	return
   383     100A                     stringcode:
   384     100A                     stringdir:
   385     100A  3010               	movlw	high stringdir
   386     100B  008A               	movwf	10
   387     100C  0804               	movf	4,w
   388     100D  0A84               	incf	4,f
   389     100E  0782               	addwf	2,f
   390     100F                     __stringbase:
   391     100F  3400               	retlw	0
   392     1010                     __end_of__stringtab:
   393     1010                     STR_1:
   394     1010  3443               	retlw	67	;'C'
   395     1011  346F               	retlw	111	;'o'
   396     1012  346F               	retlw	111	;'o'
   397     1013  346C               	retlw	108	;'l'
   398     1014  3465               	retlw	101	;'e'
   399     1015  3472               	retlw	114	;'r'
   400     1016  3420               	retlw	32	;' '
   401     1017  3426               	retlw	38	;'&'
   402     1018  3420               	retlw	32	;' '
   403     1019  344C               	retlw	76	;'L'
   404     101A  344D               	retlw	77	;'M'
   405     101B  3433               	retlw	51	;'3'
   406     101C  3435               	retlw	53	;'5'
   407     101D  3400               	retlw	0
   408     101E                     STR_2:
   409     101E  3452               	retlw	82	;'R'
   410     101F  3450               	retlw	80	;'P'
   411     1020  344D               	retlw	77	;'M'
   412     1021  343A               	retlw	58	;':'
   413     1022  3400               	retlw	0
   414     1023                     STR_4:
   415     1023  3425               	retlw	37	;'%'
   416     1024  3432               	retlw	50	;'2'
   417     1025  3475               	retlw	117	;'u'
   418     1026  3400               	retlw	0
   419     1027                     STR_3:
   420     1027  3425               	retlw	37	;'%'
   421     1028  3434               	retlw	52	;'4'
   422     1029  3475               	retlw	117	;'u'
   423     102A  3400               	retlw	0
   424                           
   425                           	psect	cinit
   426     07DC                     start_initialization:	
   427                           ; #config settings
   428                           
   429     07DC                     __initialization:
   430                           
   431                           ; Initialize objects allocated to BANK1
   432     07DC  1383               	bcf	3,7	;select IRP bank0
   433     07DD  30D9               	movlw	low (__pdataBANK1+16)
   434     07DE  00FD               	movwf	btemp+-1
   435     07DF  3000               	movlw	high __pidataBANK1
   436     07E0  00FE               	movwf	btemp
   437     07E1  3004               	movlw	low __pidataBANK1
   438     07E2  00FF               	movwf	btemp+1
   439     07E3  30C9               	movlw	low __pdataBANK1
   440     07E4  0084               	movwf	4
   441     07E5  160A  118A  2386  120A  118A  	fcall	init_ram0
   442                           
   443                           ; Clear objects allocated to BANK3
   444     07EA  1783               	bsf	3,7	;select IRP bank2
   445     07EB  3090               	movlw	low __pbssBANK3
   446     07EC  0084               	movwf	4
   447     07ED  30B0               	movlw	low (__pbssBANK3+32)
   448     07EE  160A  118A  2343  120A  118A  	fcall	clear_ram0
   449                           
   450                           ; Clear objects allocated to BANK1
   451     07F3  1683               	bsf	3,5	;RP0=1, select bank1
   452     07F4  1303               	bcf	3,6	;RP1=0, select bank1
   453     07F5  01D9               	clrf	__pbssBANK1& (0+127)
   454     07F6  01DA               	clrf	(__pbssBANK1+1)& (0+127)
   455     07F7  01DB               	clrf	(__pbssBANK1+2)& (0+127)
   456     07F8  01DC               	clrf	(__pbssBANK1+3)& (0+127)
   457                           
   458                           ; Clear objects allocated to BANK0
   459     07F9  1283               	bcf	3,5	;RP0=0, select bank0
   460     07FA  1303               	bcf	3,6	;RP1=0, select bank0
   461     07FB  01EF               	clrf	__pbssBANK0& (0+127)
   462     07FC                     end_of_initialization:	
   463                           ;End of C runtime variable initialization code
   464                           
   465     07FC                     __end_of__initialization:
   466     07FC  0183               	clrf	3
   467     07FD  120A  158A  2D75   	ljmp	_main	;jump to C main() function
   468                           
   469                           	psect	bssBANK0
   470     006F                     __pbssBANK0:
   471     006F                     _flags:
   472     006F                     	ds	1
   473                           
   474                           	psect	bssBANK1
   475     00D9                     __pbssBANK1:
   476     00D9                     _width:
   477     00D9                     	ds	2
   478     00DB                     _prec:
   479     00DB                     	ds	2
   480                           
   481                           	psect	dataBANK1
   482     00C9                     __pdataBANK1:
   483     00C9                     main@F1788:
   484     00C9                     	ds	8
   485     00D1                     _celsiusChar:
   486     00D1                     	ds	8
   487                           
   488                           	psect	bssBANK3
   489     0190                     __pbssBANK3:
   490     0190                     _dbuf:
   491     0190                     	ds	32
   492                           
   493                           	psect	inittext
   494     1382                     init_fetch0:	
   495                           ;	Called with low address in FSR and high address in W
   496                           
   497     1382  087E               	movf	btemp,w
   498     1383  008A               	movwf	10
   499     1384  087F               	movf	btemp+1,w
   500     1385  0082               	movwf	2
   501     1386                     init_ram0:	
   502                           ;Called with:
   503                           ;	high address of idata address in btemp 
   504                           ;	low address of idata address in btemp+1 
   505                           ;	low address of data in FSR
   506                           ;	high address + 1 of data in btemp-1
   507                           
   508     1386  160A  118A  2382  160A  118A  	fcall	init_fetch0
   509     138B  0080               	movwf	0
   510     138C  0A84               	incf	4,f
   511     138D  0804               	movf	4,w
   512     138E  067D               	xorwf	btemp+-1,w
   513     138F  1903               	btfsc	3,2
   514     1390  3400               	retlw	0
   515     1391  0AFF               	incf	btemp+1,f
   516     1392  1903               	btfsc	3,2
   517     1393  0AFE               	incf	btemp,f
   518     1394  2B86               	goto	init_ram0
   519                           
   520                           	psect	clrtext
   521     1343                     clear_ram0:	
   522                           ;	Called with FSR containing the base address, and
   523                           ;	W with the last address+1
   524                           
   525     1343  0064               	clrwdt	;clear the watchdog before getting into this loop
   526     1344                     clrloop0:
   527     1344  0180               	clrf	0	;clear RAM location pointed to by FSR
   528     1345  0A84               	incf	4,f	;increment pointer
   529     1346  0604               	xorwf	4,w	;XOR with final address
   530     1347  1903               	btfsc	3,2	;have we reached the end yet?
   531     1348  3400               	retlw	0	;all done for this memory range, return
   532     1349  0604               	xorwf	4,w	;XOR again to restore value
   533     134A  2B44               	goto	clrloop0	;do the next byte
   534                           
   535                           	psect	cstackBANK1
   536     00A0                     __pcstackBANK1:
   537     00A0                     ___fladd@signs:
   538                           
   539                           ; 1 bytes @ 0x0
   540     00A0                     	ds	1
   541     00A1                     ___fladd@aexp:
   542                           
   543                           ; 1 bytes @ 0x1
   544     00A1                     	ds	1
   545     00A2                     ___fladd@bexp:
   546                           
   547                           ; 1 bytes @ 0x2
   548     00A2                     	ds	1
   549     00A3                     ___fladd@grs:
   550                           
   551                           ; 1 bytes @ 0x3
   552     00A3                     	ds	1
   553     00A4                     ??_main:
   554                           
   555                           ; 1 bytes @ 0x4
   556     00A4                     	ds	4
   557     00A8                     main@strTemp:
   558                           
   559                           ; 6 bytes @ 0x8
   560     00A8                     	ds	6
   561     00AE                     main@strRPM:
   562                           
   563                           ; 6 bytes @ 0xE
   564     00AE                     	ds	6
   565     00B4                     main@pulses:
   566                           
   567                           ; 2 bytes @ 0x14
   568     00B4                     	ds	2
   569     00B6                     main@fanRPM:
   570                           
   571                           ; 2 bytes @ 0x16
   572     00B6                     	ds	2
   573     00B8                     main@sum:
   574                           
   575                           ; 4 bytes @ 0x18
   576     00B8                     	ds	4
   577     00BC                     main@i:
   578                           
   579                           ; 1 bytes @ 0x1C
   580     00BC                     	ds	1
   581     00BD                     main@temperature:
   582                           
   583                           ; 4 bytes @ 0x1D
   584     00BD                     	ds	4
   585     00C1                     main@lcd:
   586                           
   587                           ; 8 bytes @ 0x21
   588     00C1                     	ds	8
   589                           
   590                           	psect	cstackCOMMON
   591     0070                     __pcstackCOMMON:
   592     0070                     ?___flge:
   593     0070                     ?_Lcd_Init:	
   594                           ; 1 bit 
   595                           
   596     0070                     ?_Lcd_Clear:	
   597                           ; 1 bytes @ 0x0
   598                           
   599     0070                     ?_putch:	
   600                           ; 1 bytes @ 0x0
   601                           
   602     0070                     ??_putch:	
   603                           ; 1 bytes @ 0x0
   604                           
   605     0070                     ?_initPWM:	
   606                           ; 1 bytes @ 0x0
   607                           
   608     0070                     ??_initPWM:	
   609                           ; 1 bytes @ 0x0
   610                           
   611     0070                     ?_initRPM:	
   612                           ; 1 bytes @ 0x0
   613                           
   614     0070                     ??_initRPM:	
   615                           ; 1 bytes @ 0x0
   616                           
   617     0070                     ?_initADC:	
   618                           ; 1 bytes @ 0x0
   619                           
   620     0070                     ??_initADC:	
   621                           ; 1 bytes @ 0x0
   622                           
   623     0070                     ?_main:	
   624                           ; 1 bytes @ 0x0
   625                           
   626     0070                     ?_SetBit:	
   627                           ; 1 bytes @ 0x0
   628                           
   629     0070                     ?_PulseEnable:	
   630                           ; 1 bytes @ 0x0
   631                           
   632     0070                     ?__Umul8_16:	
   633                           ; 1 bytes @ 0x0
   634                           
   635     0070                     ?_fputc:	
   636                           ; 2 bytes @ 0x0
   637                           
   638     0070                     ?_readADC:	
   639                           ; 2 bytes @ 0x0
   640                           
   641     0070                     ?_countPulses:	
   642                           ; 2 bytes @ 0x0
   643                           
   644     0070                     ?___wmul:	
   645                           ; 2 bytes @ 0x0
   646                           
   647     0070                     ?___lwdiv:	
   648                           ; 2 bytes @ 0x0
   649                           
   650     0070                     ?___lwmod:	
   651                           ; 2 bytes @ 0x0
   652                           
   653     0070                     ?___xxtofl:	
   654                           ; 2 bytes @ 0x0
   655                           
   656     0070                     __Umul8_16@multiplicand:	
   657                           ; 4 bytes @ 0x0
   658                           
   659     0070                     putch@c:	
   660                           ; 1 bytes @ 0x0
   661                           
   662     0070                     SetBit@port:	
   663                           ; 1 bytes @ 0x0
   664                           
   665     0070                     ___wmul@multiplier:	
   666                           ; 2 bytes @ 0x0
   667                           
   668     0070                     ___lwdiv@divisor:	
   669                           ; 2 bytes @ 0x0
   670                           
   671     0070                     ___lwmod@divisor:	
   672                           ; 2 bytes @ 0x0
   673                           
   674     0070                     fputc@c:	
   675                           ; 2 bytes @ 0x0
   676                           
   677     0070                     ___flge@ff1:	
   678                           ; 2 bytes @ 0x0
   679                           
   680     0070                     ___xxtofl@val:	
   681                           ; 4 bytes @ 0x0
   682                           
   683                           
   684                           ; 4 bytes @ 0x0
   685     0070                     	ds	2
   686     0072                     ??__Umul8_16:
   687     0072                     ??_readADC:	
   688                           ; 1 bytes @ 0x2
   689                           
   690     0072                     ??_countPulses:	
   691                           ; 1 bytes @ 0x2
   692                           
   693     0072                     SetBit@pin:	
   694                           ; 1 bytes @ 0x2
   695                           
   696     0072                     fputc@fp:	
   697                           ; 1 bytes @ 0x2
   698                           
   699     0072                     countPulses@pulseCount:	
   700                           ; 1 bytes @ 0x2
   701                           
   702     0072                     ___wmul@multiplicand:	
   703                           ; 2 bytes @ 0x2
   704                           
   705     0072                     ___lwdiv@dividend:	
   706                           ; 2 bytes @ 0x2
   707                           
   708     0072                     ___lwmod@dividend:	
   709                           ; 2 bytes @ 0x2
   710                           
   711                           
   712                           ; 2 bytes @ 0x2
   713     0072                     	ds	1
   714     0073                     ??_fputc:
   715     0073                     SetBit@value:	
   716                           ; 1 bytes @ 0x3
   717                           
   718                           
   719                           ; 1 bytes @ 0x3
   720     0073                     	ds	1
   721     0074                     ??_SetBit:
   722     0074                     ??___wmul:	
   723                           ; 1 bytes @ 0x4
   724                           
   725     0074                     ??___lwdiv:	
   726                           ; 1 bytes @ 0x4
   727                           
   728     0074                     ??___lwmod:	
   729                           ; 1 bytes @ 0x4
   730                           
   731     0074                     ??___xxtofl:	
   732                           ; 1 bytes @ 0x4
   733                           
   734     0074                     countPulses@lastState:	
   735                           ; 1 bytes @ 0x4
   736                           
   737     0074                     ___wmul@product:	
   738                           ; 1 bytes @ 0x4
   739                           
   740     0074                     __Umul8_16@product:	
   741                           ; 2 bytes @ 0x4
   742                           
   743     0074                     ___flge@ff2:	
   744                           ; 2 bytes @ 0x4
   745                           
   746                           
   747                           ; 4 bytes @ 0x4
   748     0074                     	ds	1
   749     0075                     countPulses@currentState:
   750     0075                     ___lwmod@counter:	
   751                           ; 1 bytes @ 0x5
   752                           
   753     0075                     ___lwdiv@quotient:	
   754                           ; 1 bytes @ 0x5
   755                           
   756                           
   757                           ; 2 bytes @ 0x5
   758     0075                     	ds	1
   759     0076                     ??_PulseEnable:
   760     0076                     ?_read_prec_or_width:	
   761                           ; 1 bytes @ 0x6
   762                           
   763     0076                     read_prec_or_width@ap:	
   764                           ; 2 bytes @ 0x6
   765                           
   766     0076                     __Umul8_16@word_mpld:	
   767                           ; 1 bytes @ 0x6
   768                           
   769                           
   770                           ; 2 bytes @ 0x6
   771     0076                     	ds	1
   772     0077                     ___lwdiv@counter:
   773                           
   774                           ; 1 bytes @ 0x7
   775     0077                     	ds	1
   776     0078                     ??___flge:
   777     0078                     ??_read_prec_or_width:	
   778                           ; 1 bytes @ 0x8
   779                           
   780     0078                     ?_fputs:	
   781                           ; 1 bytes @ 0x8
   782                           
   783     0078                     PulseEnable@config:	
   784                           ; 2 bytes @ 0x8
   785                           
   786     0078                     __Umul8_16@multiplier:	
   787                           ; 1 bytes @ 0x8
   788                           
   789     0078                     ___xxtofl@sign:	
   790                           ; 1 bytes @ 0x8
   791                           
   792     0078                     fputs@fp:	
   793                           ; 1 bytes @ 0x8
   794                           
   795                           
   796                           ; 1 bytes @ 0x8
   797     0078                     	ds	1
   798     0079                     ??_fputs:
   799     0079                     ?_Lcd_Command:	
   800                           ; 1 bytes @ 0x9
   801                           
   802     0079                     ?_Lcd_WriteChar:	
   803                           ; 1 bytes @ 0x9
   804                           
   805     0079                     Lcd_Command@cmd:	
   806                           ; 1 bytes @ 0x9
   807                           
   808     0079                     Lcd_WriteChar@data:	
   809                           ; 1 bytes @ 0x9
   810                           
   811     0079                     ___xxtofl@exp:	
   812                           ; 1 bytes @ 0x9
   813                           
   814     0079                     read_prec_or_width@c:	
   815                           ; 1 bytes @ 0x9
   816                           
   817                           
   818                           ; 1 bytes @ 0x9
   819     0079                     	ds	1
   820     007A                     ??_Lcd_Command:
   821     007A                     ??_Lcd_WriteChar:	
   822                           ; 1 bytes @ 0xA
   823                           
   824     007A                     read_prec_or_width@n:	
   825                           ; 1 bytes @ 0xA
   826                           
   827     007A                     ___xxtofl@arg:	
   828                           ; 2 bytes @ 0xA
   829                           
   830                           
   831                           ; 4 bytes @ 0xA
   832     007A                     	ds	1
   833     007B                     ?_pad:
   834     007B                     pad@buf:	
   835                           ; 1 bytes @ 0xB
   836                           
   837                           
   838                           ; 1 bytes @ 0xB
   839     007B                     	ds	1
   840     007C                     Lcd_Command@config:
   841     007C                     Lcd_WriteChar@config:	
   842                           ; 1 bytes @ 0xC
   843                           
   844     007C                     read_prec_or_width@fmt:	
   845                           ; 1 bytes @ 0xC
   846                           
   847     007C                     pad@p:	
   848                           ; 1 bytes @ 0xC
   849                           
   850                           
   851                           ; 2 bytes @ 0xC
   852     007C                     	ds	1
   853     007D                     ??_Lcd_CreateCustomChar:
   854     007D                     ??_Lcd_WriteString:	
   855                           ; 1 bytes @ 0xD
   856                           
   857     007D                     ?_Lcd_WriteCustomChar:	
   858                           ; 1 bytes @ 0xD
   859                           
   860     007D                     Lcd_WriteString@config:	
   861                           ; 1 bytes @ 0xD
   862                           
   863     007D                     Lcd_Clear@config:	
   864                           ; 1 bytes @ 0xD
   865                           
   866     007D                     Lcd_WriteCustomChar@location:	
   867                           ; 1 bytes @ 0xD
   868                           
   869                           
   870                           ; 1 bytes @ 0xD
   871     007D                     	ds	1
   872     007E                     ??_Lcd_WriteCustomChar:
   873     007E                     ??_vfprintf:	
   874                           ; 1 bytes @ 0xE
   875                           
   876     007E                     ??_readTemperature:	
   877                           ; 1 bytes @ 0xE
   878                           
   879     007E                     ??_utoa:	
   880                           ; 1 bytes @ 0xE
   881                           
   882                           
   883                           	psect	cstackBANK0
   884     0020                     __pcstackBANK0:	
   885                           ; 1 bytes @ 0xE
   886                           
   887     0020                     ??_Lcd_Clear:
   888     0020                     ?_Lcd_CreateCustomChar:	
   889                           ; 1 bytes @ 0x0
   890                           
   891     0020                     ?_Lcd_SetCursor:	
   892                           ; 1 bytes @ 0x0
   893                           
   894     0020                     ?_Lcd_WriteString:	
   895                           ; 1 bytes @ 0x0
   896                           
   897     0020                     ?___fldiv:	
   898                           ; 1 bytes @ 0x0
   899                           
   900     0020                     Lcd_SetCursor@row:	
   901                           ; 4 bytes @ 0x0
   902                           
   903     0020                     Lcd_CreateCustomChar@location:	
   904                           ; 1 bytes @ 0x0
   905                           
   906     0020                     Lcd_WriteCustomChar@config:	
   907                           ; 1 bytes @ 0x0
   908                           
   909     0020                     fputs@c:	
   910                           ; 1 bytes @ 0x0
   911                           
   912     0020                     Lcd_WriteString@str:	
   913                           ; 1 bytes @ 0x0
   914                           
   915     0020                     ___fldiv@a:	
   916                           ; 2 bytes @ 0x0
   917                           
   918                           
   919                           ; 4 bytes @ 0x0
   920     0020                     	ds	1
   921     0021                     Lcd_SetCursor@column:
   922     0021                     Lcd_CreateCustomChar@charmap:	
   923                           ; 1 bytes @ 0x1
   924                           
   925     0021                     fputs@i:	
   926                           ; 1 bytes @ 0x1
   927                           
   928                           
   929                           ; 2 bytes @ 0x1
   930     0021                     	ds	1
   931     0022                     ??_Lcd_Init:
   932     0022                     ??_Lcd_SetCursor:	
   933                           ; 1 bytes @ 0x2
   934                           
   935     0022                     Lcd_CreateCustomChar@config:	
   936                           ; 1 bytes @ 0x2
   937                           
   938                           
   939                           ; 1 bytes @ 0x2
   940     0022                     	ds	1
   941     0023                     Lcd_CreateCustomChar@i:
   942     0023                     fputs@s:	
   943                           ; 1 bytes @ 0x3
   944                           
   945                           
   946                           ; 1 bytes @ 0x3
   947     0023                     	ds	1
   948     0024                     ??_pad:
   949     0024                     Lcd_Init@config:	
   950                           ; 1 bytes @ 0x4
   951                           
   952     0024                     Lcd_SetCursor@address:	
   953                           ; 1 bytes @ 0x4
   954                           
   955     0024                     ___fldiv@b:	
   956                           ; 1 bytes @ 0x4
   957                           
   958                           
   959                           ; 4 bytes @ 0x4
   960     0024                     	ds	1
   961     0025                     Lcd_SetCursor@config:
   962     0025                     pad@i:	
   963                           ; 1 bytes @ 0x5
   964                           
   965                           
   966                           ; 2 bytes @ 0x5
   967     0025                     	ds	2
   968     0027                     pad@fp:
   969                           
   970                           ; 1 bytes @ 0x7
   971     0027                     	ds	1
   972     0028                     ??___fldiv:
   973     0028                     ?_utoa:	
   974                           ; 1 bytes @ 0x8
   975                           
   976     0028                     utoa@d:	
   977                           ; 1 bytes @ 0x8
   978                           
   979                           
   980                           ; 2 bytes @ 0x8
   981     0028                     	ds	2
   982     002A                     utoa@w:
   983                           
   984                           ; 2 bytes @ 0xA
   985     002A                     	ds	2
   986     002C                     utoa@fp:
   987                           
   988                           ; 1 bytes @ 0xC
   989     002C                     	ds	1
   990     002D                     utoa@p:
   991     002D                     ___fldiv@rem:	
   992                           ; 1 bytes @ 0xD
   993                           
   994                           
   995                           ; 4 bytes @ 0xD
   996     002D                     	ds	1
   997     002E                     utoa@i:
   998                           
   999                           ; 2 bytes @ 0xE
  1000     002E                     	ds	2
  1001     0030                     ?_vfpfcnvrt:
  1002     0030                     vfpfcnvrt@fmt:	
  1003                           ; 1 bytes @ 0x10
  1004                           
  1005                           
  1006                           ; 1 bytes @ 0x10
  1007     0030                     	ds	1
  1008     0031                     ___fldiv@sign:
  1009     0031                     vfpfcnvrt@ap:	
  1010                           ; 1 bytes @ 0x11
  1011                           
  1012                           
  1013                           ; 1 bytes @ 0x11
  1014     0031                     	ds	1
  1015     0032                     ??_vfpfcnvrt:
  1016     0032                     ___fldiv@new_exp:	
  1017                           ; 1 bytes @ 0x12
  1018                           
  1019                           
  1020                           ; 2 bytes @ 0x12
  1021     0032                     	ds	2
  1022     0034                     ___fldiv@grs:
  1023     0034                     vfpfcnvrt@convarg:	
  1024                           ; 4 bytes @ 0x14
  1025                           
  1026                           
  1027                           ; 4 bytes @ 0x14
  1028     0034                     	ds	4
  1029     0038                     ___fldiv@bexp:
  1030     0038                     vfpfcnvrt@fp:	
  1031                           ; 1 bytes @ 0x18
  1032                           
  1033                           
  1034                           ; 1 bytes @ 0x18
  1035     0038                     	ds	1
  1036     0039                     ___fldiv@aexp:
  1037     0039                     vfpfcnvrt@cp:	
  1038                           ; 1 bytes @ 0x19
  1039                           
  1040                           
  1041                           ; 1 bytes @ 0x19
  1042     0039                     	ds	1
  1043     003A                     ?_vfprintf:
  1044     003A                     ?___flmul:	
  1045                           ; 2 bytes @ 0x1A
  1046                           
  1047     003A                     vfprintf@fmt:	
  1048                           ; 4 bytes @ 0x1A
  1049                           
  1050     003A                     ___flmul@b:	
  1051                           ; 1 bytes @ 0x1A
  1052                           
  1053                           
  1054                           ; 4 bytes @ 0x1A
  1055     003A                     	ds	1
  1056     003B                     vfprintf@ap:
  1057                           
  1058                           ; 1 bytes @ 0x1B
  1059     003B                     	ds	1
  1060     003C                     vfprintf@fp:
  1061                           
  1062                           ; 1 bytes @ 0x1C
  1063     003C                     	ds	1
  1064     003D                     vfprintf@cfmt:
  1065                           
  1066                           ; 1 bytes @ 0x1D
  1067     003D                     	ds	1
  1068     003E                     ___flmul@a:
  1069                           
  1070                           ; 4 bytes @ 0x1E
  1071     003E                     	ds	4
  1072     0042                     ??___flmul:
  1073                           
  1074                           ; 1 bytes @ 0x22
  1075     0042                     	ds	5
  1076     0047                     ___flmul@sign:
  1077                           
  1078                           ; 1 bytes @ 0x27
  1079     0047                     	ds	1
  1080     0048                     ___flmul@grs:
  1081                           
  1082                           ; 4 bytes @ 0x28
  1083     0048                     	ds	4
  1084     004C                     ___flmul@aexp:
  1085                           
  1086                           ; 1 bytes @ 0x2C
  1087     004C                     	ds	1
  1088     004D                     ___flmul@bexp:
  1089                           
  1090                           ; 1 bytes @ 0x2D
  1091     004D                     	ds	1
  1092     004E                     ___flmul@prod:
  1093                           
  1094                           ; 4 bytes @ 0x2E
  1095     004E                     	ds	4
  1096     0052                     ___flmul@temp:
  1097                           
  1098                           ; 2 bytes @ 0x32
  1099     0052                     	ds	2
  1100     0054                     ?_readTemperature:
  1101     0054                     ?___fltol:	
  1102                           ; 4 bytes @ 0x34
  1103                           
  1104     0054                     ___fltol@f1:	
  1105                           ; 4 bytes @ 0x34
  1106                           
  1107                           
  1108                           ; 4 bytes @ 0x34
  1109     0054                     	ds	4
  1110     0058                     ??___fltol:
  1111     0058                     readTemperature@voltage:	
  1112                           ; 1 bytes @ 0x38
  1113                           
  1114                           
  1115                           ; 4 bytes @ 0x38
  1116     0058                     	ds	4
  1117     005C                     ___fltol@sign1:
  1118     005C                     readTemperature@adcValue:	
  1119                           ; 1 bytes @ 0x3C
  1120                           
  1121                           
  1122                           ; 2 bytes @ 0x3C
  1123     005C                     	ds	1
  1124     005D                     ___fltol@exp1:
  1125                           
  1126                           ; 1 bytes @ 0x3D
  1127     005D                     	ds	1
  1128     005E                     ?_sprintf:
  1129     005E                     ?___fladd:	
  1130                           ; 2 bytes @ 0x3E
  1131                           
  1132     005E                     sprintf@fmt:	
  1133                           ; 4 bytes @ 0x3E
  1134                           
  1135     005E                     ___fladd@b:	
  1136                           ; 1 bytes @ 0x3E
  1137                           
  1138                           
  1139                           ; 4 bytes @ 0x3E
  1140     005E                     	ds	3
  1141     0061                     ??_sprintf:
  1142                           
  1143                           ; 1 bytes @ 0x41
  1144     0061                     	ds	1
  1145     0062                     sprintf@ap:
  1146     0062                     ___fladd@a:	
  1147                           ; 1 bytes @ 0x42
  1148                           
  1149                           
  1150                           ; 4 bytes @ 0x42
  1151     0062                     	ds	1
  1152     0063                     sprintf@s:
  1153                           
  1154                           ; 1 bytes @ 0x43
  1155     0063                     	ds	1
  1156     0064                     sprintf@f:
  1157                           
  1158                           ; 11 bytes @ 0x44
  1159     0064                     	ds	2
  1160     0066                     ??___fladd:
  1161                           
  1162                           ; 1 bytes @ 0x46
  1163     0066                     	ds	9
  1164                           
  1165                           	psect	maintext
  1166     0D75                     __pmaintext:	
  1167 ;;
  1168 ;;Main: autosize = 0, tempsize = 4, incstack = 0, save=0
  1169 ;;
  1170 ;; *************** function _main *****************
  1171 ;; Defined at:
  1172 ;;		line 95 in file "teste.c"
  1173 ;; Parameters:    Size  Location     Type
  1174 ;;		None
  1175 ;; Auto vars:     Size  Location     Type
  1176 ;;  i               1   28[BANK1 ] unsigned char 
  1177 ;;  strRPM          6   14[BANK1 ] unsigned char [6]
  1178 ;;  strTemp         6    8[BANK1 ] unsigned char [6]
  1179 ;;  temperature     4   29[BANK1 ] unsigned char [6]
  1180 ;;  sum             4   24[BANK1 ] unsigned char [6]
  1181 ;;  fanRPM          2   22[BANK1 ] unsigned int 
  1182 ;;  pulses          2   20[BANK1 ] unsigned int 
  1183 ;;  lcd             8   33[BANK1 ] struct .
  1184 ;; Return value:  Size  Location     Type
  1185 ;;                  1    wreg      void 
  1186 ;; Registers used:
  1187 ;;		wreg, fsr0l, fsr0h, status,2, status,0, btemp+1, pclath, cstack
  1188 ;; Tracked objects:
  1189 ;;		On entry : B00/0
  1190 ;;		On exit  : 0/0
  1191 ;;		Unchanged: 0/0
  1192 ;; Data sizes:     COMMON   BANK0   BANK1   BANK3   BANK2
  1193 ;;      Params:         0       0       0       0       0
  1194 ;;      Locals:         0       0      33       0       0
  1195 ;;      Temps:          0       0       4       0       0
  1196 ;;      Totals:         0       0      37       0       0
  1197 ;;Total ram usage:       37 bytes
  1198 ;; Hardware stack levels required when called: 8
  1199 ;; This function calls:
  1200 ;;		_Lcd_Clear
  1201 ;;		_Lcd_CreateCustomChar
  1202 ;;		_Lcd_Init
  1203 ;;		_Lcd_SetCursor
  1204 ;;		_Lcd_WriteCustomChar
  1205 ;;		_Lcd_WriteString
  1206 ;;		___fladd
  1207 ;;		___fldiv
  1208 ;;		___flge
  1209 ;;		___flmul
  1210 ;;		___fltol
  1211 ;;		___xxtofl
  1212 ;;		_countPulses
  1213 ;;		_initADC
  1214 ;;		_initPWM
  1215 ;;		_initRPM
  1216 ;;		_readTemperature
  1217 ;;		_sprintf
  1218 ;; This function is called by:
  1219 ;;		Startup code after reset
  1220 ;; This function uses a non-reentrant model
  1221 ;;
  1222                           
  1223     0D75                     _main:	
  1224                           ;psect for function _main
  1225                           
  1226     0D75                     l2788:	
  1227                           ;incstack = 0
  1228                           ; Regs used in _main: [wreg-fsr0h+status,2+status,0+btemp+1+pclath+cstack]
  1229                           
  1230                           
  1231                           ;teste.c: 96:     TRISD = 0;
  1232     0D75  160A  118A  23A9  120A  158A  	fcall	_initPWM
  1233                           
  1234                           ;teste.c: 97:     Lcd_Init(&lcd);
  1235     0D7A  160A  118A  2357  120A  158A  	fcall	_initADC
  1236                           
  1237                           ;teste.c: 98:     Lcd_Clear(&lcd);
  1238     0D7F  160A  118A  2372  120A  158A  	fcall	_initRPM
  1239     0D84                     l2790:
  1240                           
  1241                           ;teste.c: 100: 
  1242     0D84  30C1               	movlw	main@lcd& (0+255)
  1243     0D85  0084               	movwf	4
  1244     0D86  30C9               	movlw	low main@F1788
  1245     0D87  1683               	bsf	3,5	;RP0=1, select bank1
  1246     0D88  1303               	bcf	3,6	;RP1=0, select bank1
  1247     0D89  00A4               	movwf	??_main^(0+128)
  1248     0D8A  0804               	movf	4,w
  1249     0D8B  00A5               	movwf	(??_main^(0+128)+1)
  1250     0D8C  3008               	movlw	8
  1251     0D8D  00A6               	movwf	(??_main^(0+128)+2)
  1252     0D8E                     u4830:
  1253     0D8E  0824               	movf	??_main^(0+128),w
  1254     0D8F  0084               	movwf	4
  1255     0D90  1383               	bcf	3,7	;select IRP bank1
  1256     0D91  0800               	movf	0,w
  1257     0D92  00A7               	movwf	(??_main^(0+128)+3)
  1258     0D93  0AA4               	incf	??_main^(0+128),f
  1259     0D94  0825               	movf	(??_main^(0+128)+1),w
  1260     0D95  0084               	movwf	4
  1261     0D96  0827               	movf	(??_main^(0+128)+3),w
  1262     0D97  0080               	movwf	0
  1263     0D98  0AA5               	incf	(??_main^(0+128)+1),f
  1264     0D99  0BA6               	decfsz	(??_main^(0+128)+2),f
  1265     0D9A  2D8E               	goto	u4830
  1266     0D9B                     l2792:
  1267                           
  1268                           ;teste.c: 111:         char strTemp[6];
  1269     0D9B  0188               	clrf	8	;volatile
  1270     0D9C                     l2794:
  1271                           
  1272                           ;teste.c: 112:         char strRPM[6];
  1273     0D9C  30C1               	movlw	(low (main@lcd| 0))& (0+255)
  1274     0D9D  160A  118A  26AB  120A  158A  	fcall	_Lcd_Init
  1275     0DA2                     l2796:
  1276                           
  1277                           ;teste.c: 113:         double temperature;
  1278     0DA2  30C1               	movlw	(low (main@lcd| 0))& (0+255)
  1279     0DA3  160A  118A  2395  120A  158A  	fcall	_Lcd_Clear
  1280     0DA8                     l2798:
  1281                           
  1282                           ;teste.c: 116:         unsigned int pulses = countPulses();
  1283     0DA8  1283               	bcf	3,5	;RP0=0, select bank0
  1284     0DA9  1303               	bcf	3,6	;RP1=0, select bank0
  1285     0DAA  01A0               	clrf	Lcd_CreateCustomChar@location
  1286     0DAB  30D1               	movlw	(low (_celsiusChar| 0))& (0+255)
  1287     0DAC  00A1               	movwf	Lcd_CreateCustomChar@charmap
  1288     0DAD  30C1               	movlw	(low (main@lcd| 0))& (0+255)
  1289     0DAE  160A  118A  2552  120A  158A  	fcall	_Lcd_CreateCustomChar
  1290     0DB3                     l2800:
  1291                           
  1292                           ;teste.c: 118:         unsigned int fanRPM = (unsigned int) ((pulses / 2) * (60 / (256.0
      +                           / 4000000 * 256)/10));
  1293     0DB3  1283               	bcf	3,5	;RP0=0, select bank0
  1294     0DB4  1303               	bcf	3,6	;RP1=0, select bank0
  1295     0DB5  01A0               	clrf	Lcd_SetCursor@row
  1296     0DB6  0AA0               	incf	Lcd_SetCursor@row,f
  1297     0DB7  01A1               	clrf	Lcd_SetCursor@column
  1298     0DB8  0AA1               	incf	Lcd_SetCursor@column,f
  1299     0DB9  30C1               	movlw	(low (main@lcd| 0))& (0+255)
  1300     0DBA  160A  118A  244A  120A  158A  	fcall	_Lcd_SetCursor
  1301     0DBF                     l2802:
  1302                           
  1303                           ;teste.c: 119: 
  1304     0DBF  3001               	movlw	(low ((STR_1-__stringbase)| (0+32768)))& (0+255)
  1305     0DC0  1283               	bcf	3,5	;RP0=0, select bank0
  1306     0DC1  1303               	bcf	3,6	;RP1=0, select bank0
  1307     0DC2  00A0               	movwf	Lcd_WriteString@str
  1308     0DC3  3080               	movlw	128
  1309     0DC4  00A1               	movwf	Lcd_WriteString@str+1
  1310     0DC5  30C1               	movlw	(low (main@lcd| 0))& (0+255)
  1311     0DC6  160A  118A  249C  120A  158A  	fcall	_Lcd_WriteString
  1312     0DCB                     l2804:
  1313                           
  1314                           ;teste.c: 120:         sprintf(strRPM, "%4u", fanRPM);
  1315     0DCB  3002               	movlw	2
  1316     0DCC  1283               	bcf	3,5	;RP0=0, select bank0
  1317     0DCD  1303               	bcf	3,6	;RP1=0, select bank0
  1318     0DCE  00A0               	movwf	Lcd_SetCursor@row
  1319     0DCF  01A1               	clrf	Lcd_SetCursor@column
  1320     0DD0  0AA1               	incf	Lcd_SetCursor@column,f
  1321     0DD1  30C1               	movlw	(low (main@lcd| 0))& (0+255)
  1322     0DD2  160A  118A  244A  120A  158A  	fcall	_Lcd_SetCursor
  1323     0DD7                     l2806:
  1324                           
  1325                           ;teste.c: 121:         Lcd_SetCursor(&lcd, 2, 10);
  1326     0DD7  3002               	movlw	2
  1327     0DD8  1283               	bcf	3,5	;RP0=0, select bank0
  1328     0DD9  1303               	bcf	3,6	;RP1=0, select bank0
  1329     0DDA  00A0               	movwf	Lcd_SetCursor@row
  1330     0DDB  3006               	movlw	6
  1331     0DDC  00A1               	movwf	Lcd_SetCursor@column
  1332     0DDD  30C1               	movlw	(low (main@lcd| 0))& (0+255)
  1333     0DDE  160A  118A  244A  120A  158A  	fcall	_Lcd_SetCursor
  1334     0DE3                     l2808:
  1335                           
  1336                           ;teste.c: 122:         Lcd_WriteString(&lcd, strRPM );
  1337     0DE3  300F               	movlw	(low ((STR_2-__stringbase)| (0+32768)))& (0+255)
  1338     0DE4  1283               	bcf	3,5	;RP0=0, select bank0
  1339     0DE5  1303               	bcf	3,6	;RP1=0, select bank0
  1340     0DE6  00A0               	movwf	Lcd_WriteString@str
  1341     0DE7  3080               	movlw	128
  1342     0DE8  00A1               	movwf	Lcd_WriteString@str+1
  1343     0DE9  30C1               	movlw	(low (main@lcd| 0))& (0+255)
  1344     0DEA  160A  118A  249C  120A  158A  	fcall	_Lcd_WriteString
  1345     0DEF                     l2810:
  1346                           
  1347                           ;teste.c: 126:         for (unsigned char i =0; i < 10; i++ ) {;teste.c: 127:           
      +                            sum += readTemperature();;teste.c: 128:             _delay((unsigned long)((100)*(4000
      +                          000/4000.0)));;teste.c: 129:         }
  1348     0DEF  3000               	movlw	0
  1349     0DF0  1683               	bsf	3,5	;RP0=1, select bank1
  1350     0DF1  1303               	bcf	3,6	;RP1=0, select bank1
  1351     0DF2  00BB               	movwf	(main@sum+3)^(0+128)
  1352     0DF3  3000               	movlw	0
  1353     0DF4  00BA               	movwf	(main@sum+2)^(0+128)
  1354     0DF5  3000               	movlw	0
  1355     0DF6  00B9               	movwf	(main@sum+1)^(0+128)
  1356     0DF7  3000               	movlw	0
  1357     0DF8  00B8               	movwf	main@sum^(0+128)
  1358     0DF9                     l2812:
  1359                           
  1360                           ;teste.c: 131: 
  1361     0DF9  160A  118A  24C7  120A  158A  	fcall	_countPulses
  1362     0DFE  0871               	movf	?_countPulses+1,w
  1363     0DFF  1683               	bsf	3,5	;RP0=1, select bank1
  1364     0E00  1303               	bcf	3,6	;RP1=0, select bank1
  1365     0E01  00B5               	movwf	(main@pulses+1)^(0+128)
  1366     0E02  0870               	movf	?_countPulses,w
  1367     0E03  00B4               	movwf	main@pulses^(0+128)
  1368     0E04                     l2814:
  1369                           
  1370                           ;teste.c: 133:         Lcd_SetCursor(&lcd, 2, 1);
  1371     0E04  0835               	movf	(main@pulses+1)^(0+128),w
  1372     0E05  00A5               	movwf	(??_main^(0+128)+1)
  1373     0E06  0834               	movf	main@pulses^(0+128),w
  1374     0E07  00A4               	movwf	??_main^(0+128)
  1375     0E08  1003               	clrc
  1376     0E09  0CA5               	rrf	(??_main^(0+128)+1),f
  1377     0E0A  0CA4               	rrf	??_main^(0+128),f
  1378     0E0B  0824               	movf	??_main^(0+128),w
  1379     0E0C  00F0               	movwf	___xxtofl@val
  1380     0E0D  0825               	movf	(??_main+1)^(0+128),w
  1381     0E0E  00F1               	movwf	___xxtofl@val+1
  1382     0E0F  01F2               	clrf	___xxtofl@val+2
  1383     0E10  01F3               	clrf	___xxtofl@val+3
  1384     0E11  3000               	movlw	0
  1385     0E12  120A  158A  21C0  120A  158A  	fcall	___xxtofl
  1386     0E17  0873               	movf	?___xxtofl+3,w
  1387     0E18  1283               	bcf	3,5	;RP0=0, select bank0
  1388     0E19  1303               	bcf	3,6	;RP1=0, select bank0
  1389     0E1A  00C1               	movwf	___flmul@a+3
  1390     0E1B  0872               	movf	?___xxtofl+2,w
  1391     0E1C  00C0               	movwf	___flmul@a+2
  1392     0E1D  0871               	movf	?___xxtofl+1,w
  1393     0E1E  00BF               	movwf	___flmul@a+1
  1394     0E1F  0870               	movf	?___xxtofl,w
  1395     0E20  00BE               	movwf	___flmul@a
  1396     0E21  3043               	movlw	67
  1397     0E22  00BD               	movwf	___flmul@b+3
  1398     0E23  30B7               	movlw	183
  1399     0E24  00BC               	movwf	___flmul@b+2
  1400     0E25  301B               	movlw	27
  1401     0E26  00BB               	movwf	___flmul@b+1
  1402     0E27  3000               	movlw	0
  1403     0E28  00BA               	movwf	___flmul@b
  1404     0E29  120A  118A  2497  120A  158A  	fcall	___flmul
  1405     0E2E  1283               	bcf	3,5	;RP0=0, select bank0
  1406     0E2F  1303               	bcf	3,6	;RP1=0, select bank0
  1407     0E30  083D               	movf	?___flmul+3,w
  1408     0E31  00D7               	movwf	___fltol@f1+3
  1409     0E32  083C               	movf	?___flmul+2,w
  1410     0E33  00D6               	movwf	___fltol@f1+2
  1411     0E34  083B               	movf	?___flmul+1,w
  1412     0E35  00D5               	movwf	___fltol@f1+1
  1413     0E36  083A               	movf	?___flmul,w
  1414     0E37  00D4               	movwf	___fltol@f1
  1415     0E38  160A  118A  2788  120A  158A  	fcall	___fltol
  1416     0E3D  1283               	bcf	3,5	;RP0=0, select bank0
  1417     0E3E  1303               	bcf	3,6	;RP1=0, select bank0
  1418     0E3F  0855               	movf	?___fltol+1,w
  1419     0E40  1683               	bsf	3,5	;RP0=1, select bank1
  1420     0E41  1303               	bcf	3,6	;RP1=0, select bank1
  1421     0E42  00B7               	movwf	(main@fanRPM+1)^(0+128)
  1422     0E43  1283               	bcf	3,5	;RP0=0, select bank0
  1423     0E44  1303               	bcf	3,6	;RP1=0, select bank0
  1424     0E45  0854               	movf	?___fltol,w
  1425     0E46  1683               	bsf	3,5	;RP0=1, select bank1
  1426     0E47  1303               	bcf	3,6	;RP1=0, select bank1
  1427     0E48  00B6               	movwf	main@fanRPM^(0+128)
  1428     0E49                     l2816:
  1429                           
  1430                           ;teste.c: 135:         Lcd_SetCursor(&lcd, 2, 3);
  1431     0E49  3018               	movlw	(low ((STR_3-__stringbase)| (0+32768)))& (0+255)
  1432     0E4A  1283               	bcf	3,5	;RP0=0, select bank0
  1433     0E4B  1303               	bcf	3,6	;RP1=0, select bank0
  1434     0E4C  00DE               	movwf	sprintf@fmt
  1435     0E4D  1683               	bsf	3,5	;RP0=1, select bank1
  1436     0E4E  1303               	bcf	3,6	;RP1=0, select bank1
  1437     0E4F  0837               	movf	(main@fanRPM+1)^(0+128),w
  1438     0E50  1283               	bcf	3,5	;RP0=0, select bank0
  1439     0E51  1303               	bcf	3,6	;RP1=0, select bank0
  1440     0E52  00E0               	movwf	?_sprintf+2
  1441     0E53  1683               	bsf	3,5	;RP0=1, select bank1
  1442     0E54  1303               	bcf	3,6	;RP1=0, select bank1
  1443     0E55  0836               	movf	main@fanRPM^(0+128),w
  1444     0E56  1283               	bcf	3,5	;RP0=0, select bank0
  1445     0E57  1303               	bcf	3,6	;RP1=0, select bank0
  1446     0E58  00DF               	movwf	?_sprintf+1
  1447     0E59  30AE               	movlw	(low (main@strRPM| 0))& (0+255)
  1448     0E5A  160A  118A  23BE  120A  158A  	fcall	_sprintf
  1449     0E5F                     l2818:
  1450                           
  1451                           ;teste.c: 136:         Lcd_WriteCustomChar(&lcd, 0);
  1452     0E5F  3002               	movlw	2
  1453     0E60  1283               	bcf	3,5	;RP0=0, select bank0
  1454     0E61  1303               	bcf	3,6	;RP1=0, select bank0
  1455     0E62  00A0               	movwf	Lcd_SetCursor@row
  1456     0E63  300A               	movlw	10
  1457     0E64  00A1               	movwf	Lcd_SetCursor@column
  1458     0E65  30C1               	movlw	(low (main@lcd| 0))& (0+255)
  1459     0E66  160A  118A  244A  120A  158A  	fcall	_Lcd_SetCursor
  1460     0E6B                     l2820:
  1461                           
  1462                           ;teste.c: 137: 
  1463     0E6B  30AE               	movlw	(low (main@strRPM| 0))& (0+255)
  1464     0E6C  1283               	bcf	3,5	;RP0=0, select bank0
  1465     0E6D  1303               	bcf	3,6	;RP1=0, select bank0
  1466     0E6E  00A0               	movwf	Lcd_WriteString@str
  1467     0E6F  3000               	movlw	0
  1468     0E70  00A1               	movwf	Lcd_WriteString@str+1
  1469     0E71  30C1               	movlw	(low (main@lcd| 0))& (0+255)
  1470     0E72  160A  118A  249C  120A  158A  	fcall	_Lcd_WriteString
  1471                           
  1472                           ;teste.c: 141:             CCPR1L = 50;
  1473     0E77  1683               	bsf	3,5	;RP0=1, select bank1
  1474     0E78  1303               	bcf	3,6	;RP1=0, select bank1
  1475     0E79  01BC               	clrf	main@i^(0+128)
  1476     0E7A                     l2826:
  1477                           
  1478                           ;teste.c: 142:         else if (temperature > 26.0)
  1479     0E7A  160A  118A  2719  120A  158A  	fcall	_readTemperature
  1480     0E7F  1283               	bcf	3,5	;RP0=0, select bank0
  1481     0E80  1303               	bcf	3,6	;RP1=0, select bank0
  1482     0E81  0857               	movf	?_readTemperature+3,w
  1483     0E82  00E1               	movwf	___fladd@b+3
  1484     0E83  0856               	movf	?_readTemperature+2,w
  1485     0E84  00E0               	movwf	___fladd@b+2
  1486     0E85  0855               	movf	?_readTemperature+1,w
  1487     0E86  00DF               	movwf	___fladd@b+1
  1488     0E87  0854               	movf	?_readTemperature,w
  1489     0E88  00DE               	movwf	___fladd@b
  1490     0E89  1683               	bsf	3,5	;RP0=1, select bank1
  1491     0E8A  1303               	bcf	3,6	;RP1=0, select bank1
  1492     0E8B  083B               	movf	(main@sum+3)^(0+128),w
  1493     0E8C  1283               	bcf	3,5	;RP0=0, select bank0
  1494     0E8D  1303               	bcf	3,6	;RP1=0, select bank0
  1495     0E8E  00E5               	movwf	___fladd@a+3
  1496     0E8F  1683               	bsf	3,5	;RP0=1, select bank1
  1497     0E90  1303               	bcf	3,6	;RP1=0, select bank1
  1498     0E91  083A               	movf	(main@sum+2)^(0+128),w
  1499     0E92  1283               	bcf	3,5	;RP0=0, select bank0
  1500     0E93  1303               	bcf	3,6	;RP1=0, select bank0
  1501     0E94  00E4               	movwf	___fladd@a+2
  1502     0E95  1683               	bsf	3,5	;RP0=1, select bank1
  1503     0E96  1303               	bcf	3,6	;RP1=0, select bank1
  1504     0E97  0839               	movf	(main@sum+1)^(0+128),w
  1505     0E98  1283               	bcf	3,5	;RP0=0, select bank0
  1506     0E99  1303               	bcf	3,6	;RP1=0, select bank0
  1507     0E9A  00E3               	movwf	___fladd@a+1
  1508     0E9B  1683               	bsf	3,5	;RP0=1, select bank1
  1509     0E9C  1303               	bcf	3,6	;RP1=0, select bank1
  1510     0E9D  0838               	movf	main@sum^(0+128),w
  1511     0E9E  1283               	bcf	3,5	;RP0=0, select bank0
  1512     0E9F  1303               	bcf	3,6	;RP1=0, select bank0
  1513     0EA0  00E2               	movwf	___fladd@a
  1514     0EA1  120A  118A  2197  120A  158A  	fcall	___fladd
  1515     0EA6  1283               	bcf	3,5	;RP0=0, select bank0
  1516     0EA7  1303               	bcf	3,6	;RP1=0, select bank0
  1517     0EA8  0861               	movf	?___fladd+3,w
  1518     0EA9  1683               	bsf	3,5	;RP0=1, select bank1
  1519     0EAA  1303               	bcf	3,6	;RP1=0, select bank1
  1520     0EAB  00BB               	movwf	(main@sum+3)^(0+128)
  1521     0EAC  1283               	bcf	3,5	;RP0=0, select bank0
  1522     0EAD  1303               	bcf	3,6	;RP1=0, select bank0
  1523     0EAE  0860               	movf	?___fladd+2,w
  1524     0EAF  1683               	bsf	3,5	;RP0=1, select bank1
  1525     0EB0  1303               	bcf	3,6	;RP1=0, select bank1
  1526     0EB1  00BA               	movwf	(main@sum+2)^(0+128)
  1527     0EB2  1283               	bcf	3,5	;RP0=0, select bank0
  1528     0EB3  1303               	bcf	3,6	;RP1=0, select bank0
  1529     0EB4  085F               	movf	?___fladd+1,w
  1530     0EB5  1683               	bsf	3,5	;RP0=1, select bank1
  1531     0EB6  1303               	bcf	3,6	;RP1=0, select bank1
  1532     0EB7  00B9               	movwf	(main@sum+1)^(0+128)
  1533     0EB8  1283               	bcf	3,5	;RP0=0, select bank0
  1534     0EB9  1303               	bcf	3,6	;RP1=0, select bank0
  1535     0EBA  085E               	movf	?___fladd,w
  1536     0EBB  1683               	bsf	3,5	;RP0=1, select bank1
  1537     0EBC  1303               	bcf	3,6	;RP1=0, select bank1
  1538     0EBD  00B8               	movwf	main@sum^(0+128)
  1539     0EBE                     l2828:
  1540                           
  1541                           ;teste.c: 143:             CCPR1L = 30;
  1542     0EBE  3082               	movlw	130
  1543     0EBF  1683               	bsf	3,5	;RP0=1, select bank1
  1544     0EC0  1303               	bcf	3,6	;RP1=0, select bank1
  1545     0EC1  00A5               	movwf	(??_main^(0+128)+1)
  1546     0EC2  30DD               	movlw	221
  1547     0EC3  00A4               	movwf	??_main^(0+128)
  1548     0EC4                     u4897:
  1549     0EC4  0BA4               	decfsz	??_main^(0+128),f
  1550     0EC5  2EC4               	goto	u4897
  1551     0EC6  0BA5               	decfsz	(??_main^(0+128)+1),f
  1552     0EC7  2EC4               	goto	u4897
  1553     0EC8                     l2830:
  1554                           
  1555                           ;teste.c: 144:         else if (temperature > 23.0)
  1556     0EC8  3001               	movlw	1
  1557     0EC9  1683               	bsf	3,5	;RP0=1, select bank1
  1558     0ECA  1303               	bcf	3,6	;RP1=0, select bank1
  1559     0ECB  00A4               	movwf	??_main^(0+128)
  1560     0ECC  0824               	movf	??_main^(0+128),w
  1561     0ECD  07BC               	addwf	main@i^(0+128),f
  1562     0ECE                     l2832:
  1563     0ECE  300A               	movlw	10
  1564     0ECF  023C               	subwf	main@i^(0+128),w
  1565     0ED0  1C03               	skipc
  1566     0ED1  2ED3               	goto	u4841
  1567     0ED2  2ED4               	goto	u4840
  1568     0ED3                     u4841:
  1569     0ED3  2E7A               	goto	l2826
  1570     0ED4                     u4840:
  1571     0ED4                     l2834:
  1572                           
  1573                           ;teste.c: 145:             CCPR1L = 15;
  1574     0ED4  3041               	movlw	65
  1575     0ED5  1283               	bcf	3,5	;RP0=0, select bank0
  1576     0ED6  1303               	bcf	3,6	;RP1=0, select bank0
  1577     0ED7  00A3               	movwf	___fldiv@a+3
  1578     0ED8  3020               	movlw	32
  1579     0ED9  00A2               	movwf	___fldiv@a+2
  1580     0EDA  3000               	movlw	0
  1581     0EDB  00A1               	movwf	___fldiv@a+1
  1582     0EDC  3000               	movlw	0
  1583     0EDD  00A0               	movwf	___fldiv@a
  1584     0EDE  1683               	bsf	3,5	;RP0=1, select bank1
  1585     0EDF  1303               	bcf	3,6	;RP1=0, select bank1
  1586     0EE0  083B               	movf	(main@sum+3)^(0+128),w
  1587     0EE1  1283               	bcf	3,5	;RP0=0, select bank0
  1588     0EE2  1303               	bcf	3,6	;RP1=0, select bank0
  1589     0EE3  00A7               	movwf	___fldiv@b+3
  1590     0EE4  1683               	bsf	3,5	;RP0=1, select bank1
  1591     0EE5  1303               	bcf	3,6	;RP1=0, select bank1
  1592     0EE6  083A               	movf	(main@sum+2)^(0+128),w
  1593     0EE7  1283               	bcf	3,5	;RP0=0, select bank0
  1594     0EE8  1303               	bcf	3,6	;RP1=0, select bank0
  1595     0EE9  00A6               	movwf	___fldiv@b+2
  1596     0EEA  1683               	bsf	3,5	;RP0=1, select bank1
  1597     0EEB  1303               	bcf	3,6	;RP1=0, select bank1
  1598     0EEC  0839               	movf	(main@sum+1)^(0+128),w
  1599     0EED  1283               	bcf	3,5	;RP0=0, select bank0
  1600     0EEE  1303               	bcf	3,6	;RP1=0, select bank0
  1601     0EEF  00A5               	movwf	___fldiv@b+1
  1602     0EF0  1683               	bsf	3,5	;RP0=1, select bank1
  1603     0EF1  1303               	bcf	3,6	;RP1=0, select bank1
  1604     0EF2  0838               	movf	main@sum^(0+128),w
  1605     0EF3  1283               	bcf	3,5	;RP0=0, select bank0
  1606     0EF4  1303               	bcf	3,6	;RP1=0, select bank0
  1607     0EF5  00A4               	movwf	___fldiv@b
  1608     0EF6  120A  158A  23A2  120A  158A  	fcall	___fldiv
  1609     0EFB  1283               	bcf	3,5	;RP0=0, select bank0
  1610     0EFC  1303               	bcf	3,6	;RP1=0, select bank0
  1611     0EFD  0823               	movf	?___fldiv+3,w
  1612     0EFE  1683               	bsf	3,5	;RP0=1, select bank1
  1613     0EFF  1303               	bcf	3,6	;RP1=0, select bank1
  1614     0F00  00C0               	movwf	(main@temperature+3)^(0+128)
  1615     0F01  1283               	bcf	3,5	;RP0=0, select bank0
  1616     0F02  1303               	bcf	3,6	;RP1=0, select bank0
  1617     0F03  0822               	movf	?___fldiv+2,w
  1618     0F04  1683               	bsf	3,5	;RP0=1, select bank1
  1619     0F05  1303               	bcf	3,6	;RP1=0, select bank1
  1620     0F06  00BF               	movwf	(main@temperature+2)^(0+128)
  1621     0F07  1283               	bcf	3,5	;RP0=0, select bank0
  1622     0F08  1303               	bcf	3,6	;RP1=0, select bank0
  1623     0F09  0821               	movf	?___fldiv+1,w
  1624     0F0A  1683               	bsf	3,5	;RP0=1, select bank1
  1625     0F0B  1303               	bcf	3,6	;RP1=0, select bank1
  1626     0F0C  00BE               	movwf	(main@temperature+1)^(0+128)
  1627     0F0D  1283               	bcf	3,5	;RP0=0, select bank0
  1628     0F0E  1303               	bcf	3,6	;RP1=0, select bank0
  1629     0F0F  0820               	movf	?___fldiv,w
  1630     0F10  1683               	bsf	3,5	;RP0=1, select bank1
  1631     0F11  1303               	bcf	3,6	;RP1=0, select bank1
  1632     0F12  00BD               	movwf	main@temperature^(0+128)
  1633     0F13                     l2836:
  1634                           
  1635                           ;teste.c: 147:             CCPR1L = 0;
  1636     0F13  3014               	movlw	(low ((STR_4-__stringbase)| (0+32768)))& (0+255)
  1637     0F14  1283               	bcf	3,5	;RP0=0, select bank0
  1638     0F15  1303               	bcf	3,6	;RP1=0, select bank0
  1639     0F16  00DE               	movwf	sprintf@fmt
  1640     0F17  1683               	bsf	3,5	;RP0=1, select bank1
  1641     0F18  1303               	bcf	3,6	;RP1=0, select bank1
  1642     0F19  0840               	movf	(main@temperature+3)^(0+128),w
  1643     0F1A  1283               	bcf	3,5	;RP0=0, select bank0
  1644     0F1B  1303               	bcf	3,6	;RP1=0, select bank0
  1645     0F1C  00D7               	movwf	___fltol@f1+3
  1646     0F1D  1683               	bsf	3,5	;RP0=1, select bank1
  1647     0F1E  1303               	bcf	3,6	;RP1=0, select bank1
  1648     0F1F  083F               	movf	(main@temperature+2)^(0+128),w
  1649     0F20  1283               	bcf	3,5	;RP0=0, select bank0
  1650     0F21  1303               	bcf	3,6	;RP1=0, select bank0
  1651     0F22  00D6               	movwf	___fltol@f1+2
  1652     0F23  1683               	bsf	3,5	;RP0=1, select bank1
  1653     0F24  1303               	bcf	3,6	;RP1=0, select bank1
  1654     0F25  083E               	movf	(main@temperature+1)^(0+128),w
  1655     0F26  1283               	bcf	3,5	;RP0=0, select bank0
  1656     0F27  1303               	bcf	3,6	;RP1=0, select bank0
  1657     0F28  00D5               	movwf	___fltol@f1+1
  1658     0F29  1683               	bsf	3,5	;RP0=1, select bank1
  1659     0F2A  1303               	bcf	3,6	;RP1=0, select bank1
  1660     0F2B  083D               	movf	main@temperature^(0+128),w
  1661     0F2C  1283               	bcf	3,5	;RP0=0, select bank0
  1662     0F2D  1303               	bcf	3,6	;RP1=0, select bank0
  1663     0F2E  00D4               	movwf	___fltol@f1
  1664     0F2F  160A  118A  2788  120A  158A  	fcall	___fltol
  1665     0F34  1283               	bcf	3,5	;RP0=0, select bank0
  1666     0F35  1303               	bcf	3,6	;RP1=0, select bank0
  1667     0F36  0855               	movf	?___fltol+1,w
  1668     0F37  00E0               	movwf	?_sprintf+2
  1669     0F38  0854               	movf	?___fltol,w
  1670     0F39  00DF               	movwf	?_sprintf+1
  1671     0F3A  30A8               	movlw	(low (main@strTemp| 0))& (0+255)
  1672     0F3B  160A  118A  23BE  120A  158A  	fcall	_sprintf
  1673     0F40                     l2838:
  1674                           
  1675                           ;teste.c: 148:         _delay((unsigned long)((2000)*(4000000/4000.0)));
  1676     0F40  3002               	movlw	2
  1677     0F41  1283               	bcf	3,5	;RP0=0, select bank0
  1678     0F42  1303               	bcf	3,6	;RP1=0, select bank0
  1679     0F43  00A0               	movwf	Lcd_SetCursor@row
  1680     0F44  01A1               	clrf	Lcd_SetCursor@column
  1681     0F45  0AA1               	incf	Lcd_SetCursor@column,f
  1682     0F46  30C1               	movlw	(low (main@lcd| 0))& (0+255)
  1683     0F47  160A  118A  244A  120A  158A  	fcall	_Lcd_SetCursor
  1684     0F4C                     l2840:
  1685                           
  1686                           ;teste.c: 149:     }
  1687     0F4C  30A8               	movlw	(low (main@strTemp| 0))& (0+255)
  1688     0F4D  1283               	bcf	3,5	;RP0=0, select bank0
  1689     0F4E  1303               	bcf	3,6	;RP1=0, select bank0
  1690     0F4F  00A0               	movwf	Lcd_WriteString@str
  1691     0F50  3000               	movlw	0
  1692     0F51  00A1               	movwf	Lcd_WriteString@str+1
  1693     0F52  30C1               	movlw	(low (main@lcd| 0))& (0+255)
  1694     0F53  160A  118A  249C  120A  158A  	fcall	_Lcd_WriteString
  1695     0F58                     l2842:
  1696                           
  1697                           ;teste.c: 150: }
  1698     0F58  3002               	movlw	2
  1699     0F59  1283               	bcf	3,5	;RP0=0, select bank0
  1700     0F5A  1303               	bcf	3,6	;RP1=0, select bank0
  1701     0F5B  00A0               	movwf	Lcd_SetCursor@row
  1702     0F5C  3003               	movlw	3
  1703     0F5D  00A1               	movwf	Lcd_SetCursor@column
  1704     0F5E  30C1               	movlw	(low (main@lcd| 0))& (0+255)
  1705     0F5F  160A  118A  244A  120A  158A  	fcall	_Lcd_SetCursor
  1706     0F64                     l2844:
  1707     0F64  01FD               	clrf	Lcd_WriteCustomChar@location
  1708     0F65  30C1               	movlw	(low (main@lcd| 0))& (0+255)
  1709     0F66  160A  118A  234B  120A  158A  	fcall	_Lcd_WriteCustomChar
  1710     0F6B                     l2846:
  1711     0F6B  3042               	movlw	66
  1712     0F6C  00F3               	movwf	___flge@ff1+3
  1713     0F6D  3014               	movlw	20
  1714     0F6E  00F2               	movwf	___flge@ff1+2
  1715     0F6F  3000               	movlw	0
  1716     0F70  00F1               	movwf	___flge@ff1+1
  1717     0F71  3000               	movlw	0
  1718     0F72  00F0               	movwf	___flge@ff1
  1719     0F73  1683               	bsf	3,5	;RP0=1, select bank1
  1720     0F74  1303               	bcf	3,6	;RP1=0, select bank1
  1721     0F75  0840               	movf	(main@temperature+3)^(0+128),w
  1722     0F76  00F7               	movwf	___flge@ff2+3
  1723     0F77  083F               	movf	(main@temperature+2)^(0+128),w
  1724     0F78  00F6               	movwf	___flge@ff2+2
  1725     0F79  083E               	movf	(main@temperature+1)^(0+128),w
  1726     0F7A  00F5               	movwf	___flge@ff2+1
  1727     0F7B  083D               	movf	main@temperature^(0+128),w
  1728     0F7C  00F4               	movwf	___flge@ff2
  1729     0F7D  120A  158A  2071  120A  158A  	fcall	___flge
  1730     0F82  1803               	btfsc	3,0
  1731     0F83  2F85               	goto	u4851
  1732     0F84  2F86               	goto	u4850
  1733     0F85                     u4851:
  1734     0F85  2F8B               	goto	l2850
  1735     0F86                     u4850:
  1736     0F86                     l2848:
  1737     0F86  30C8               	movlw	200
  1738     0F87  1283               	bcf	3,5	;RP0=0, select bank0
  1739     0F88  1303               	bcf	3,6	;RP1=0, select bank0
  1740     0F89  0095               	movwf	21	;volatile
  1741     0F8A  2FEE               	goto	l2864
  1742     0F8B                     l2850:
  1743     0F8B  3041               	movlw	65
  1744     0F8C  00F3               	movwf	___flge@ff1+3
  1745     0F8D  30F0               	movlw	240
  1746     0F8E  00F2               	movwf	___flge@ff1+2
  1747     0F8F  3000               	movlw	0
  1748     0F90  00F1               	movwf	___flge@ff1+1
  1749     0F91  3000               	movlw	0
  1750     0F92  00F0               	movwf	___flge@ff1
  1751     0F93  1683               	bsf	3,5	;RP0=1, select bank1
  1752     0F94  1303               	bcf	3,6	;RP1=0, select bank1
  1753     0F95  0840               	movf	(main@temperature+3)^(0+128),w
  1754     0F96  00F7               	movwf	___flge@ff2+3
  1755     0F97  083F               	movf	(main@temperature+2)^(0+128),w
  1756     0F98  00F6               	movwf	___flge@ff2+2
  1757     0F99  083E               	movf	(main@temperature+1)^(0+128),w
  1758     0F9A  00F5               	movwf	___flge@ff2+1
  1759     0F9B  083D               	movf	main@temperature^(0+128),w
  1760     0F9C  00F4               	movwf	___flge@ff2
  1761     0F9D  120A  158A  2071  120A  158A  	fcall	___flge
  1762     0FA2  1803               	btfsc	3,0
  1763     0FA3  2FA5               	goto	u4861
  1764     0FA4  2FA6               	goto	u4860
  1765     0FA5                     u4861:
  1766     0FA5  2FAB               	goto	l2854
  1767     0FA6                     u4860:
  1768     0FA6                     l2852:
  1769     0FA6  3032               	movlw	50
  1770     0FA7  1283               	bcf	3,5	;RP0=0, select bank0
  1771     0FA8  1303               	bcf	3,6	;RP1=0, select bank0
  1772     0FA9  0095               	movwf	21	;volatile
  1773     0FAA  2FEE               	goto	l2864
  1774     0FAB                     l2854:
  1775     0FAB  3041               	movlw	65
  1776     0FAC  00F3               	movwf	___flge@ff1+3
  1777     0FAD  30D0               	movlw	208
  1778     0FAE  00F2               	movwf	___flge@ff1+2
  1779     0FAF  3000               	movlw	0
  1780     0FB0  00F1               	movwf	___flge@ff1+1
  1781     0FB1  3000               	movlw	0
  1782     0FB2  00F0               	movwf	___flge@ff1
  1783     0FB3  1683               	bsf	3,5	;RP0=1, select bank1
  1784     0FB4  1303               	bcf	3,6	;RP1=0, select bank1
  1785     0FB5  0840               	movf	(main@temperature+3)^(0+128),w
  1786     0FB6  00F7               	movwf	___flge@ff2+3
  1787     0FB7  083F               	movf	(main@temperature+2)^(0+128),w
  1788     0FB8  00F6               	movwf	___flge@ff2+2
  1789     0FB9  083E               	movf	(main@temperature+1)^(0+128),w
  1790     0FBA  00F5               	movwf	___flge@ff2+1
  1791     0FBB  083D               	movf	main@temperature^(0+128),w
  1792     0FBC  00F4               	movwf	___flge@ff2
  1793     0FBD  120A  158A  2071  120A  158A  	fcall	___flge
  1794     0FC2  1803               	btfsc	3,0
  1795     0FC3  2FC5               	goto	u4871
  1796     0FC4  2FC6               	goto	u4870
  1797     0FC5                     u4871:
  1798     0FC5  2FCB               	goto	l2858
  1799     0FC6                     u4870:
  1800     0FC6                     l2856:
  1801     0FC6  301E               	movlw	30
  1802     0FC7  1283               	bcf	3,5	;RP0=0, select bank0
  1803     0FC8  1303               	bcf	3,6	;RP1=0, select bank0
  1804     0FC9  0095               	movwf	21	;volatile
  1805     0FCA  2FEE               	goto	l2864
  1806     0FCB                     l2858:
  1807     0FCB  3041               	movlw	65
  1808     0FCC  00F3               	movwf	___flge@ff1+3
  1809     0FCD  30B8               	movlw	184
  1810     0FCE  00F2               	movwf	___flge@ff1+2
  1811     0FCF  3000               	movlw	0
  1812     0FD0  00F1               	movwf	___flge@ff1+1
  1813     0FD1  3000               	movlw	0
  1814     0FD2  00F0               	movwf	___flge@ff1
  1815     0FD3  1683               	bsf	3,5	;RP0=1, select bank1
  1816     0FD4  1303               	bcf	3,6	;RP1=0, select bank1
  1817     0FD5  0840               	movf	(main@temperature+3)^(0+128),w
  1818     0FD6  00F7               	movwf	___flge@ff2+3
  1819     0FD7  083F               	movf	(main@temperature+2)^(0+128),w
  1820     0FD8  00F6               	movwf	___flge@ff2+2
  1821     0FD9  083E               	movf	(main@temperature+1)^(0+128),w
  1822     0FDA  00F5               	movwf	___flge@ff2+1
  1823     0FDB  083D               	movf	main@temperature^(0+128),w
  1824     0FDC  00F4               	movwf	___flge@ff2
  1825     0FDD  120A  158A  2071  120A  158A  	fcall	___flge
  1826     0FE2  1803               	btfsc	3,0
  1827     0FE3  2FE5               	goto	u4881
  1828     0FE4  2FE6               	goto	u4880
  1829     0FE5                     u4881:
  1830     0FE5  2FEB               	goto	l2862
  1831     0FE6                     u4880:
  1832     0FE6                     l2860:
  1833     0FE6  300F               	movlw	15
  1834     0FE7  1283               	bcf	3,5	;RP0=0, select bank0
  1835     0FE8  1303               	bcf	3,6	;RP1=0, select bank0
  1836     0FE9  0095               	movwf	21	;volatile
  1837     0FEA  2FEE               	goto	l2864
  1838     0FEB                     l2862:
  1839     0FEB  1283               	bcf	3,5	;RP0=0, select bank0
  1840     0FEC  1303               	bcf	3,6	;RP1=0, select bank0
  1841     0FED  0195               	clrf	21	;volatile
  1842     0FEE                     l2864:
  1843     0FEE  300B               	movlw	11
  1844     0FEF  1683               	bsf	3,5	;RP0=1, select bank1
  1845     0FF0  1303               	bcf	3,6	;RP1=0, select bank1
  1846     0FF1  00A6               	movwf	(??_main^(0+128)+2)
  1847     0FF2  3026               	movlw	38
  1848     0FF3  00A5               	movwf	(??_main^(0+128)+1)
  1849     0FF4  305D               	movlw	93
  1850     0FF5  00A4               	movwf	??_main^(0+128)
  1851     0FF6                     u4907:
  1852     0FF6  0BA4               	decfsz	??_main^(0+128),f
  1853     0FF7  2FF6               	goto	u4907
  1854     0FF8  0BA5               	decfsz	(??_main^(0+128)+1),f
  1855     0FF9  2FF6               	goto	u4907
  1856     0FFA  0BA6               	decfsz	(??_main^(0+128)+2),f
  1857     0FFB  2FF6               	goto	u4907
  1858     0FFC  2DEF               	goto	l2810
  1859     0FFD  120A  118A  2800   	ljmp	start
  1860     1000                     __end_of_main:
  1861                           
  1862                           	psect	text1
  1863     13BE                     __ptext1:	
  1864 ;; *************** function _sprintf *****************
  1865 ;; Defined at:
  1866 ;;		line 9 in file "/Applications/microchip/xc8/v2.45/pic/sources/c99/common/nf_sprintf.c"
  1867 ;; Parameters:    Size  Location     Type
  1868 ;;  s               1    wreg     PTR unsigned char 
  1869 ;;		 -> main@strTemp(6), main@strRPM(6), 
  1870 ;;  fmt             1   62[BANK0 ] PTR const unsigned char 
  1871 ;;		 -> STR_4(4), STR_3(4), 
  1872 ;; Auto vars:     Size  Location     Type
  1873 ;;  s               1   67[BANK0 ] PTR unsigned char 
  1874 ;;		 -> main@strTemp(6), main@strRPM(6), 
  1875 ;;  f              11   68[BANK0 ] struct _IO_FILE
  1876 ;;  ret             2    0        int 
  1877 ;;  ap              1   66[BANK0 ] PTR void [1]
  1878 ;;		 -> ?_sprintf(2), 
  1879 ;; Return value:  Size  Location     Type
  1880 ;;                  2   62[BANK0 ] int 
  1881 ;; Registers used:
  1882 ;;		wreg, fsr0l, fsr0h, status,2, status,0, pclath, cstack
  1883 ;; Tracked objects:
  1884 ;;		On entry : 0/0
  1885 ;;		On exit  : 0/0
  1886 ;;		Unchanged: 0/0
  1887 ;; Data sizes:     COMMON   BANK0   BANK1   BANK3   BANK2
  1888 ;;      Params:         0       3       0       0       0
  1889 ;;      Locals:         0      13       0       0       0
  1890 ;;      Temps:          0       1       0       0       0
  1891 ;;      Totals:         0      17       0       0       0
  1892 ;;Total ram usage:       17 bytes
  1893 ;; Hardware stack levels used: 1
  1894 ;; Hardware stack levels required when called: 7
  1895 ;; This function calls:
  1896 ;;		_vfprintf
  1897 ;; This function is called by:
  1898 ;;		_main
  1899 ;; This function uses a non-reentrant model
  1900 ;;
  1901                           
  1902     13BE                     _sprintf:	
  1903                           ;psect for function _sprintf
  1904                           
  1905                           
  1906                           ;incstack = 0
  1907                           ; Regs used in _sprintf: [wreg-fsr0h+status,2+status,0+pclath+cstack]
  1908                           ;sprintf@s stored from wreg
  1909     13BE  1283               	bcf	3,5	;RP0=0, select bank0
  1910     13BF  1303               	bcf	3,6	;RP1=0, select bank0
  1911     13C0  00E3               	movwf	sprintf@s
  1912     13C1                     l2524:
  1913     13C1  305F               	movlw	(low ((?_sprintf| 0+1)))& (0+255)
  1914     13C2  00E2               	movwf	sprintf@ap
  1915     13C3  0863               	movf	sprintf@s,w
  1916     13C4  00E4               	movwf	sprintf@f
  1917     13C5                     l2526:
  1918     13C5  01E6               	clrf	sprintf@f+2
  1919     13C6  01E7               	clrf	sprintf@f+3
  1920     13C7                     l2528:
  1921     13C7  01ED               	clrf	sprintf@f+9
  1922     13C8  01EE               	clrf	sprintf@f+10
  1923     13C9                     l2530:
  1924     13C9  085E               	movf	sprintf@fmt,w
  1925     13CA  00BA               	movwf	vfprintf@fmt
  1926     13CB  3062               	movlw	(low (sprintf@ap| 0))& (0+255)
  1927     13CC  00BB               	movwf	vfprintf@ap
  1928     13CD  3064               	movlw	(low (sprintf@f| 0))& (0+255)
  1929     13CE  160A  118A  23DD  160A  118A  	fcall	_vfprintf
  1930     13D3                     l2532:
  1931     13D3  1283               	bcf	3,5	;RP0=0, select bank0
  1932     13D4  1303               	bcf	3,6	;RP1=0, select bank0
  1933     13D5  0866               	movf	sprintf@f+2,w
  1934     13D6  0763               	addwf	sprintf@s,w
  1935     13D7  00E1               	movwf	??_sprintf
  1936     13D8  0861               	movf	??_sprintf,w
  1937     13D9  0084               	movwf	4
  1938     13DA  1383               	bcf	3,7	;select IRP bank0
  1939     13DB  0180               	clrf	0
  1940     13DC                     l699:
  1941     13DC  0008               	return
  1942     13DD                     __end_of_sprintf:
  1943                           
  1944                           	psect	text2
  1945     13DD                     __ptext2:	
  1946 ;; *************** function _vfprintf *****************
  1947 ;; Defined at:
  1948 ;;		line 1817 in file "/Applications/microchip/xc8/v2.45/pic/sources/c99/common/doprnt.c"
  1949 ;; Parameters:    Size  Location     Type
  1950 ;;  fp              1    wreg     PTR struct _IO_FILE
  1951 ;;		 -> sprintf@f(11), 
  1952 ;;  fmt             1   26[BANK0 ] PTR const unsigned char 
  1953 ;;		 -> STR_4(4), STR_3(4), 
  1954 ;;  ap              1   27[BANK0 ] PTR PTR void 
  1955 ;;		 -> sprintf@ap(1), 
  1956 ;; Auto vars:     Size  Location     Type
  1957 ;;  fp              1   28[BANK0 ] PTR struct _IO_FILE
  1958 ;;		 -> sprintf@f(11), 
  1959 ;;  cfmt            1   29[BANK0 ] PTR unsigned char 
  1960 ;;		 -> STR_4(4), STR_3(4), 
  1961 ;; Return value:  Size  Location     Type
  1962 ;;                  2   26[BANK0 ] int 
  1963 ;; Registers used:
  1964 ;;		wreg, fsr0l, fsr0h, status,2, status,0, pclath, cstack
  1965 ;; Tracked objects:
  1966 ;;		On entry : 0/0
  1967 ;;		On exit  : 0/0
  1968 ;;		Unchanged: 0/0
  1969 ;; Data sizes:     COMMON   BANK0   BANK1   BANK3   BANK2
  1970 ;;      Params:         0       2       0       0       0
  1971 ;;      Locals:         0       2       0       0       0
  1972 ;;      Temps:          0       0       0       0       0
  1973 ;;      Totals:         0       4       0       0       0
  1974 ;;Total ram usage:        4 bytes
  1975 ;; Hardware stack levels used: 1
  1976 ;; Hardware stack levels required when called: 6
  1977 ;; This function calls:
  1978 ;;		_vfpfcnvrt
  1979 ;; This function is called by:
  1980 ;;		_sprintf
  1981 ;; This function uses a non-reentrant model
  1982 ;;
  1983                           
  1984     13DD                     _vfprintf:	
  1985                           ;psect for function _vfprintf
  1986                           
  1987                           
  1988                           ;incstack = 0
  1989 ;; using string table level
  1990                           ; Regs used in _vfprintf: [wreg-fsr0h+status,2+status,0+pclath+cstack]
  1991                           ;vfprintf@fp stored from wreg
  1992     13DD  1283               	bcf	3,5	;RP0=0, select bank0
  1993     13DE  1303               	bcf	3,6	;RP1=0, select bank0
  1994     13DF  00BC               	movwf	vfprintf@fp
  1995     13E0                     l2394:
  1996                           
  1997                           ;/Applications/microchip/xc8/v2.45/pic/sources/c99/common/doprnt.c: 1817: int vfprintf(F
      +                          ILE *fp, const char *fmt, va_list ap);/Applications/microchip/xc8/v2.45/pic/sources/c99/
      +                          common/doprnt.c: 1818: {;/Applications/microchip/xc8/v2.45/pic/sources/c99/common/doprnt
      +                          .c: 1820:     char *cfmt;;/Applications/microchip/xc8/v2.45/pic/sources/c99/common/doprn
      +                          t.c: 1822:     cfmt = (char *)fmt;
  1998     13E0  083A               	movf	vfprintf@fmt,w
  1999     13E1  00BD               	movwf	vfprintf@cfmt
  2000                           
  2001                           ;/Applications/microchip/xc8/v2.45/pic/sources/c99/common/doprnt.c: 1826:     while (*cf
      +                          mt) {
  2002     13E2  2BED               	goto	l2398
  2003     13E3                     l2396:
  2004                           
  2005                           ;/Applications/microchip/xc8/v2.45/pic/sources/c99/common/doprnt.c: 1830:    vfpfcnvrt(f
      +                          p, &cfmt, ap);
  2006     13E3  303D               	movlw	(low (vfprintf@cfmt| 0))& (0+255)
  2007     13E4  00B0               	movwf	vfpfcnvrt@fmt
  2008     13E5  083B               	movf	vfprintf@ap,w
  2009     13E6  00B1               	movwf	vfpfcnvrt@ap
  2010     13E7  083C               	movf	vfprintf@fp,w
  2011     13E8  120A  158A  2113  160A  118A  	fcall	_vfpfcnvrt
  2012     13ED                     l2398:
  2013                           
  2014                           ;/Applications/microchip/xc8/v2.45/pic/sources/c99/common/doprnt.c: 1826:     while (*cf
      +                          mt) {
  2015     13ED  1283               	bcf	3,5	;RP0=0, select bank0
  2016     13EE  1303               	bcf	3,6	;RP1=0, select bank0
  2017     13EF  083D               	movf	vfprintf@cfmt,w
  2018     13F0  0084               	movwf	4
  2019     13F1  160A  118A  200A  160A  118A  	fcall	stringdir
  2020     13F6  3A00               	xorlw	0
  2021     13F7  1D03               	skipz
  2022     13F8  2BFA               	goto	u4121
  2023     13F9  2BFB               	goto	u4120
  2024     13FA                     u4121:
  2025     13FA  2BE3               	goto	l2396
  2026     13FB                     u4120:
  2027     13FB                     l2400:
  2028                           
  2029                           ;/Applications/microchip/xc8/v2.45/pic/sources/c99/common/doprnt.c: 1835:  return 0;
  2030     13FB  01BA               	clrf	?_vfprintf
  2031     13FC  01BB               	clrf	?_vfprintf+1
  2032     13FD                     l755:
  2033     13FD  0008               	return
  2034     13FE                     __end_of_vfprintf:
  2035                           
  2036                           	psect	text3
  2037     0913                     __ptext3:	
  2038 ;; *************** function _vfpfcnvrt *****************
  2039 ;; Defined at:
  2040 ;;		line 1177 in file "/Applications/microchip/xc8/v2.45/pic/sources/c99/common/doprnt.c"
  2041 ;; Parameters:    Size  Location     Type
  2042 ;;  fp              1    wreg     PTR struct _IO_FILE
  2043 ;;		 -> sprintf@f(11), 
  2044 ;;  fmt             1   16[BANK0 ] PTR PTR unsigned char 
  2045 ;;		 -> vfprintf@cfmt(1), 
  2046 ;;  ap              1   17[BANK0 ] PTR PTR void 
  2047 ;;		 -> sprintf@ap(1), 
  2048 ;; Auto vars:     Size  Location     Type
  2049 ;;  fp              1   24[BANK0 ] PTR struct _IO_FILE
  2050 ;;		 -> sprintf@f(11), 
  2051 ;;  convarg         4   20[BANK0 ] struct .
  2052 ;;  cp              1   25[BANK0 ] PTR unsigned char 
  2053 ;;		 -> STR_4(4), STR_3(4), 
  2054 ;;  done            1    0        _Bool 
  2055 ;;  c               1    0        unsigned char 
  2056 ;; Return value:  Size  Location     Type
  2057 ;;                  1    wreg      void 
  2058 ;; Registers used:
  2059 ;;		wreg, fsr0l, fsr0h, status,2, status,0, pclath, cstack
  2060 ;; Tracked objects:
  2061 ;;		On entry : 0/0
  2062 ;;		On exit  : 0/0
  2063 ;;		Unchanged: 0/0
  2064 ;; Data sizes:     COMMON   BANK0   BANK1   BANK3   BANK2
  2065 ;;      Params:         0       2       0       0       0
  2066 ;;      Locals:         0       6       0       0       0
  2067 ;;      Temps:          0       2       0       0       0
  2068 ;;      Totals:         0      10       0       0       0
  2069 ;;Total ram usage:       10 bytes
  2070 ;; Hardware stack levels used: 1
  2071 ;; Hardware stack levels required when called: 5
  2072 ;; This function calls:
  2073 ;;		_fputc
  2074 ;;		_read_prec_or_width
  2075 ;;		_utoa
  2076 ;; This function is called by:
  2077 ;;		_vfprintf
  2078 ;; This function uses a non-reentrant model
  2079 ;;
  2080                           
  2081     0913                     _vfpfcnvrt:	
  2082                           ;psect for function _vfpfcnvrt
  2083                           
  2084                           
  2085                           ;incstack = 0
  2086 ;; using string table level
  2087                           ; Regs used in _vfpfcnvrt: [wreg-fsr0h+status,2+status,0+pclath+cstack]
  2088                           ;vfpfcnvrt@fp stored from wreg
  2089     0913  1283               	bcf	3,5	;RP0=0, select bank0
  2090     0914  1303               	bcf	3,6	;RP1=0, select bank0
  2091     0915  00B8               	movwf	vfpfcnvrt@fp
  2092     0916                     l2012:
  2093                           
  2094                           ;/Applications/microchip/xc8/v2.45/pic/sources/c99/common/doprnt.c: 1177: vfpfcnvrt(FILE
      +                           *fp, char *fmt[], va_list ap);/Applications/microchip/xc8/v2.45/pic/sources/c99/common/
      +                          doprnt.c: 1178: {;/Applications/microchip/xc8/v2.45/pic/sources/c99/common/doprnt.c: 117
      +                          9:     char c, *cp;;/Applications/microchip/xc8/v2.45/pic/sources/c99/common/doprnt.c: 1
      +                          180:     _Bool done;;/Applications/microchip/xc8/v2.45/pic/sources/c99/common/doprnt.c: 
      +                          1188:  } convarg;;/Applications/microchip/xc8/v2.45/pic/sources/c99/common/doprnt.c: 120
      +                          1:     if ((*fmt)[0] == '%') {
  2095     0916  0830               	movf	vfpfcnvrt@fmt,w
  2096     0917  0084               	movwf	4
  2097     0918  1383               	bcf	3,7	;select IRP bank0
  2098     0919  0800               	movf	0,w
  2099     091A  0084               	movwf	4
  2100     091B  160A  118A  200A  120A  158A  	fcall	stringdir
  2101     0920  3A25               	xorlw	37
  2102     0921  1D03               	skipz
  2103     0922  2924               	goto	u3051
  2104     0923  2925               	goto	u3050
  2105     0924                     u3051:
  2106     0924  29A8               	goto	l2046
  2107     0925                     u3050:
  2108     0925                     l2014:
  2109                           
  2110                           ;/Applications/microchip/xc8/v2.45/pic/sources/c99/common/doprnt.c: 1202:         ++*fmt
      +                          ;
  2111     0925  3001               	movlw	1
  2112     0926  00B2               	movwf	??_vfpfcnvrt
  2113     0927  0830               	movf	vfpfcnvrt@fmt,w
  2114     0928  0084               	movwf	4
  2115     0929  0832               	movf	??_vfpfcnvrt,w
  2116     092A  0780               	addwf	0,f
  2117     092B                     l2016:
  2118                           
  2119                           ;/Applications/microchip/xc8/v2.45/pic/sources/c99/common/doprnt.c: 1204:         flags 
      +                          = width = 0;
  2120     092B  1683               	bsf	3,5	;RP0=1, select bank1
  2121     092C  1303               	bcf	3,6	;RP1=0, select bank1
  2122     092D  01D9               	clrf	_width^(0+128)
  2123     092E  01DA               	clrf	(_width+1)^(0+128)
  2124     092F  1003               	clrc
  2125     0930  3000               	movlw	0
  2126     0931  1803               	btfsc	3,0
  2127     0932  3001               	movlw	1
  2128     0933  1283               	bcf	3,5	;RP0=0, select bank0
  2129     0934  1303               	bcf	3,6	;RP1=0, select bank0
  2130     0935  00EF               	movwf	_flags
  2131     0936                     l2018:
  2132                           
  2133                           ;/Applications/microchip/xc8/v2.45/pic/sources/c99/common/doprnt.c: 1205:         prec =
      +                           -1;
  2134     0936  30FF               	movlw	255
  2135     0937  1683               	bsf	3,5	;RP0=1, select bank1
  2136     0938  1303               	bcf	3,6	;RP1=0, select bank1
  2137     0939  00DB               	movwf	_prec^(0+128)
  2138     093A  30FF               	movlw	255
  2139     093B  00DC               	movwf	(_prec^(0+128)+1)
  2140     093C                     l2020:
  2141                           
  2142                           ;/Applications/microchip/xc8/v2.45/pic/sources/c99/common/doprnt.c: 1256:   width = read
      +                          _prec_or_width(fmt, ap);
  2143     093C  1283               	bcf	3,5	;RP0=0, select bank0
  2144     093D  1303               	bcf	3,6	;RP1=0, select bank0
  2145     093E  0831               	movf	vfpfcnvrt@ap,w
  2146     093F  00F6               	movwf	read_prec_or_width@ap
  2147     0940  0830               	movf	vfpfcnvrt@fmt,w
  2148     0941  120A  118A  2014  120A  158A  	fcall	_read_prec_or_width
  2149     0946  0877               	movf	?_read_prec_or_width+1,w
  2150     0947  1683               	bsf	3,5	;RP0=1, select bank1
  2151     0948  1303               	bcf	3,6	;RP1=0, select bank1
  2152     0949  00DA               	movwf	(_width+1)^(0+128)
  2153     094A  0876               	movf	?_read_prec_or_width,w
  2154     094B  00D9               	movwf	_width^(0+128)
  2155     094C                     l2022:
  2156                           
  2157                           ;/Applications/microchip/xc8/v2.45/pic/sources/c99/common/doprnt.c: 1257:   if (width < 
      +                          0) {
  2158     094C  1FDA               	btfss	(_width+1)^(0+128),7
  2159     094D  294F               	goto	u3061
  2160     094E  2950               	goto	u3060
  2161     094F                     u3061:
  2162     094F  295A               	goto	l2028
  2163     0950                     u3060:
  2164     0950                     l2024:
  2165                           
  2166                           ;/Applications/microchip/xc8/v2.45/pic/sources/c99/common/doprnt.c: 1258:    flags |= (1
      +                           << 0);
  2167     0950  1283               	bcf	3,5	;RP0=0, select bank0
  2168     0951  1303               	bcf	3,6	;RP1=0, select bank0
  2169     0952  146F               	bsf	_flags,0
  2170     0953                     l2026:
  2171                           
  2172                           ;/Applications/microchip/xc8/v2.45/pic/sources/c99/common/doprnt.c: 1259:    width = -wi
      +                          dth;
  2173     0953  1683               	bsf	3,5	;RP0=1, select bank1
  2174     0954  1303               	bcf	3,6	;RP1=0, select bank1
  2175     0955  09D9               	comf	_width^(0+128),f
  2176     0956  09DA               	comf	(_width+1)^(0+128),f
  2177     0957  0AD9               	incf	_width^(0+128),f
  2178     0958  1903               	skipnz
  2179     0959  0ADA               	incf	(_width+1)^(0+128),f
  2180     095A                     l2028:
  2181                           
  2182                           ;/Applications/microchip/xc8/v2.45/pic/sources/c99/common/doprnt.c: 1439:   if (0
  2183     095A  1283               	bcf	3,5	;RP0=0, select bank0
  2184     095B  1303               	bcf	3,6	;RP1=0, select bank0
  2185     095C  0830               	movf	vfpfcnvrt@fmt,w
  2186     095D  0084               	movwf	4
  2187     095E  1383               	bcf	3,7	;select IRP bank0
  2188     095F  0800               	movf	0,w
  2189     0960  00B9               	movwf	vfpfcnvrt@cp
  2190     0961                     l2030:
  2191     0961  0839               	movf	vfpfcnvrt@cp,w
  2192     0962  0084               	movwf	4
  2193     0963  160A  118A  200A  120A  158A  	fcall	stringdir
  2194     0968  3A75               	xorlw	117
  2195     0969  1D03               	skipz
  2196     096A  296C               	goto	u3071
  2197     096B  296D               	goto	u3070
  2198     096C                     u3071:
  2199     096C  299E               	goto	l2042
  2200     096D                     u3070:
  2201     096D                     l2032:
  2202                           
  2203                           ;/Applications/microchip/xc8/v2.45/pic/sources/c99/common/doprnt.c: 1452:     ) {;/Appli
      +                          cations/microchip/xc8/v2.45/pic/sources/c99/common/doprnt.c: 1495:    convarg.uint = (vf
      +                          pf_uint_t)(unsigned int)(*(unsigned int *)__va_arg(*(unsigned int **)ap, (unsigned int)0
      +                          ));
  2204     096D  0831               	movf	vfpfcnvrt@ap,w
  2205     096E  0084               	movwf	4
  2206     096F  0800               	movf	0,w
  2207     0970  00B2               	movwf	??_vfpfcnvrt
  2208     0971  3002               	movlw	2
  2209     0972  0780               	addwf	0,f
  2210     0973  0832               	movf	??_vfpfcnvrt,w
  2211     0974  0084               	movwf	4
  2212     0975  0800               	movf	0,w
  2213     0976  00B4               	movwf	vfpfcnvrt@convarg
  2214     0977  0A84               	incf	4,f
  2215     0978  0800               	movf	0,w
  2216     0979  00B5               	movwf	vfpfcnvrt@convarg+1
  2217                           
  2218                           ;/Applications/microchip/xc8/v2.45/pic/sources/c99/common/doprnt.c: 1497:    *fmt = cp+1
      +                          ;
  2219     097A  0830               	movf	vfpfcnvrt@fmt,w
  2220     097B  0084               	movwf	4
  2221     097C  0839               	movf	vfpfcnvrt@cp,w
  2222     097D  3E01               	addlw	1
  2223     097E  0080               	movwf	0
  2224                           
  2225                           ;/Applications/microchip/xc8/v2.45/pic/sources/c99/common/doprnt.c: 1498:    switch (*cp
      +                          ) {
  2226     097F  298B               	goto	l2040
  2227     0980                     l2034:
  2228                           
  2229                           ;/Applications/microchip/xc8/v2.45/pic/sources/c99/common/doprnt.c: 1542:      return (v
      +                          oid) utoa(fp, convarg.uint);;	Return value of _vfpfcnvrt is never used
  2230     0980  0835               	movf	vfpfcnvrt@convarg+1,w
  2231     0981  00A9               	movwf	utoa@d+1
  2232     0982  0834               	movf	vfpfcnvrt@convarg,w
  2233     0983  00A8               	movwf	utoa@d
  2234     0984  0838               	movf	vfpfcnvrt@fp,w
  2235     0985  120A  158A  2001  120A  158A  	fcall	_utoa
  2236     098A  29BF               	goto	l748
  2237     098B                     l2040:
  2238     098B  0839               	movf	vfpfcnvrt@cp,w
  2239     098C  0084               	movwf	4
  2240     098D  160A  118A  200A  120A  158A  	fcall	stringdir
  2241     0992  00B2               	movwf	??_vfpfcnvrt
  2242     0993  01B3               	clrf	??_vfpfcnvrt+1
  2243                           
  2244                           ; Switch on 2 bytes has been partitioned into a top level switch of size 1, and 1 sub-sw
      +                          itches
  2245                           ; Switch size 1, requested type "simple"
  2246                           ; Number of cases is 1, Range of values is 0 to 0
  2247                           ; switch strategies available:
  2248                           ; Name         Instructions Cycles
  2249                           ; simple_byte            4     3 (average)
  2250                           ; direct_byte           11     8 (fixed)
  2251                           ; jumptable            260     6 (fixed)
  2252                           ;	Chosen strategy is simple_byte
  2253     0994  0833               	movf	??_vfpfcnvrt+1,w
  2254     0995  3A00               	xorlw	0	; case 0
  2255     0996  1903               	skipnz
  2256     0997  2999               	goto	l2916
  2257     0998  299E               	goto	l2042
  2258     0999                     l2916:
  2259                           
  2260                           ; Switch size 1, requested type "simple"
  2261                           ; Number of cases is 1, Range of values is 117 to 117
  2262                           ; switch strategies available:
  2263                           ; Name         Instructions Cycles
  2264                           ; simple_byte            4     3 (average)
  2265                           ; direct_byte           14    11 (fixed)
  2266                           ; jumptable            263     9 (fixed)
  2267                           ;	Chosen strategy is simple_byte
  2268     0999  0832               	movf	??_vfpfcnvrt,w
  2269     099A  3A75               	xorlw	117	; case 117
  2270     099B  1903               	skipnz
  2271     099C  2980               	goto	l2034
  2272     099D  299E               	goto	l2042
  2273     099E                     l2042:
  2274                           
  2275                           ;/Applications/microchip/xc8/v2.45/pic/sources/c99/common/doprnt.c: 1806:         ++*fmt
      +                          ;
  2276     099E  3001               	movlw	1
  2277     099F  1283               	bcf	3,5	;RP0=0, select bank0
  2278     09A0  1303               	bcf	3,6	;RP1=0, select bank0
  2279     09A1  00B2               	movwf	??_vfpfcnvrt
  2280     09A2  0830               	movf	vfpfcnvrt@fmt,w
  2281     09A3  0084               	movwf	4
  2282     09A4  0832               	movf	??_vfpfcnvrt,w
  2283     09A5  1383               	bcf	3,7	;select IRP bank0
  2284     09A6  0780               	addwf	0,f
  2285     09A7  29BF               	goto	l748
  2286     09A8                     l2046:
  2287                           
  2288                           ;/Applications/microchip/xc8/v2.45/pic/sources/c99/common/doprnt.c: 1811:     fputc((int
      +                          )(*fmt)[0], fp);
  2289     09A8  0830               	movf	vfpfcnvrt@fmt,w
  2290     09A9  0084               	movwf	4
  2291     09AA  0800               	movf	0,w
  2292     09AB  0084               	movwf	4
  2293     09AC  160A  118A  200A  120A  158A  	fcall	stringdir
  2294     09B1  00B2               	movwf	??_vfpfcnvrt
  2295     09B2  01B3               	clrf	??_vfpfcnvrt+1
  2296     09B3  0832               	movf	??_vfpfcnvrt,w
  2297     09B4  00F0               	movwf	fputc@c
  2298     09B5  0833               	movf	??_vfpfcnvrt+1,w
  2299     09B6  00F1               	movwf	fputc@c+1
  2300     09B7  0838               	movf	vfpfcnvrt@fp,w
  2301     09B8  00F2               	movwf	fputc@fp
  2302     09B9  160A  118A  2655  120A  158A  	fcall	_fputc
  2303     09BE  299E               	goto	l2042
  2304     09BF                     l748:
  2305     09BF  0008               	return
  2306     09C0                     __end_of_vfpfcnvrt:
  2307                           
  2308                           	psect	text4
  2309     0801                     __ptext4:	
  2310 ;; *************** function _utoa *****************
  2311 ;; Defined at:
  2312 ;;		line 1001 in file "/Applications/microchip/xc8/v2.45/pic/sources/c99/common/doprnt.c"
  2313 ;; Parameters:    Size  Location     Type
  2314 ;;  fp              1    wreg     PTR struct _IO_FILE
  2315 ;;		 -> sprintf@f(11), 
  2316 ;;  d               2    8[BANK0 ] unsigned int 
  2317 ;; Auto vars:     Size  Location     Type
  2318 ;;  fp              1   12[BANK0 ] PTR struct _IO_FILE
  2319 ;;		 -> sprintf@f(11), 
  2320 ;;  i               2   14[BANK0 ] int 
  2321 ;;  w               2   10[BANK0 ] int 
  2322 ;;  p               1   13[BANK0 ] _Bool 
  2323 ;; Return value:  Size  Location     Type
  2324 ;;                  1    wreg      void 
  2325 ;; Registers used:
  2326 ;;		wreg, fsr0l, fsr0h, status,2, status,0, pclath, cstack
  2327 ;; Tracked objects:
  2328 ;;		On entry : 0/0
  2329 ;;		On exit  : 0/0
  2330 ;;		Unchanged: 0/0
  2331 ;; Data sizes:     COMMON   BANK0   BANK1   BANK3   BANK2
  2332 ;;      Params:         0       2       0       0       0
  2333 ;;      Locals:         0       6       0       0       0
  2334 ;;      Temps:          0       0       0       0       0
  2335 ;;      Totals:         0       8       0       0       0
  2336 ;;Total ram usage:        8 bytes
  2337 ;; Hardware stack levels used: 1
  2338 ;; Hardware stack levels required when called: 4
  2339 ;; This function calls:
  2340 ;;		___lwdiv
  2341 ;;		___lwmod
  2342 ;;		_pad
  2343 ;; This function is called by:
  2344 ;;		_vfpfcnvrt
  2345 ;; This function uses a non-reentrant model
  2346 ;;
  2347                           
  2348     0801                     _utoa:	
  2349                           ;psect for function _utoa
  2350                           
  2351                           
  2352                           ;incstack = 0
  2353                           ; Regs used in _utoa: [wreg-fsr0h+status,2+status,0+pclath+cstack]
  2354                           ;utoa@fp stored from wreg
  2355     0801  1283               	bcf	3,5	;RP0=0, select bank0
  2356     0802  1303               	bcf	3,6	;RP1=0, select bank0
  2357     0803  00AC               	movwf	utoa@fp
  2358     0804                     l1954:
  2359                           
  2360                           ;/Applications/microchip/xc8/v2.45/pic/sources/c99/common/doprnt.c: 1001: static void ut
      +                          oa(FILE *fp, vfpf_uint_t d);/Applications/microchip/xc8/v2.45/pic/sources/c99/common/dop
      +                          rnt.c: 1002: {;/Applications/microchip/xc8/v2.45/pic/sources/c99/common/doprnt.c: 1003: 
      +                              int i, w;;/Applications/microchip/xc8/v2.45/pic/sources/c99/common/doprnt.c: 1007:  
      +                          _Bool p = 1;
  2361     0804  01AD               	clrf	utoa@p
  2362     0805  0AAD               	incf	utoa@p,f
  2363     0806                     l1956:
  2364                           
  2365                           ;/Applications/microchip/xc8/v2.45/pic/sources/c99/common/doprnt.c: 1019:     w = width;
  2366     0806  1683               	bsf	3,5	;RP0=1, select bank1
  2367     0807  1303               	bcf	3,6	;RP1=0, select bank1
  2368     0808  085A               	movf	(_width+1)^(0+128),w
  2369     0809  1283               	bcf	3,5	;RP0=0, select bank0
  2370     080A  1303               	bcf	3,6	;RP1=0, select bank0
  2371     080B  00AB               	movwf	utoa@w+1
  2372     080C  1683               	bsf	3,5	;RP0=1, select bank1
  2373     080D  1303               	bcf	3,6	;RP1=0, select bank1
  2374     080E  0859               	movf	_width^(0+128),w
  2375     080F  1283               	bcf	3,5	;RP0=0, select bank0
  2376     0810  1303               	bcf	3,6	;RP1=0, select bank0
  2377     0811  00AA               	movwf	utoa@w
  2378                           
  2379                           ;/Applications/microchip/xc8/v2.45/pic/sources/c99/common/doprnt.c: 1022:     i = sizeof
      +                          (dbuf) - 1;
  2380     0812  301F               	movlw	31
  2381     0813  00AE               	movwf	utoa@i
  2382     0814  3000               	movlw	0
  2383     0815  00AF               	movwf	utoa@i+1
  2384     0816                     l1958:
  2385                           
  2386                           ;/Applications/microchip/xc8/v2.45/pic/sources/c99/common/doprnt.c: 1023:     dbuf[i] = 
      +                          '\0';
  2387     0816  1683               	bsf	3,5	;RP0=1, select bank3
  2388     0817  1703               	bsf	3,6	;RP1=1, select bank3
  2389     0818  01AF               	clrf	(_dbuf^(0+384)+31)
  2390                           
  2391                           ;/Applications/microchip/xc8/v2.45/pic/sources/c99/common/doprnt.c: 1024:     while (i &
      +                          & (d != 0
  2392     0819  2850               	goto	l1970
  2393     081A                     l1960:
  2394                           
  2395                           ;/Applications/microchip/xc8/v2.45/pic/sources/c99/common/doprnt.c: 1033:     )) {;/Appl
      +                          ications/microchip/xc8/v2.45/pic/sources/c99/common/doprnt.c: 1034:         --i;
  2396     081A  30FF               	movlw	255
  2397     081B  07AE               	addwf	utoa@i,f
  2398     081C  1803               	skipnc
  2399     081D  0AAF               	incf	utoa@i+1,f
  2400     081E  30FF               	movlw	255
  2401     081F  07AF               	addwf	utoa@i+1,f
  2402     0820                     l1962:
  2403                           
  2404                           ;/Applications/microchip/xc8/v2.45/pic/sources/c99/common/doprnt.c: 1035:         dbuf[i
      +                          ] = '0' + (d % 10);
  2405     0820  082E               	movf	utoa@i,w
  2406     0821  3E90               	addlw	(low (_dbuf| (0+256)))& (0+255)
  2407     0822  0084               	movwf	4
  2408     0823  300A               	movlw	10
  2409     0824  00F0               	movwf	___lwmod@divisor
  2410     0825  3000               	movlw	0
  2411     0826  00F1               	movwf	___lwmod@divisor+1
  2412     0827  0829               	movf	utoa@d+1,w
  2413     0828  00F3               	movwf	___lwmod@dividend+1
  2414     0829  0828               	movf	utoa@d,w
  2415     082A  00F2               	movwf	___lwmod@dividend
  2416     082B  160A  118A  258B  120A  158A  	fcall	___lwmod
  2417     0830  0870               	movf	?___lwmod,w
  2418     0831  3E30               	addlw	48
  2419     0832  1783               	bsf	3,7	;select IRP bank3
  2420     0833  0080               	movwf	0
  2421     0834                     l1964:
  2422                           
  2423                           ;/Applications/microchip/xc8/v2.45/pic/sources/c99/common/doprnt.c: 1039:   p = 0;
  2424     0834  1283               	bcf	3,5	;RP0=0, select bank0
  2425     0835  1303               	bcf	3,6	;RP1=0, select bank0
  2426     0836  01AD               	clrf	utoa@p
  2427     0837                     l1966:
  2428                           
  2429                           ;/Applications/microchip/xc8/v2.45/pic/sources/c99/common/doprnt.c: 1041:         --w;
  2430     0837  30FF               	movlw	255
  2431     0838  07AA               	addwf	utoa@w,f
  2432     0839  1803               	skipnc
  2433     083A  0AAB               	incf	utoa@w+1,f
  2434     083B  30FF               	movlw	255
  2435     083C  07AB               	addwf	utoa@w+1,f
  2436     083D                     l1968:
  2437                           
  2438                           ;/Applications/microchip/xc8/v2.45/pic/sources/c99/common/doprnt.c: 1042:         d = d 
      +                          / 10;
  2439     083D  300A               	movlw	10
  2440     083E  00F0               	movwf	___lwdiv@divisor
  2441     083F  3000               	movlw	0
  2442     0840  00F1               	movwf	___lwdiv@divisor+1
  2443     0841  0829               	movf	utoa@d+1,w
  2444     0842  00F3               	movwf	___lwdiv@dividend+1
  2445     0843  0828               	movf	utoa@d,w
  2446     0844  00F2               	movwf	___lwdiv@dividend
  2447     0845  160A  118A  25C5  120A  158A  	fcall	___lwdiv
  2448     084A  0871               	movf	?___lwdiv+1,w
  2449     084B  1283               	bcf	3,5	;RP0=0, select bank0
  2450     084C  1303               	bcf	3,6	;RP1=0, select bank0
  2451     084D  00A9               	movwf	utoa@d+1
  2452     084E  0870               	movf	?___lwdiv,w
  2453     084F  00A8               	movwf	utoa@d
  2454     0850                     l1970:
  2455                           
  2456                           ;/Applications/microchip/xc8/v2.45/pic/sources/c99/common/doprnt.c: 1024:     while (i &
      +                          & (d != 0
  2457     0850  1283               	bcf	3,5	;RP0=0, select bank0
  2458     0851  1303               	bcf	3,6	;RP1=0, select bank0
  2459     0852  082E               	movf	utoa@i,w
  2460     0853  042F               	iorwf	utoa@i+1,w
  2461     0854  1903               	btfsc	3,2
  2462     0855  2857               	goto	u2741
  2463     0856  2858               	goto	u2740
  2464     0857                     u2741:
  2465     0857  2863               	goto	l1976
  2466     0858                     u2740:
  2467     0858                     l1972:
  2468     0858  0828               	movf	utoa@d,w
  2469     0859  0429               	iorwf	utoa@d+1,w
  2470     085A  1D03               	btfss	3,2
  2471     085B  285D               	goto	u2751
  2472     085C  285E               	goto	u2750
  2473     085D                     u2751:
  2474     085D  281A               	goto	l1960
  2475     085E                     u2750:
  2476     085E                     l1974:
  2477     085E  082D               	movf	utoa@p,w
  2478     085F  1D03               	btfss	3,2
  2479     0860  2862               	goto	u2761
  2480     0861  2863               	goto	u2760
  2481     0862                     u2761:
  2482     0862  281A               	goto	l1960
  2483     0863                     u2760:
  2484     0863                     l1976:
  2485                           
  2486                           ;/Applications/microchip/xc8/v2.45/pic/sources/c99/common/doprnt.c: 1046:     return (vo
      +                          id) pad(fp, &dbuf[i], w);
  2487     0863  082E               	movf	utoa@i,w
  2488     0864  3E90               	addlw	(low (_dbuf| (0+256)))& (0+255)
  2489     0865  00FB               	movwf	pad@buf
  2490     0866  082B               	movf	utoa@w+1,w
  2491     0867  00FD               	movwf	pad@p+1
  2492     0868  082A               	movf	utoa@w,w
  2493     0869  00FC               	movwf	pad@p
  2494     086A  082C               	movf	utoa@fp,w
  2495     086B  160A  118A  2609  120A  158A  	fcall	_pad
  2496     0870                     l730:
  2497     0870  0008               	return
  2498     0871                     __end_of_utoa:
  2499                           
  2500                           	psect	text5
  2501     1609                     __ptext5:	
  2502 ;; *************** function _pad *****************
  2503 ;; Defined at:
  2504 ;;		line 193 in file "/Applications/microchip/xc8/v2.45/pic/sources/c99/common/doprnt.c"
  2505 ;; Parameters:    Size  Location     Type
  2506 ;;  fp              1    wreg     PTR struct _IO_FILE
  2507 ;;		 -> sprintf@f(11), 
  2508 ;;  buf             1   11[COMMON] PTR unsigned char 
  2509 ;;		 -> dbuf(32), 
  2510 ;;  p               2   12[COMMON] int 
  2511 ;; Auto vars:     Size  Location     Type
  2512 ;;  fp              1    7[BANK0 ] PTR struct _IO_FILE
  2513 ;;		 -> sprintf@f(11), 
  2514 ;;  i               2    5[BANK0 ] int 
  2515 ;; Return value:  Size  Location     Type
  2516 ;;                  1    wreg      void 
  2517 ;; Registers used:
  2518 ;;		wreg, fsr0l, fsr0h, status,2, status,0, pclath, cstack
  2519 ;; Tracked objects:
  2520 ;;		On entry : 0/0
  2521 ;;		On exit  : 0/0
  2522 ;;		Unchanged: 0/0
  2523 ;; Data sizes:     COMMON   BANK0   BANK1   BANK3   BANK2
  2524 ;;      Params:         3       0       0       0       0
  2525 ;;      Locals:         0       3       0       0       0
  2526 ;;      Temps:          0       1       0       0       0
  2527 ;;      Totals:         3       4       0       0       0
  2528 ;;Total ram usage:        7 bytes
  2529 ;; Hardware stack levels used: 1
  2530 ;; Hardware stack levels required when called: 3
  2531 ;; This function calls:
  2532 ;;		_fputc
  2533 ;;		_fputs
  2534 ;; This function is called by:
  2535 ;;		_utoa
  2536 ;; This function uses a non-reentrant model
  2537 ;;
  2538                           
  2539     1609                     _pad:	
  2540                           ;psect for function _pad
  2541                           
  2542                           
  2543                           ;incstack = 0
  2544                           ; Regs used in _pad: [wreg-fsr0h+status,2+status,0+pclath+cstack]
  2545                           ;pad@fp stored from wreg
  2546     1609  1283               	bcf	3,5	;RP0=0, select bank0
  2547     160A  1303               	bcf	3,6	;RP1=0, select bank0
  2548     160B  00A7               	movwf	pad@fp
  2549     160C                     l1932:
  2550                           
  2551                           ;/Applications/microchip/xc8/v2.45/pic/sources/c99/common/doprnt.c: 193: static void pad
      +                          (FILE *fp, char *buf, int p);/Applications/microchip/xc8/v2.45/pic/sources/c99/common/do
      +                          prnt.c: 194: {;/Applications/microchip/xc8/v2.45/pic/sources/c99/common/doprnt.c: 195:  
      +                             int i;;/Applications/microchip/xc8/v2.45/pic/sources/c99/common/doprnt.c: 199:     if
      +                           (flags & (1 << 0)) {
  2552     160C  1C6F               	btfss	_flags,0
  2553     160D  2E0F               	goto	u2701
  2554     160E  2E10               	goto	u2700
  2555     160F                     u2701:
  2556     160F  2E18               	goto	l1936
  2557     1610                     u2700:
  2558     1610                     l1934:
  2559                           
  2560                           ;/Applications/microchip/xc8/v2.45/pic/sources/c99/common/doprnt.c: 200:         fputs((
      +                          const char *)buf, fp);
  2561     1610  0827               	movf	pad@fp,w
  2562     1611  00F8               	movwf	fputs@fp
  2563     1612  087B               	movf	pad@buf,w
  2564     1613  160A  118A  2472  160A  118A  	fcall	_fputs
  2565     1618                     l1936:
  2566                           
  2567                           ;/Applications/microchip/xc8/v2.45/pic/sources/c99/common/doprnt.c: 205:  if (p < 0) {
  2568     1618  1FFD               	btfss	pad@p+1,7
  2569     1619  2E1B               	goto	u2711
  2570     161A  2E1C               	goto	u2710
  2571     161B                     u2711:
  2572     161B  2E1E               	goto	l717
  2573     161C                     u2710:
  2574     161C                     l1938:
  2575                           
  2576                           ;/Applications/microchip/xc8/v2.45/pic/sources/c99/common/doprnt.c: 206:   p = 0;
  2577     161C  01FC               	clrf	pad@p
  2578     161D  01FD               	clrf	pad@p+1
  2579     161E                     l717:	
  2580                           ;/Applications/microchip/xc8/v2.45/pic/sources/c99/common/doprnt.c: 207:  }
  2581                           
  2582                           
  2583                           ;/Applications/microchip/xc8/v2.45/pic/sources/c99/common/doprnt.c: 208:     i = 0;
  2584     161E  1283               	bcf	3,5	;RP0=0, select bank0
  2585     161F  1303               	bcf	3,6	;RP1=0, select bank0
  2586     1620  01A5               	clrf	pad@i
  2587     1621  01A6               	clrf	pad@i+1
  2588                           
  2589                           ;/Applications/microchip/xc8/v2.45/pic/sources/c99/common/doprnt.c: 209:     while (i < 
      +                          p) {
  2590     1622  2E38               	goto	l1944
  2591     1623                     l1940:
  2592                           
  2593                           ;/Applications/microchip/xc8/v2.45/pic/sources/c99/common/doprnt.c: 210:         fputc('
      +                           ', fp);
  2594     1623  3020               	movlw	32
  2595     1624  00F0               	movwf	fputc@c
  2596     1625  3000               	movlw	0
  2597     1626  00F1               	movwf	fputc@c+1
  2598     1627  1283               	bcf	3,5	;RP0=0, select bank0
  2599     1628  1303               	bcf	3,6	;RP1=0, select bank0
  2600     1629  0827               	movf	pad@fp,w
  2601     162A  00F2               	movwf	fputc@fp
  2602     162B  160A  118A  2655  160A  118A  	fcall	_fputc
  2603     1630                     l1942:
  2604                           
  2605                           ;/Applications/microchip/xc8/v2.45/pic/sources/c99/common/doprnt.c: 211:         ++i;
  2606     1630  3001               	movlw	1
  2607     1631  1283               	bcf	3,5	;RP0=0, select bank0
  2608     1632  1303               	bcf	3,6	;RP1=0, select bank0
  2609     1633  07A5               	addwf	pad@i,f
  2610     1634  1803               	skipnc
  2611     1635  0AA6               	incf	pad@i+1,f
  2612     1636  3000               	movlw	0
  2613     1637  07A6               	addwf	pad@i+1,f
  2614     1638                     l1944:
  2615                           
  2616                           ;/Applications/microchip/xc8/v2.45/pic/sources/c99/common/doprnt.c: 209:     while (i < 
      +                          p) {
  2617     1638  0826               	movf	pad@i+1,w
  2618     1639  3A80               	xorlw	128
  2619     163A  00A4               	movwf	??_pad
  2620     163B  087D               	movf	pad@p+1,w
  2621     163C  3A80               	xorlw	128
  2622     163D  0224               	subwf	??_pad,w
  2623     163E  1D03               	skipz
  2624     163F  2E42               	goto	u2725
  2625     1640  087C               	movf	pad@p,w
  2626     1641  0225               	subwf	pad@i,w
  2627     1642                     u2725:
  2628     1642  1C03               	skipc
  2629     1643  2E45               	goto	u2721
  2630     1644  2E46               	goto	u2720
  2631     1645                     u2721:
  2632     1645  2E23               	goto	l1940
  2633     1646                     u2720:
  2634     1646                     l720:
  2635                           
  2636                           ;/Applications/microchip/xc8/v2.45/pic/sources/c99/common/doprnt.c: 216:     if (!(flags
      +                           & (1 << 0))) {
  2637     1646  1283               	bcf	3,5	;RP0=0, select bank0
  2638     1647  1303               	bcf	3,6	;RP1=0, select bank0
  2639     1648  186F               	btfsc	_flags,0
  2640     1649  2E4B               	goto	u2731
  2641     164A  2E4C               	goto	u2730
  2642     164B                     u2731:
  2643     164B  2E54               	goto	l722
  2644     164C                     u2730:
  2645     164C                     l1946:
  2646                           
  2647                           ;/Applications/microchip/xc8/v2.45/pic/sources/c99/common/doprnt.c: 218:         fputs((
      +                          const char *)buf, fp);
  2648     164C  0827               	movf	pad@fp,w
  2649     164D  00F8               	movwf	fputs@fp
  2650     164E  087B               	movf	pad@buf,w
  2651     164F  160A  118A  2472  160A  118A  	fcall	_fputs
  2652     1654                     l722:
  2653     1654  0008               	return
  2654     1655                     __end_of_pad:
  2655                           
  2656                           	psect	text6
  2657     1472                     __ptext6:	
  2658 ;; *************** function _fputs *****************
  2659 ;; Defined at:
  2660 ;;		line 8 in file "/Applications/microchip/xc8/v2.45/pic/sources/c99/common/nf_fputs.c"
  2661 ;; Parameters:    Size  Location     Type
  2662 ;;  s               1    wreg     PTR const unsigned char 
  2663 ;;		 -> dbuf(32), 
  2664 ;;  fp              1    8[COMMON] PTR struct _IO_FILE
  2665 ;;		 -> sprintf@f(11), 
  2666 ;; Auto vars:     Size  Location     Type
  2667 ;;  s               1    3[BANK0 ] PTR const unsigned char 
  2668 ;;		 -> dbuf(32), 
  2669 ;;  i               2    1[BANK0 ] int 
  2670 ;;  c               1    0[BANK0 ] unsigned char 
  2671 ;; Return value:  Size  Location     Type
  2672 ;;                  2    8[COMMON] int 
  2673 ;; Registers used:
  2674 ;;		wreg, fsr0l, fsr0h, status,2, status,0, pclath, cstack
  2675 ;; Tracked objects:
  2676 ;;		On entry : 0/0
  2677 ;;		On exit  : 0/0
  2678 ;;		Unchanged: 0/0
  2679 ;; Data sizes:     COMMON   BANK0   BANK1   BANK3   BANK2
  2680 ;;      Params:         1       0       0       0       0
  2681 ;;      Locals:         0       4       0       0       0
  2682 ;;      Temps:          2       0       0       0       0
  2683 ;;      Totals:         3       4       0       0       0
  2684 ;;Total ram usage:        7 bytes
  2685 ;; Hardware stack levels used: 1
  2686 ;; Hardware stack levels required when called: 2
  2687 ;; This function calls:
  2688 ;;		_fputc
  2689 ;; This function is called by:
  2690 ;;		_pad
  2691 ;; This function uses a non-reentrant model
  2692 ;;
  2693                           
  2694     1472                     _fputs:	
  2695                           ;psect for function _fputs
  2696                           
  2697                           
  2698                           ;incstack = 0
  2699                           ; Regs used in _fputs: [wreg-fsr0h+status,2+status,0+pclath+cstack]
  2700                           ;fputs@s stored from wreg
  2701     1472  1283               	bcf	3,5	;RP0=0, select bank0
  2702     1473  1303               	bcf	3,6	;RP1=0, select bank0
  2703     1474  00A3               	movwf	fputs@s
  2704     1475                     l1856:
  2705     1475  01A1               	clrf	fputs@i
  2706     1476  01A2               	clrf	fputs@i+1
  2707     1477  2C8E               	goto	l1862
  2708     1478                     l1858:
  2709     1478  0820               	movf	fputs@c,w
  2710     1479  00F9               	movwf	??_fputs
  2711     147A  01FA               	clrf	??_fputs+1
  2712     147B  0879               	movf	??_fputs,w
  2713     147C  00F0               	movwf	fputc@c
  2714     147D  087A               	movf	??_fputs+1,w
  2715     147E  00F1               	movwf	fputc@c+1
  2716     147F  0878               	movf	fputs@fp,w
  2717     1480  00F2               	movwf	fputc@fp
  2718     1481  160A  118A  2655  160A  118A  	fcall	_fputc
  2719     1486                     l1860:
  2720     1486  3001               	movlw	1
  2721     1487  1283               	bcf	3,5	;RP0=0, select bank0
  2722     1488  1303               	bcf	3,6	;RP1=0, select bank0
  2723     1489  07A1               	addwf	fputs@i,f
  2724     148A  1803               	skipnc
  2725     148B  0AA2               	incf	fputs@i+1,f
  2726     148C  3000               	movlw	0
  2727     148D  07A2               	addwf	fputs@i+1,f
  2728     148E                     l1862:
  2729     148E  0821               	movf	fputs@i,w
  2730     148F  0723               	addwf	fputs@s,w
  2731     1490  00F9               	movwf	??_fputs
  2732     1491  0879               	movf	??_fputs,w
  2733     1492  0084               	movwf	4
  2734     1493  1783               	bsf	3,7	;select IRP bank2
  2735     1494  0800               	movf	0,w
  2736     1495  00A0               	movwf	fputs@c
  2737     1496  0820               	movf	fputs@c,w
  2738     1497  1D03               	btfss	3,2
  2739     1498  2C9A               	goto	u2491
  2740     1499  2C9B               	goto	u2490
  2741     149A                     u2491:
  2742     149A  2C78               	goto	l1858
  2743     149B                     u2490:
  2744     149B                     l775:
  2745     149B  0008               	return
  2746     149C                     __end_of_fputs:
  2747                           
  2748                           	psect	text7
  2749     1655                     __ptext7:	
  2750 ;; *************** function _fputc *****************
  2751 ;; Defined at:
  2752 ;;		line 8 in file "/Applications/microchip/xc8/v2.45/pic/sources/c99/common/nf_fputc.c"
  2753 ;; Parameters:    Size  Location     Type
  2754 ;;  c               2    0[COMMON] int 
  2755 ;;  fp              1    2[COMMON] PTR struct _IO_FILE
  2756 ;;		 -> sprintf@f(11), 
  2757 ;; Auto vars:     Size  Location     Type
  2758 ;;		None
  2759 ;; Return value:  Size  Location     Type
  2760 ;;                  2    0[COMMON] int 
  2761 ;; Registers used:
  2762 ;;		wreg, fsr0l, fsr0h, status,2, status,0, pclath, cstack
  2763 ;; Tracked objects:
  2764 ;;		On entry : 0/0
  2765 ;;		On exit  : 0/0
  2766 ;;		Unchanged: 0/0
  2767 ;; Data sizes:     COMMON   BANK0   BANK1   BANK3   BANK2
  2768 ;;      Params:         3       0       0       0       0
  2769 ;;      Locals:         0       0       0       0       0
  2770 ;;      Temps:          5       0       0       0       0
  2771 ;;      Totals:         8       0       0       0       0
  2772 ;;Total ram usage:        8 bytes
  2773 ;; Hardware stack levels used: 1
  2774 ;; Hardware stack levels required when called: 1
  2775 ;; This function calls:
  2776 ;;		_putch
  2777 ;; This function is called by:
  2778 ;;		_pad
  2779 ;;		_vfpfcnvrt
  2780 ;;		_fputs
  2781 ;; This function uses a non-reentrant model
  2782 ;;
  2783                           
  2784     1655                     _fputc:	
  2785                           ;psect for function _fputc
  2786                           
  2787     1655                     l1842:	
  2788                           ;incstack = 0
  2789                           ; Regs used in _fputc: [wreg-fsr0h+status,2+status,0+pclath+cstack]
  2790                           
  2791     1655  0872               	movf	fputc@fp,w
  2792     1656  1903               	btfsc	3,2
  2793     1657  2E59               	goto	u2451
  2794     1658  2E5A               	goto	u2450
  2795     1659                     u2451:
  2796     1659  2E5F               	goto	l1846
  2797     165A                     u2450:
  2798     165A                     l1844:
  2799     165A  0872               	movf	fputc@fp,w
  2800     165B  1D03               	btfss	3,2
  2801     165C  2E5E               	goto	u2461
  2802     165D  2E5F               	goto	u2460
  2803     165E                     u2461:
  2804     165E  2E66               	goto	l1848
  2805     165F                     u2460:
  2806     165F                     l1846:
  2807     165F  0870               	movf	fputc@c,w
  2808     1660  120A  118A  2003  160A  118A  	fcall	_putch
  2809     1665  2EAA               	goto	l767
  2810     1666                     l1848:
  2811     1666  0872               	movf	fputc@fp,w
  2812     1667  3E09               	addlw	9
  2813     1668  0084               	movwf	4
  2814     1669  1383               	bcf	3,7	;select IRP bank0
  2815     166A  0800               	movf	0,w
  2816     166B  00F3               	movwf	??_fputc
  2817     166C  0A84               	incf	4,f
  2818     166D  0800               	movf	0,w
  2819     166E  00F4               	movwf	??_fputc+1
  2820     166F  0873               	movf	??_fputc,w
  2821     1670  0474               	iorwf	??_fputc+1,w
  2822     1671  1903               	btfsc	3,2
  2823     1672  2E74               	goto	u2471
  2824     1673  2E75               	goto	u2470
  2825     1674                     u2471:
  2826     1674  2E93               	goto	l1852
  2827     1675                     u2470:
  2828     1675                     l1850:
  2829     1675  0872               	movf	fputc@fp,w
  2830     1676  3E09               	addlw	9
  2831     1677  0084               	movwf	4
  2832     1678  0800               	movf	0,w
  2833     1679  00F3               	movwf	??_fputc
  2834     167A  0A84               	incf	4,f
  2835     167B  0800               	movf	0,w
  2836     167C  00F4               	movwf	??_fputc+1
  2837     167D  0872               	movf	fputc@fp,w
  2838     167E  3E02               	addlw	2
  2839     167F  0084               	movwf	4
  2840     1680  0800               	movf	0,w
  2841     1681  00F5               	movwf	??_fputc+2
  2842     1682  0A84               	incf	4,f
  2843     1683  0800               	movf	0,w
  2844     1684  00F6               	movwf	??_fputc+3
  2845     1685  0876               	movf	??_fputc+3,w
  2846     1686  3A80               	xorlw	128
  2847     1687  00F7               	movwf	??_fputc+4
  2848     1688  0874               	movf	??_fputc+1,w
  2849     1689  3A80               	xorlw	128
  2850     168A  0277               	subwf	??_fputc+4,w
  2851     168B  1D03               	skipz
  2852     168C  2E8F               	goto	u2485
  2853     168D  0873               	movf	??_fputc,w
  2854     168E  0275               	subwf	??_fputc+2,w
  2855     168F                     u2485:
  2856     168F  1803               	skipnc
  2857     1690  2E92               	goto	u2481
  2858     1691  2E93               	goto	u2480
  2859     1692                     u2481:
  2860     1692  2EAA               	goto	l767
  2861     1693                     u2480:
  2862     1693                     l1852:
  2863     1693  0872               	movf	fputc@fp,w
  2864     1694  3E02               	addlw	2
  2865     1695  0084               	movwf	4
  2866     1696  1383               	bcf	3,7	;select IRP bank0
  2867     1697  0800               	movf	0,w
  2868     1698  00F3               	movwf	??_fputc
  2869     1699  0872               	movf	fputc@fp,w
  2870     169A  0084               	movwf	4
  2871     169B  0800               	movf	0,w
  2872     169C  0773               	addwf	??_fputc,w
  2873     169D  00F4               	movwf	??_fputc+1
  2874     169E  0874               	movf	??_fputc+1,w
  2875     169F  0084               	movwf	4
  2876     16A0  0870               	movf	fputc@c,w
  2877     16A1  0080               	movwf	0
  2878     16A2  0872               	movf	fputc@fp,w
  2879     16A3  3E02               	addlw	2
  2880     16A4  0084               	movwf	4
  2881     16A5  3001               	movlw	1
  2882     16A6  0780               	addwf	0,f
  2883     16A7  0A84               	incf	4,f
  2884     16A8  1803               	skipnc
  2885     16A9  0A80               	incf	0,f
  2886     16AA                     l767:
  2887     16AA  0008               	return
  2888     16AB                     __end_of_fputc:
  2889                           
  2890                           	psect	text8
  2891     0003                     __ptext8:	
  2892 ;; *************** function _putch *****************
  2893 ;; Defined at:
  2894 ;;		line 7 in file "/Applications/microchip/xc8/v2.45/pic/sources/c99/common/putch.c"
  2895 ;; Parameters:    Size  Location     Type
  2896 ;;  c               1    wreg     unsigned char 
  2897 ;; Auto vars:     Size  Location     Type
  2898 ;;  c               1    0[COMMON] unsigned char 
  2899 ;; Return value:  Size  Location     Type
  2900 ;;                  1    wreg      void 
  2901 ;; Registers used:
  2902 ;;		wreg
  2903 ;; Tracked objects:
  2904 ;;		On entry : 0/0
  2905 ;;		On exit  : 0/0
  2906 ;;		Unchanged: 0/0
  2907 ;; Data sizes:     COMMON   BANK0   BANK1   BANK3   BANK2
  2908 ;;      Params:         0       0       0       0       0
  2909 ;;      Locals:         0       0       0       0       0
  2910 ;;      Temps:          0       0       0       0       0
  2911 ;;      Totals:         0       0       0       0       0
  2912 ;;Total ram usage:        0 bytes
  2913 ;; Hardware stack levels used: 1
  2914 ;; This function calls:
  2915 ;;		Nothing
  2916 ;; This function is called by:
  2917 ;;		_fputc
  2918 ;; This function uses a non-reentrant model
  2919 ;;
  2920                           
  2921     0003                     _putch:	
  2922                           ;psect for function _putch
  2923                           
  2924     0003                     l778:	
  2925                           ;incstack = 0
  2926                           ; Regs used in _putch: [wreg]
  2927                           
  2928     0003  0008               	return
  2929     0004                     __end_of_putch:
  2930                           
  2931                           	psect	text9
  2932     158B                     __ptext9:	
  2933 ;; *************** function ___lwmod *****************
  2934 ;; Defined at:
  2935 ;;		line 5 in file "/Applications/microchip/xc8/v2.45/pic/sources/c99/common/lwmod.c"
  2936 ;; Parameters:    Size  Location     Type
  2937 ;;  divisor         2    0[COMMON] unsigned int 
  2938 ;;  dividend        2    2[COMMON] unsigned int 
  2939 ;; Auto vars:     Size  Location     Type
  2940 ;;  counter         1    5[COMMON] unsigned char 
  2941 ;; Return value:  Size  Location     Type
  2942 ;;                  2    0[COMMON] unsigned int 
  2943 ;; Registers used:
  2944 ;;		wreg, status,2, status,0
  2945 ;; Tracked objects:
  2946 ;;		On entry : 0/0
  2947 ;;		On exit  : 0/0
  2948 ;;		Unchanged: 0/0
  2949 ;; Data sizes:     COMMON   BANK0   BANK1   BANK3   BANK2
  2950 ;;      Params:         4       0       0       0       0
  2951 ;;      Locals:         1       0       0       0       0
  2952 ;;      Temps:          1       0       0       0       0
  2953 ;;      Totals:         6       0       0       0       0
  2954 ;;Total ram usage:        6 bytes
  2955 ;; Hardware stack levels used: 1
  2956 ;; This function calls:
  2957 ;;		Nothing
  2958 ;; This function is called by:
  2959 ;;		_utoa
  2960 ;; This function uses a non-reentrant model
  2961 ;;
  2962                           
  2963     158B                     ___lwmod:	
  2964                           ;psect for function ___lwmod
  2965                           
  2966     158B                     l1910:	
  2967                           ;incstack = 0
  2968                           ; Regs used in ___lwmod: [wreg+status,2+status,0]
  2969                           
  2970     158B  0870               	movf	___lwmod@divisor,w
  2971     158C  0471               	iorwf	___lwmod@divisor+1,w
  2972     158D  1903               	btfsc	3,2
  2973     158E  2D90               	goto	u2641
  2974     158F  2D91               	goto	u2640
  2975     1590                     u2641:
  2976     1590  2DC0               	goto	l1928
  2977     1591                     u2640:
  2978     1591                     l1912:
  2979     1591  01F5               	clrf	___lwmod@counter
  2980     1592  0AF5               	incf	___lwmod@counter,f
  2981     1593  2D9F               	goto	l1918
  2982     1594                     l1914:
  2983     1594  3001               	movlw	1
  2984     1595                     u2655:
  2985     1595  1003               	clrc
  2986     1596  0DF0               	rlf	___lwmod@divisor,f
  2987     1597  0DF1               	rlf	___lwmod@divisor+1,f
  2988     1598  3EFF               	addlw	-1
  2989     1599  1D03               	skipz
  2990     159A  2D95               	goto	u2655
  2991     159B                     l1916:
  2992     159B  3001               	movlw	1
  2993     159C  00F4               	movwf	??___lwmod
  2994     159D  0874               	movf	??___lwmod,w
  2995     159E  07F5               	addwf	___lwmod@counter,f
  2996     159F                     l1918:
  2997     159F  1FF1               	btfss	___lwmod@divisor+1,7
  2998     15A0  2DA2               	goto	u2661
  2999     15A1  2DA3               	goto	u2660
  3000     15A2                     u2661:
  3001     15A2  2D94               	goto	l1914
  3002     15A3                     u2660:
  3003     15A3                     l1920:
  3004     15A3  0871               	movf	___lwmod@divisor+1,w
  3005     15A4  0273               	subwf	___lwmod@dividend+1,w
  3006     15A5  1D03               	skipz
  3007     15A6  2DA9               	goto	u2675
  3008     15A7  0870               	movf	___lwmod@divisor,w
  3009     15A8  0272               	subwf	___lwmod@dividend,w
  3010     15A9                     u2675:
  3011     15A9  1C03               	skipc
  3012     15AA  2DAC               	goto	u2671
  3013     15AB  2DAD               	goto	u2670
  3014     15AC                     u2671:
  3015     15AC  2DB3               	goto	l1924
  3016     15AD                     u2670:
  3017     15AD                     l1922:
  3018     15AD  0870               	movf	___lwmod@divisor,w
  3019     15AE  02F2               	subwf	___lwmod@dividend,f
  3020     15AF  0871               	movf	___lwmod@divisor+1,w
  3021     15B0  1C03               	skipc
  3022     15B1  03F3               	decf	___lwmod@dividend+1,f
  3023     15B2  02F3               	subwf	___lwmod@dividend+1,f
  3024     15B3                     l1924:
  3025     15B3  3001               	movlw	1
  3026     15B4                     u2685:
  3027     15B4  1003               	clrc
  3028     15B5  0CF1               	rrf	___lwmod@divisor+1,f
  3029     15B6  0CF0               	rrf	___lwmod@divisor,f
  3030     15B7  3EFF               	addlw	-1
  3031     15B8  1D03               	skipz
  3032     15B9  2DB4               	goto	u2685
  3033     15BA                     l1926:
  3034     15BA  3001               	movlw	1
  3035     15BB  02F5               	subwf	___lwmod@counter,f
  3036     15BC  1D03               	btfss	3,2
  3037     15BD  2DBF               	goto	u2691
  3038     15BE  2DC0               	goto	u2690
  3039     15BF                     u2691:
  3040     15BF  2DA3               	goto	l1920
  3041     15C0                     u2690:
  3042     15C0                     l1928:
  3043     15C0  0873               	movf	___lwmod@dividend+1,w
  3044     15C1  00F1               	movwf	?___lwmod+1
  3045     15C2  0872               	movf	___lwmod@dividend,w
  3046     15C3  00F0               	movwf	?___lwmod
  3047     15C4                     l526:
  3048     15C4  0008               	return
  3049     15C5                     __end_of___lwmod:
  3050                           
  3051                           	psect	text10
  3052     15C5                     __ptext10:	
  3053 ;; *************** function ___lwdiv *****************
  3054 ;; Defined at:
  3055 ;;		line 5 in file "/Applications/microchip/xc8/v2.45/pic/sources/c99/common/lwdiv.c"
  3056 ;; Parameters:    Size  Location     Type
  3057 ;;  divisor         2    0[COMMON] unsigned int 
  3058 ;;  dividend        2    2[COMMON] unsigned int 
  3059 ;; Auto vars:     Size  Location     Type
  3060 ;;  quotient        2    5[COMMON] unsigned int 
  3061 ;;  counter         1    7[COMMON] unsigned char 
  3062 ;; Return value:  Size  Location     Type
  3063 ;;                  2    0[COMMON] unsigned int 
  3064 ;; Registers used:
  3065 ;;		wreg, status,2, status,0
  3066 ;; Tracked objects:
  3067 ;;		On entry : 0/0
  3068 ;;		On exit  : 0/0
  3069 ;;		Unchanged: 0/0
  3070 ;; Data sizes:     COMMON   BANK0   BANK1   BANK3   BANK2
  3071 ;;      Params:         4       0       0       0       0
  3072 ;;      Locals:         3       0       0       0       0
  3073 ;;      Temps:          1       0       0       0       0
  3074 ;;      Totals:         8       0       0       0       0
  3075 ;;Total ram usage:        8 bytes
  3076 ;; Hardware stack levels used: 1
  3077 ;; This function calls:
  3078 ;;		Nothing
  3079 ;; This function is called by:
  3080 ;;		_utoa
  3081 ;; This function uses a non-reentrant model
  3082 ;;
  3083                           
  3084     15C5                     ___lwdiv:	
  3085                           ;psect for function ___lwdiv
  3086                           
  3087     15C5                     l1884:	
  3088                           ;incstack = 0
  3089                           ; Regs used in ___lwdiv: [wreg+status,2+status,0]
  3090                           
  3091     15C5  01F5               	clrf	___lwdiv@quotient
  3092     15C6  01F6               	clrf	___lwdiv@quotient+1
  3093     15C7                     l1886:
  3094     15C7  0870               	movf	___lwdiv@divisor,w
  3095     15C8  0471               	iorwf	___lwdiv@divisor+1,w
  3096     15C9  1903               	btfsc	3,2
  3097     15CA  2DCC               	goto	u2571
  3098     15CB  2DCD               	goto	u2570
  3099     15CC                     u2571:
  3100     15CC  2E04               	goto	l1906
  3101     15CD                     u2570:
  3102     15CD                     l1888:
  3103     15CD  01F7               	clrf	___lwdiv@counter
  3104     15CE  0AF7               	incf	___lwdiv@counter,f
  3105     15CF  2DDB               	goto	l1894
  3106     15D0                     l1890:
  3107     15D0  3001               	movlw	1
  3108     15D1                     u2585:
  3109     15D1  1003               	clrc
  3110     15D2  0DF0               	rlf	___lwdiv@divisor,f
  3111     15D3  0DF1               	rlf	___lwdiv@divisor+1,f
  3112     15D4  3EFF               	addlw	-1
  3113     15D5  1D03               	skipz
  3114     15D6  2DD1               	goto	u2585
  3115     15D7                     l1892:
  3116     15D7  3001               	movlw	1
  3117     15D8  00F4               	movwf	??___lwdiv
  3118     15D9  0874               	movf	??___lwdiv,w
  3119     15DA  07F7               	addwf	___lwdiv@counter,f
  3120     15DB                     l1894:
  3121     15DB  1FF1               	btfss	___lwdiv@divisor+1,7
  3122     15DC  2DDE               	goto	u2591
  3123     15DD  2DDF               	goto	u2590
  3124     15DE                     u2591:
  3125     15DE  2DD0               	goto	l1890
  3126     15DF                     u2590:
  3127     15DF                     l1896:
  3128     15DF  3001               	movlw	1
  3129     15E0                     u2605:
  3130     15E0  1003               	clrc
  3131     15E1  0DF5               	rlf	___lwdiv@quotient,f
  3132     15E2  0DF6               	rlf	___lwdiv@quotient+1,f
  3133     15E3  3EFF               	addlw	-1
  3134     15E4  1D03               	skipz
  3135     15E5  2DE0               	goto	u2605
  3136     15E6  0871               	movf	___lwdiv@divisor+1,w
  3137     15E7  0273               	subwf	___lwdiv@dividend+1,w
  3138     15E8  1D03               	skipz
  3139     15E9  2DEC               	goto	u2615
  3140     15EA  0870               	movf	___lwdiv@divisor,w
  3141     15EB  0272               	subwf	___lwdiv@dividend,w
  3142     15EC                     u2615:
  3143     15EC  1C03               	skipc
  3144     15ED  2DEF               	goto	u2611
  3145     15EE  2DF0               	goto	u2610
  3146     15EF                     u2611:
  3147     15EF  2DF7               	goto	l1902
  3148     15F0                     u2610:
  3149     15F0                     l1898:
  3150     15F0  0870               	movf	___lwdiv@divisor,w
  3151     15F1  02F2               	subwf	___lwdiv@dividend,f
  3152     15F2  0871               	movf	___lwdiv@divisor+1,w
  3153     15F3  1C03               	skipc
  3154     15F4  03F3               	decf	___lwdiv@dividend+1,f
  3155     15F5  02F3               	subwf	___lwdiv@dividend+1,f
  3156     15F6                     l1900:
  3157     15F6  1475               	bsf	___lwdiv@quotient,0
  3158     15F7                     l1902:
  3159     15F7  3001               	movlw	1
  3160     15F8                     u2625:
  3161     15F8  1003               	clrc
  3162     15F9  0CF1               	rrf	___lwdiv@divisor+1,f
  3163     15FA  0CF0               	rrf	___lwdiv@divisor,f
  3164     15FB  3EFF               	addlw	-1
  3165     15FC  1D03               	skipz
  3166     15FD  2DF8               	goto	u2625
  3167     15FE                     l1904:
  3168     15FE  3001               	movlw	1
  3169     15FF  02F7               	subwf	___lwdiv@counter,f
  3170     1600  1D03               	btfss	3,2
  3171     1601  2E03               	goto	u2631
  3172     1602  2E04               	goto	u2630
  3173     1603                     u2631:
  3174     1603  2DDF               	goto	l1896
  3175     1604                     u2630:
  3176     1604                     l1906:
  3177     1604  0876               	movf	___lwdiv@quotient+1,w
  3178     1605  00F1               	movwf	?___lwdiv+1
  3179     1606  0875               	movf	___lwdiv@quotient,w
  3180     1607  00F0               	movwf	?___lwdiv
  3181     1608                     l516:
  3182     1608  0008               	return
  3183     1609                     __end_of___lwdiv:
  3184                           
  3185                           	psect	text11
  3186     0014                     __ptext11:	
  3187 ;; *************** function _read_prec_or_width *****************
  3188 ;; Defined at:
  3189 ;;		line 1158 in file "/Applications/microchip/xc8/v2.45/pic/sources/c99/common/doprnt.c"
  3190 ;; Parameters:    Size  Location     Type
  3191 ;;  fmt             1    wreg     PTR PTR const unsigned c
  3192 ;;		 -> vfprintf@cfmt(1), 
  3193 ;;  ap              1    6[COMMON] PTR PTR void [1]
  3194 ;;		 -> sprintf@ap(1), 
  3195 ;; Auto vars:     Size  Location     Type
  3196 ;;  fmt             1   12[COMMON] PTR PTR const unsigned c
  3197 ;;		 -> vfprintf@cfmt(1), 
  3198 ;;  c               1    9[COMMON] unsigned char 
  3199 ;;  n               2   10[COMMON] int 
  3200 ;; Return value:  Size  Location     Type
  3201 ;;                  2    6[COMMON] int 
  3202 ;; Registers used:
  3203 ;;		wreg, fsr0l, fsr0h, status,2, status,0, pclath, cstack
  3204 ;; Tracked objects:
  3205 ;;		On entry : 0/0
  3206 ;;		On exit  : 0/0
  3207 ;;		Unchanged: 0/0
  3208 ;; Data sizes:     COMMON   BANK0   BANK1   BANK3   BANK2
  3209 ;;      Params:         2       0       0       0       0
  3210 ;;      Locals:         4       0       0       0       0
  3211 ;;      Temps:          1       0       0       0       0
  3212 ;;      Totals:         7       0       0       0       0
  3213 ;;Total ram usage:        7 bytes
  3214 ;; Hardware stack levels used: 1
  3215 ;; Hardware stack levels required when called: 1
  3216 ;; This function calls:
  3217 ;;		___wmul
  3218 ;; This function is called by:
  3219 ;;		_vfpfcnvrt
  3220 ;; This function uses a non-reentrant model
  3221 ;;
  3222                           
  3223     0014                     _read_prec_or_width:	
  3224                           ;psect for function _read_prec_or_width
  3225                           
  3226                           
  3227                           ;incstack = 0
  3228                           ; Regs used in _read_prec_or_width: [wreg-fsr0h+status,2+status,0+pclath+cstack]
  3229                           ;read_prec_or_width@fmt stored from wreg
  3230     0014  00FC               	movwf	read_prec_or_width@fmt
  3231     0015                     l1980:
  3232                           
  3233                           ;/Applications/microchip/xc8/v2.45/pic/sources/c99/common/doprnt.c: 1159:     int n = 0;
  3234     0015  01FA               	clrf	read_prec_or_width@n
  3235     0016  01FB               	clrf	read_prec_or_width@n+1
  3236     0017                     l1982:
  3237                           
  3238                           ;/Applications/microchip/xc8/v2.45/pic/sources/c99/common/doprnt.c: 1160:     if ((*fmt)
      +                          [0] == '*') {
  3239     0017  087C               	movf	read_prec_or_width@fmt,w
  3240     0018  0084               	movwf	4
  3241     0019  1383               	bcf	3,7	;select IRP bank0
  3242     001A  0800               	movf	0,w
  3243     001B  0084               	movwf	4
  3244     001C  160A  118A  200A  120A  118A  	fcall	stringdir
  3245     0021  3A2A               	xorlw	42
  3246     0022  1D03               	skipz
  3247     0023  2825               	goto	u2771
  3248     0024  2826               	goto	u2770
  3249     0025                     u2771:
  3250     0025  2856               	goto	l1990
  3251     0026                     u2770:
  3252     0026                     l1984:
  3253                           
  3254                           ;/Applications/microchip/xc8/v2.45/pic/sources/c99/common/doprnt.c: 1161:         ++*fmt
      +                          ;
  3255     0026  3001               	movlw	1
  3256     0027  00F8               	movwf	??_read_prec_or_width
  3257     0028  087C               	movf	read_prec_or_width@fmt,w
  3258     0029  0084               	movwf	4
  3259     002A  0878               	movf	??_read_prec_or_width,w
  3260     002B  0780               	addwf	0,f
  3261                           
  3262                           ;/Applications/microchip/xc8/v2.45/pic/sources/c99/common/doprnt.c: 1162:         n = (*
      +                          (int *)__va_arg(*(int **)*ap, (int)0));
  3263     002C  0876               	movf	read_prec_or_width@ap,w
  3264     002D  0084               	movwf	4
  3265     002E  0800               	movf	0,w
  3266     002F  00F8               	movwf	??_read_prec_or_width
  3267     0030  3002               	movlw	2
  3268     0031  0780               	addwf	0,f
  3269     0032  0878               	movf	??_read_prec_or_width,w
  3270     0033  0084               	movwf	4
  3271     0034  0800               	movf	0,w
  3272     0035  00FA               	movwf	read_prec_or_width@n
  3273     0036  0A84               	incf	4,f
  3274     0037  0800               	movf	0,w
  3275     0038  00FB               	movwf	read_prec_or_width@n+1
  3276                           
  3277                           ;/Applications/microchip/xc8/v2.45/pic/sources/c99/common/doprnt.c: 1163:     } else {
  3278     0039  2867               	goto	l1992
  3279     003A                     l1986:
  3280                           
  3281                           ;/Applications/microchip/xc8/v2.45/pic/sources/c99/common/doprnt.c: 1166:             n 
      +                          = n * 10 + c;
  3282     003A  087B               	movf	read_prec_or_width@n+1,w
  3283     003B  00F1               	movwf	___wmul@multiplier+1
  3284     003C  087A               	movf	read_prec_or_width@n,w
  3285     003D  00F0               	movwf	___wmul@multiplier
  3286     003E  300A               	movlw	10
  3287     003F  00F2               	movwf	___wmul@multiplicand
  3288     0040  3000               	movlw	0
  3289     0041  00F3               	movwf	___wmul@multiplicand+1
  3290     0042  160A  118A  23FE  120A  118A  	fcall	___wmul
  3291     0047  0879               	movf	read_prec_or_width@c,w
  3292     0048  0770               	addwf	?___wmul,w
  3293     0049  00FA               	movwf	read_prec_or_width@n
  3294     004A  3000               	movlw	0
  3295     004B  1803               	skipnc
  3296     004C  3001               	movlw	1
  3297     004D  0771               	addwf	?___wmul+1,w
  3298     004E  00FB               	movwf	read_prec_or_width@n+1
  3299     004F                     l1988:
  3300                           
  3301                           ;/Applications/microchip/xc8/v2.45/pic/sources/c99/common/doprnt.c: 1167:             ++
      +                          *fmt;
  3302     004F  3001               	movlw	1
  3303     0050  00F8               	movwf	??_read_prec_or_width
  3304     0051  087C               	movf	read_prec_or_width@fmt,w
  3305     0052  0084               	movwf	4
  3306     0053  0878               	movf	??_read_prec_or_width,w
  3307     0054  1383               	bcf	3,7	;select IRP bank0
  3308     0055  0780               	addwf	0,f
  3309     0056                     l1990:
  3310                           
  3311                           ;/Applications/microchip/xc8/v2.45/pic/sources/c99/common/doprnt.c: 1165:         while 
      +                          ((c = ((unsigned)(*fmt)[0]) - '0') < 10) {
  3312     0056  087C               	movf	read_prec_or_width@fmt,w
  3313     0057  0084               	movwf	4
  3314     0058  0800               	movf	0,w
  3315     0059  0084               	movwf	4
  3316     005A  160A  118A  200A  120A  118A  	fcall	stringdir
  3317     005F  3ED0               	addlw	208
  3318     0060  00F9               	movwf	read_prec_or_width@c
  3319     0061  300A               	movlw	10
  3320     0062  0279               	subwf	read_prec_or_width@c,w
  3321     0063  1C03               	skipc
  3322     0064  2866               	goto	u2781
  3323     0065  2867               	goto	u2780
  3324     0066                     u2781:
  3325     0066  283A               	goto	l1986
  3326     0067                     u2780:
  3327     0067                     l1992:
  3328                           
  3329                           ;/Applications/microchip/xc8/v2.45/pic/sources/c99/common/doprnt.c: 1170:     return n;
  3330     0067  087B               	movf	read_prec_or_width@n+1,w
  3331     0068  00F7               	movwf	?_read_prec_or_width+1
  3332     0069  087A               	movf	read_prec_or_width@n,w
  3333     006A  00F6               	movwf	?_read_prec_or_width
  3334     006B                     l738:
  3335     006B  0008               	return
  3336     006C                     __end_of_read_prec_or_width:
  3337                           
  3338                           	psect	text12
  3339     13FE                     __ptext12:	
  3340 ;; *************** function ___wmul *****************
  3341 ;; Defined at:
  3342 ;;		line 15 in file "/Applications/microchip/xc8/v2.45/pic/sources/c99/common/Umul16.c"
  3343 ;; Parameters:    Size  Location     Type
  3344 ;;  multiplier      2    0[COMMON] unsigned int 
  3345 ;;  multiplicand    2    2[COMMON] unsigned int 
  3346 ;; Auto vars:     Size  Location     Type
  3347 ;;  product         2    4[COMMON] unsigned int 
  3348 ;; Return value:  Size  Location     Type
  3349 ;;                  2    0[COMMON] unsigned int 
  3350 ;; Registers used:
  3351 ;;		wreg, status,2, status,0
  3352 ;; Tracked objects:
  3353 ;;		On entry : 0/0
  3354 ;;		On exit  : 0/0
  3355 ;;		Unchanged: 0/0
  3356 ;; Data sizes:     COMMON   BANK0   BANK1   BANK3   BANK2
  3357 ;;      Params:         4       0       0       0       0
  3358 ;;      Locals:         2       0       0       0       0
  3359 ;;      Temps:          0       0       0       0       0
  3360 ;;      Totals:         6       0       0       0       0
  3361 ;;Total ram usage:        6 bytes
  3362 ;; Hardware stack levels used: 1
  3363 ;; This function calls:
  3364 ;;		Nothing
  3365 ;; This function is called by:
  3366 ;;		_read_prec_or_width
  3367 ;; This function uses a non-reentrant model
  3368 ;;
  3369                           
  3370     13FE                     ___wmul:	
  3371                           ;psect for function ___wmul
  3372                           
  3373     13FE                     l1870:	
  3374                           ;incstack = 0
  3375                           ; Regs used in ___wmul: [wreg+status,2+status,0]
  3376                           
  3377     13FE  01F4               	clrf	___wmul@product
  3378     13FF  01F5               	clrf	___wmul@product+1
  3379     1400                     l1872:
  3380     1400  1C70               	btfss	___wmul@multiplier,0
  3381     1401  2C03               	goto	u2531
  3382     1402  2C04               	goto	u2530
  3383     1403                     u2531:
  3384     1403  2C0A               	goto	l236
  3385     1404                     u2530:
  3386     1404                     l1874:
  3387     1404  0872               	movf	___wmul@multiplicand,w
  3388     1405  07F4               	addwf	___wmul@product,f
  3389     1406  1803               	skipnc
  3390     1407  0AF5               	incf	___wmul@product+1,f
  3391     1408  0873               	movf	___wmul@multiplicand+1,w
  3392     1409  07F5               	addwf	___wmul@product+1,f
  3393     140A                     l236:
  3394     140A  3001               	movlw	1
  3395     140B                     u2545:
  3396     140B  1003               	clrc
  3397     140C  0DF2               	rlf	___wmul@multiplicand,f
  3398     140D  0DF3               	rlf	___wmul@multiplicand+1,f
  3399     140E  3EFF               	addlw	-1
  3400     140F  1D03               	skipz
  3401     1410  2C0B               	goto	u2545
  3402     1411                     l1876:
  3403     1411  3001               	movlw	1
  3404     1412                     u2555:
  3405     1412  1003               	clrc
  3406     1413  0CF1               	rrf	___wmul@multiplier+1,f
  3407     1414  0CF0               	rrf	___wmul@multiplier,f
  3408     1415  3EFF               	addlw	-1
  3409     1416  1D03               	skipz
  3410     1417  2C12               	goto	u2555
  3411     1418                     l1878:
  3412     1418  0870               	movf	___wmul@multiplier,w
  3413     1419  0471               	iorwf	___wmul@multiplier+1,w
  3414     141A  1D03               	btfss	3,2
  3415     141B  2C1D               	goto	u2561
  3416     141C  2C1E               	goto	u2560
  3417     141D                     u2561:
  3418     141D  2C00               	goto	l1872
  3419     141E                     u2560:
  3420     141E                     l1880:
  3421     141E  0875               	movf	___wmul@product+1,w
  3422     141F  00F1               	movwf	?___wmul+1
  3423     1420  0874               	movf	___wmul@product,w
  3424     1421  00F0               	movwf	?___wmul
  3425     1422                     l238:
  3426     1422  0008               	return
  3427     1423                     __end_of___wmul:
  3428                           
  3429                           	psect	text13
  3430     1719                     __ptext13:	
  3431 ;; *************** function _readTemperature *****************
  3432 ;; Defined at:
  3433 ;;		line 69 in file "teste.c"
  3434 ;; Parameters:    Size  Location     Type
  3435 ;;		None
  3436 ;; Auto vars:     Size  Location     Type
  3437 ;;  voltage         4   56[BANK0 ] unsigned int 
  3438 ;;  adcValue        2   60[BANK0 ] unsigned int 
  3439 ;; Return value:  Size  Location     Type
  3440 ;;                  4   52[BANK0 ] unsigned int 
  3441 ;; Registers used:
  3442 ;;		wreg, status,2, status,0, btemp+1, pclath, cstack
  3443 ;; Tracked objects:
  3444 ;;		On entry : 0/0
  3445 ;;		On exit  : 0/0
  3446 ;;		Unchanged: 0/0
  3447 ;; Data sizes:     COMMON   BANK0   BANK1   BANK3   BANK2
  3448 ;;      Params:         0       4       0       0       0
  3449 ;;      Locals:         0       6       0       0       0
  3450 ;;      Temps:          0       0       0       0       0
  3451 ;;      Totals:         0      10       0       0       0
  3452 ;;Total ram usage:       10 bytes
  3453 ;; Hardware stack levels used: 1
  3454 ;; Hardware stack levels required when called: 2
  3455 ;; This function calls:
  3456 ;;		___fldiv
  3457 ;;		___flmul
  3458 ;;		___xxtofl
  3459 ;;		_readADC
  3460 ;; This function is called by:
  3461 ;;		_main
  3462 ;; This function uses a non-reentrant model
  3463 ;;
  3464                           
  3465     1719                     _readTemperature:	
  3466                           ;psect for function _readTemperature
  3467                           
  3468     1719                     l2430:	
  3469                           ;incstack = 0
  3470                           ; Regs used in _readTemperature: [wreg+status,2+status,0+btemp+1+pclath+cstack]
  3471                           
  3472                           
  3473                           ;teste.c: 70: 
  3474     1719  160A  118A  2364  160A  118A  	fcall	_readADC
  3475     171E  0871               	movf	?_readADC+1,w
  3476     171F  1283               	bcf	3,5	;RP0=0, select bank0
  3477     1720  1303               	bcf	3,6	;RP1=0, select bank0
  3478     1721  00DD               	movwf	readTemperature@adcValue+1
  3479     1722  0870               	movf	?_readADC,w
  3480     1723  00DC               	movwf	readTemperature@adcValue
  3481     1724                     l2432:
  3482                           
  3483                           ;teste.c: 71:         if (currentState != lastState && currentState == 1) {
  3484     1724  3040               	movlw	64
  3485     1725  00BD               	movwf	___flmul@b+3
  3486     1726  30A0               	movlw	160
  3487     1727  00BC               	movwf	___flmul@b+2
  3488     1728  3000               	movlw	0
  3489     1729  00BB               	movwf	___flmul@b+1
  3490     172A  3000               	movlw	0
  3491     172B  00BA               	movwf	___flmul@b
  3492     172C  3044               	movlw	68
  3493     172D  00A3               	movwf	___fldiv@a+3
  3494     172E  3080               	movlw	128
  3495     172F  00A2               	movwf	___fldiv@a+2
  3496     1730  3000               	movlw	0
  3497     1731  00A1               	movwf	___fldiv@a+1
  3498     1732  3000               	movlw	0
  3499     1733  00A0               	movwf	___fldiv@a
  3500     1734  085C               	movf	readTemperature@adcValue,w
  3501     1735  00F0               	movwf	___xxtofl@val
  3502     1736  085D               	movf	readTemperature@adcValue+1,w
  3503     1737  00F1               	movwf	___xxtofl@val+1
  3504     1738  01F2               	clrf	___xxtofl@val+2
  3505     1739  01F3               	clrf	___xxtofl@val+3
  3506     173A  3000               	movlw	0
  3507     173B  120A  158A  21C0  160A  118A  	fcall	___xxtofl
  3508     1740  0873               	movf	?___xxtofl+3,w
  3509     1741  1283               	bcf	3,5	;RP0=0, select bank0
  3510     1742  1303               	bcf	3,6	;RP1=0, select bank0
  3511     1743  00A7               	movwf	___fldiv@b+3
  3512     1744  0872               	movf	?___xxtofl+2,w
  3513     1745  00A6               	movwf	___fldiv@b+2
  3514     1746  0871               	movf	?___xxtofl+1,w
  3515     1747  00A5               	movwf	___fldiv@b+1
  3516     1748  0870               	movf	?___xxtofl,w
  3517     1749  00A4               	movwf	___fldiv@b
  3518     174A  120A  158A  23A2  160A  118A  	fcall	___fldiv
  3519     174F  1283               	bcf	3,5	;RP0=0, select bank0
  3520     1750  1303               	bcf	3,6	;RP1=0, select bank0
  3521     1751  0823               	movf	?___fldiv+3,w
  3522     1752  00C1               	movwf	___flmul@a+3
  3523     1753  0822               	movf	?___fldiv+2,w
  3524     1754  00C0               	movwf	___flmul@a+2
  3525     1755  0821               	movf	?___fldiv+1,w
  3526     1756  00BF               	movwf	___flmul@a+1
  3527     1757  0820               	movf	?___fldiv,w
  3528     1758  00BE               	movwf	___flmul@a
  3529     1759  120A  118A  2497  160A  118A  	fcall	___flmul
  3530     175E  1283               	bcf	3,5	;RP0=0, select bank0
  3531     175F  1303               	bcf	3,6	;RP1=0, select bank0
  3532     1760  083D               	movf	?___flmul+3,w
  3533     1761  00DB               	movwf	readTemperature@voltage+3
  3534     1762  083C               	movf	?___flmul+2,w
  3535     1763  00DA               	movwf	readTemperature@voltage+2
  3536     1764  083B               	movf	?___flmul+1,w
  3537     1765  00D9               	movwf	readTemperature@voltage+1
  3538     1766  083A               	movf	?___flmul,w
  3539     1767  00D8               	movwf	readTemperature@voltage
  3540     1768                     l2434:
  3541                           
  3542                           ;teste.c: 72:             pulseCount++;
  3543     1768  303C               	movlw	60
  3544     1769  00A3               	movwf	___fldiv@a+3
  3545     176A  3023               	movlw	35
  3546     176B  00A2               	movwf	___fldiv@a+2
  3547     176C  30D7               	movlw	215
  3548     176D  00A1               	movwf	___fldiv@a+1
  3549     176E  300A               	movlw	10
  3550     176F  00A0               	movwf	___fldiv@a
  3551     1770  085B               	movf	readTemperature@voltage+3,w
  3552     1771  00A7               	movwf	___fldiv@b+3
  3553     1772  085A               	movf	readTemperature@voltage+2,w
  3554     1773  00A6               	movwf	___fldiv@b+2
  3555     1774  0859               	movf	readTemperature@voltage+1,w
  3556     1775  00A5               	movwf	___fldiv@b+1
  3557     1776  0858               	movf	readTemperature@voltage,w
  3558     1777  00A4               	movwf	___fldiv@b
  3559     1778  120A  158A  23A2  160A  118A  	fcall	___fldiv
  3560     177D  1283               	bcf	3,5	;RP0=0, select bank0
  3561     177E  1303               	bcf	3,6	;RP1=0, select bank0
  3562     177F  0823               	movf	?___fldiv+3,w
  3563     1780  00D7               	movwf	?_readTemperature+3
  3564     1781  0822               	movf	?___fldiv+2,w
  3565     1782  00D6               	movwf	?_readTemperature+2
  3566     1783  0821               	movf	?___fldiv+1,w
  3567     1784  00D5               	movwf	?_readTemperature+1
  3568     1785  0820               	movf	?___fldiv,w
  3569     1786  00D4               	movwf	?_readTemperature
  3570     1787                     l76:
  3571     1787  0008               	return
  3572     1788                     __end_of_readTemperature:
  3573                           
  3574                           	psect	text14
  3575     1364                     __ptext14:	
  3576 ;; *************** function _readADC *****************
  3577 ;; Defined at:
  3578 ;;		line 63 in file "teste.c"
  3579 ;; Parameters:    Size  Location     Type
  3580 ;;		None
  3581 ;; Auto vars:     Size  Location     Type
  3582 ;;		None
  3583 ;; Return value:  Size  Location     Type
  3584 ;;                  2    0[COMMON] unsigned int 
  3585 ;; Registers used:
  3586 ;;		wreg
  3587 ;; Tracked objects:
  3588 ;;		On entry : 0/0
  3589 ;;		On exit  : 0/0
  3590 ;;		Unchanged: 0/0
  3591 ;; Data sizes:     COMMON   BANK0   BANK1   BANK3   BANK2
  3592 ;;      Params:         2       0       0       0       0
  3593 ;;      Locals:         0       0       0       0       0
  3594 ;;      Temps:          0       0       0       0       0
  3595 ;;      Totals:         2       0       0       0       0
  3596 ;;Total ram usage:        2 bytes
  3597 ;; Hardware stack levels used: 1
  3598 ;; This function calls:
  3599 ;;		Nothing
  3600 ;; This function is called by:
  3601 ;;		_readTemperature
  3602 ;; This function uses a non-reentrant model
  3603 ;;
  3604                           
  3605     1364                     _readADC:	
  3606                           ;psect for function _readADC
  3607                           
  3608     1364                     l2056:	
  3609                           ;incstack = 0
  3610                           ; Regs used in _readADC: [wreg]
  3611                           
  3612                           
  3613                           ;teste.c: 64: 
  3614     1364  1283               	bcf	3,5	;RP0=0, select bank0
  3615     1365  1303               	bcf	3,6	;RP1=0, select bank0
  3616     1366  149F               	bsf	31,1	;volatile
  3617     1367                     l70:	
  3618                           ;teste.c: 65:     TMR0 = 0;
  3619                           
  3620     1367  189F               	btfsc	31,1	;volatile
  3621     1368  2B6A               	goto	u3081
  3622     1369  2B6B               	goto	u3080
  3623     136A                     u3081:
  3624     136A  2B67               	goto	l70
  3625     136B                     u3080:
  3626     136B                     l2058:
  3627                           
  3628                           ;teste.c: 66:     INTCONbits.TMR0IF = 0;
  3629     136B  081E               	movf	30,w	;volatile
  3630     136C  00F1               	movwf	?_readADC+1
  3631     136D  1683               	bsf	3,5	;RP0=1, select bank1
  3632     136E  1303               	bcf	3,6	;RP1=0, select bank1
  3633     136F  081E               	movf	30,w	;volatile
  3634     1370  00F0               	movwf	?_readADC
  3635     1371                     l73:
  3636     1371  0008               	return
  3637     1372                     __end_of_readADC:
  3638                           
  3639                           	psect	text15
  3640     09C0                     __ptext15:	
  3641 ;; *************** function ___xxtofl *****************
  3642 ;; Defined at:
  3643 ;;		line 10 in file "/Applications/microchip/xc8/v2.45/pic/sources/c99/common/xxtofl.c"
  3644 ;; Parameters:    Size  Location     Type
  3645 ;;  sign            1    wreg     unsigned char 
  3646 ;;  val             4    0[COMMON] long 
  3647 ;; Auto vars:     Size  Location     Type
  3648 ;;  sign            1    8[COMMON] unsigned char 
  3649 ;;  arg             4   10[COMMON] unsigned long 
  3650 ;;  exp             1    9[COMMON] unsigned char 
  3651 ;; Return value:  Size  Location     Type
  3652 ;;                  4    0[COMMON] unsigned char 
  3653 ;; Registers used:
  3654 ;;		wreg, status,2, status,0
  3655 ;; Tracked objects:
  3656 ;;		On entry : 0/0
  3657 ;;		On exit  : 0/0
  3658 ;;		Unchanged: 0/0
  3659 ;; Data sizes:     COMMON   BANK0   BANK1   BANK3   BANK2
  3660 ;;      Params:         4       0       0       0       0
  3661 ;;      Locals:         6       0       0       0       0
  3662 ;;      Temps:          4       0       0       0       0
  3663 ;;      Totals:        14       0       0       0       0
  3664 ;;Total ram usage:       14 bytes
  3665 ;; Hardware stack levels used: 1
  3666 ;; This function calls:
  3667 ;;		Nothing
  3668 ;; This function is called by:
  3669 ;;		_readTemperature
  3670 ;;		_main
  3671 ;; This function uses a non-reentrant model
  3672 ;;
  3673                           
  3674     09C0                     ___xxtofl:	
  3675                           ;psect for function ___xxtofl
  3676                           
  3677                           
  3678                           ;incstack = 0
  3679                           ; Regs used in ___xxtofl: [wreg+status,2+status,0]
  3680                           ;___xxtofl@sign stored from wreg
  3681     09C0  00F8               	movwf	___xxtofl@sign
  3682     09C1                     l2350:
  3683     09C1  0878               	movf	___xxtofl@sign,w
  3684     09C2  1903               	btfsc	3,2
  3685     09C3  29C5               	goto	u3981
  3686     09C4  29C6               	goto	u3980
  3687     09C5                     u3981:
  3688     09C5  29DA               	goto	l2356
  3689     09C6                     u3980:
  3690     09C6                     l2352:
  3691     09C6  1FF3               	btfss	___xxtofl@val+3,7
  3692     09C7  29C9               	goto	u3991
  3693     09C8  29CA               	goto	u3990
  3694     09C9                     u3991:
  3695     09C9  29DA               	goto	l2356
  3696     09CA                     u3990:
  3697     09CA                     l2354:
  3698     09CA  0970               	comf	___xxtofl@val,w
  3699     09CB  00FA               	movwf	___xxtofl@arg
  3700     09CC  0971               	comf	___xxtofl@val+1,w
  3701     09CD  00FB               	movwf	___xxtofl@arg+1
  3702     09CE  0972               	comf	___xxtofl@val+2,w
  3703     09CF  00FC               	movwf	___xxtofl@arg+2
  3704     09D0  0973               	comf	___xxtofl@val+3,w
  3705     09D1  00FD               	movwf	___xxtofl@arg+3
  3706     09D2  0AFA               	incf	___xxtofl@arg,f
  3707     09D3  1903               	skipnz
  3708     09D4  0AFB               	incf	___xxtofl@arg+1,f
  3709     09D5  1903               	skipnz
  3710     09D6  0AFC               	incf	___xxtofl@arg+2,f
  3711     09D7  1903               	skipnz
  3712     09D8  0AFD               	incf	___xxtofl@arg+3,f
  3713     09D9  29E2               	goto	l677
  3714     09DA                     l2356:
  3715     09DA  0873               	movf	___xxtofl@val+3,w
  3716     09DB  00FD               	movwf	___xxtofl@arg+3
  3717     09DC  0872               	movf	___xxtofl@val+2,w
  3718     09DD  00FC               	movwf	___xxtofl@arg+2
  3719     09DE  0871               	movf	___xxtofl@val+1,w
  3720     09DF  00FB               	movwf	___xxtofl@arg+1
  3721     09E0  0870               	movf	___xxtofl@val,w
  3722     09E1  00FA               	movwf	___xxtofl@arg
  3723     09E2                     l677:
  3724     09E2  0873               	movf	___xxtofl@val+3,w
  3725     09E3  0472               	iorwf	___xxtofl@val+2,w
  3726     09E4  0471               	iorwf	___xxtofl@val+1,w
  3727     09E5  0470               	iorwf	___xxtofl@val,w
  3728     09E6  1D03               	skipz
  3729     09E7  29E9               	goto	u4001
  3730     09E8  29EA               	goto	u4000
  3731     09E9                     u4001:
  3732     09E9  29F3               	goto	l2362
  3733     09EA                     u4000:
  3734     09EA                     l2358:
  3735     09EA  3000               	movlw	0
  3736     09EB  00F3               	movwf	?___xxtofl+3
  3737     09EC  3000               	movlw	0
  3738     09ED  00F2               	movwf	?___xxtofl+2
  3739     09EE  3000               	movlw	0
  3740     09EF  00F1               	movwf	?___xxtofl+1
  3741     09F0  3000               	movlw	0
  3742     09F1  00F0               	movwf	?___xxtofl
  3743     09F2  2A77               	goto	l679
  3744     09F3                     l2362:
  3745     09F3  3096               	movlw	150
  3746     09F4  00F9               	movwf	___xxtofl@exp
  3747     09F5  2A03               	goto	l2366
  3748     09F6                     l2364:
  3749     09F6  3001               	movlw	1
  3750     09F7  00F4               	movwf	??___xxtofl
  3751     09F8  0874               	movf	??___xxtofl,w
  3752     09F9  07F9               	addwf	___xxtofl@exp,f
  3753     09FA  3001               	movlw	1
  3754     09FB                     u4015:
  3755     09FB  1003               	clrc
  3756     09FC  0CFD               	rrf	___xxtofl@arg+3,f
  3757     09FD  0CFC               	rrf	___xxtofl@arg+2,f
  3758     09FE  0CFB               	rrf	___xxtofl@arg+1,f
  3759     09FF  0CFA               	rrf	___xxtofl@arg,f
  3760     0A00  3EFF               	addlw	-1
  3761     0A01  1D03               	skipz
  3762     0A02  29FB               	goto	u4015
  3763     0A03                     l2366:
  3764     0A03  30FE               	movlw	254
  3765     0A04  057D               	andwf	___xxtofl@arg+3,w
  3766     0A05  1D03               	btfss	3,2
  3767     0A06  2A08               	goto	u4021
  3768     0A07  2A09               	goto	u4020
  3769     0A08                     u4021:
  3770     0A08  29F6               	goto	l2364
  3771     0A09                     u4020:
  3772     0A09  2A25               	goto	l683
  3773     0A0A                     l2368:
  3774     0A0A  3001               	movlw	1
  3775     0A0B  00F4               	movwf	??___xxtofl
  3776     0A0C  0874               	movf	??___xxtofl,w
  3777     0A0D  07F9               	addwf	___xxtofl@exp,f
  3778     0A0E                     l2370:
  3779     0A0E  3001               	movlw	1
  3780     0A0F  07FA               	addwf	___xxtofl@arg,f
  3781     0A10  3000               	movlw	0
  3782     0A11  1803               	skipnc
  3783     0A12  3001               	movlw	1
  3784     0A13  07FB               	addwf	___xxtofl@arg+1,f
  3785     0A14  3000               	movlw	0
  3786     0A15  1803               	skipnc
  3787     0A16  3001               	movlw	1
  3788     0A17  07FC               	addwf	___xxtofl@arg+2,f
  3789     0A18  3000               	movlw	0
  3790     0A19  1803               	skipnc
  3791     0A1A  3001               	movlw	1
  3792     0A1B  07FD               	addwf	___xxtofl@arg+3,f
  3793     0A1C                     l2372:
  3794     0A1C  3001               	movlw	1
  3795     0A1D                     u4035:
  3796     0A1D  1003               	clrc
  3797     0A1E  0CFD               	rrf	___xxtofl@arg+3,f
  3798     0A1F  0CFC               	rrf	___xxtofl@arg+2,f
  3799     0A20  0CFB               	rrf	___xxtofl@arg+1,f
  3800     0A21  0CFA               	rrf	___xxtofl@arg,f
  3801     0A22  3EFF               	addlw	-1
  3802     0A23  1D03               	skipz
  3803     0A24  2A1D               	goto	u4035
  3804     0A25                     l683:
  3805     0A25  30FF               	movlw	255
  3806     0A26  057D               	andwf	___xxtofl@arg+3,w
  3807     0A27  1D03               	btfss	3,2
  3808     0A28  2A2A               	goto	u4041
  3809     0A29  2A2B               	goto	u4040
  3810     0A2A                     u4041:
  3811     0A2A  2A0A               	goto	l2368
  3812     0A2B                     u4040:
  3813     0A2B  2A37               	goto	l2376
  3814     0A2C                     l2374:
  3815     0A2C  3001               	movlw	1
  3816     0A2D  02F9               	subwf	___xxtofl@exp,f
  3817     0A2E  3001               	movlw	1
  3818     0A2F  00F4               	movwf	??___xxtofl
  3819     0A30                     u4055:
  3820     0A30  1003               	clrc
  3821     0A31  0DFA               	rlf	___xxtofl@arg,f
  3822     0A32  0DFB               	rlf	___xxtofl@arg+1,f
  3823     0A33  0DFC               	rlf	___xxtofl@arg+2,f
  3824     0A34  0DFD               	rlf	___xxtofl@arg+3,f
  3825     0A35  0BF4               	decfsz	??___xxtofl,f
  3826     0A36  2A30               	goto	u4055
  3827     0A37                     l2376:
  3828     0A37  1BFC               	btfsc	___xxtofl@arg+2,7
  3829     0A38  2A3A               	goto	u4061
  3830     0A39  2A3B               	goto	u4060
  3831     0A3A                     u4061:
  3832     0A3A  2A41               	goto	l690
  3833     0A3B                     u4060:
  3834     0A3B                     l2378:
  3835     0A3B  3002               	movlw	2
  3836     0A3C  0279               	subwf	___xxtofl@exp,w
  3837     0A3D  1803               	skipnc
  3838     0A3E  2A40               	goto	u4071
  3839     0A3F  2A41               	goto	u4070
  3840     0A40                     u4071:
  3841     0A40  2A2C               	goto	l2374
  3842     0A41                     u4070:
  3843     0A41                     l690:
  3844     0A41  1879               	btfsc	___xxtofl@exp,0
  3845     0A42  2A44               	goto	u4081
  3846     0A43  2A45               	goto	u4080
  3847     0A44                     u4081:
  3848     0A44  2A4D               	goto	l691
  3849     0A45                     u4080:
  3850     0A45                     l2380:
  3851     0A45  30FF               	movlw	255
  3852     0A46  05FA               	andwf	___xxtofl@arg,f
  3853     0A47  30FF               	movlw	255
  3854     0A48  05FB               	andwf	___xxtofl@arg+1,f
  3855     0A49  307F               	movlw	127
  3856     0A4A  05FC               	andwf	___xxtofl@arg+2,f
  3857     0A4B  30FF               	movlw	255
  3858     0A4C  05FD               	andwf	___xxtofl@arg+3,f
  3859     0A4D                     l691:
  3860     0A4D  1003               	clrc
  3861     0A4E  0CF9               	rrf	___xxtofl@exp,f
  3862     0A4F                     l2382:
  3863     0A4F  0879               	movf	___xxtofl@exp,w
  3864     0A50  00F4               	movwf	??___xxtofl
  3865     0A51  01F5               	clrf	??___xxtofl+1
  3866     0A52  01F6               	clrf	??___xxtofl+2
  3867     0A53  01F7               	clrf	??___xxtofl+3
  3868     0A54  3018               	movlw	24
  3869     0A55                     u4095:
  3870     0A55  1003               	clrc
  3871     0A56  0DF4               	rlf	??___xxtofl,f
  3872     0A57  0DF5               	rlf	??___xxtofl+1,f
  3873     0A58  0DF6               	rlf	??___xxtofl+2,f
  3874     0A59  0DF7               	rlf	??___xxtofl+3,f
  3875     0A5A                     u4090:
  3876     0A5A  3EFF               	addlw	-1
  3877     0A5B  1D03               	skipz
  3878     0A5C  2A55               	goto	u4095
  3879     0A5D  0874               	movf	??___xxtofl,w
  3880     0A5E  04FA               	iorwf	___xxtofl@arg,f
  3881     0A5F  0875               	movf	??___xxtofl+1,w
  3882     0A60  04FB               	iorwf	___xxtofl@arg+1,f
  3883     0A61  0876               	movf	??___xxtofl+2,w
  3884     0A62  04FC               	iorwf	___xxtofl@arg+2,f
  3885     0A63  0877               	movf	??___xxtofl+3,w
  3886     0A64  04FD               	iorwf	___xxtofl@arg+3,f
  3887     0A65                     l2384:
  3888     0A65  0878               	movf	___xxtofl@sign,w
  3889     0A66  1903               	btfsc	3,2
  3890     0A67  2A69               	goto	u4101
  3891     0A68  2A6A               	goto	u4100
  3892     0A69                     u4101:
  3893     0A69  2A6F               	goto	l2390
  3894     0A6A                     u4100:
  3895     0A6A                     l2386:
  3896     0A6A  1FF3               	btfss	___xxtofl@val+3,7
  3897     0A6B  2A6D               	goto	u4111
  3898     0A6C  2A6E               	goto	u4110
  3899     0A6D                     u4111:
  3900     0A6D  2A6F               	goto	l2390
  3901     0A6E                     u4110:
  3902     0A6E                     l2388:
  3903     0A6E  17FD               	bsf	___xxtofl@arg+3,7
  3904     0A6F                     l2390:
  3905     0A6F  087D               	movf	___xxtofl@arg+3,w
  3906     0A70  00F3               	movwf	?___xxtofl+3
  3907     0A71  087C               	movf	___xxtofl@arg+2,w
  3908     0A72  00F2               	movwf	?___xxtofl+2
  3909     0A73  087B               	movf	___xxtofl@arg+1,w
  3910     0A74  00F1               	movwf	?___xxtofl+1
  3911     0A75  087A               	movf	___xxtofl@arg,w
  3912     0A76  00F0               	movwf	?___xxtofl
  3913     0A77                     l679:
  3914     0A77  0008               	return
  3915     0A78                     __end_of___xxtofl:
  3916                           
  3917                           	psect	text16
  3918     0497                     __ptext16:	
  3919 ;; *************** function ___flmul *****************
  3920 ;; Defined at:
  3921 ;;		line 8 in file "/Applications/microchip/xc8/v2.45/pic/sources/c99/common/sprcmul.c"
  3922 ;; Parameters:    Size  Location     Type
  3923 ;;  b               4   26[BANK0 ] unsigned char 
  3924 ;;  a               4   30[BANK0 ] unsigned char 
  3925 ;; Auto vars:     Size  Location     Type
  3926 ;;  prod            4   46[BANK0 ] struct .
  3927 ;;  grs             4   40[BANK0 ] unsigned long 
  3928 ;;  temp            2   50[BANK0 ] struct .
  3929 ;;  bexp            1   45[BANK0 ] unsigned char 
  3930 ;;  aexp            1   44[BANK0 ] unsigned char 
  3931 ;;  sign            1   39[BANK0 ] unsigned char 
  3932 ;; Return value:  Size  Location     Type
  3933 ;;                  4   26[BANK0 ] unsigned char 
  3934 ;; Registers used:
  3935 ;;		wreg, status,2, status,0, btemp+1, pclath, cstack
  3936 ;; Tracked objects:
  3937 ;;		On entry : 0/0
  3938 ;;		On exit  : 0/0
  3939 ;;		Unchanged: 0/0
  3940 ;; Data sizes:     COMMON   BANK0   BANK1   BANK3   BANK2
  3941 ;;      Params:         0       8       0       0       0
  3942 ;;      Locals:         0      13       0       0       0
  3943 ;;      Temps:          0       5       0       0       0
  3944 ;;      Totals:         0      26       0       0       0
  3945 ;;Total ram usage:       26 bytes
  3946 ;; Hardware stack levels used: 1
  3947 ;; Hardware stack levels required when called: 1
  3948 ;; This function calls:
  3949 ;;		__Umul8_16
  3950 ;; This function is called by:
  3951 ;;		_readTemperature
  3952 ;;		_main
  3953 ;; This function uses a non-reentrant model
  3954 ;;
  3955                           
  3956     0497                     ___flmul:	
  3957                           ;psect for function ___flmul
  3958                           
  3959     0497                     l2210:	
  3960                           ;incstack = 0
  3961                           ; Regs used in ___flmul: [wreg+status,2+status,0+btemp+1+pclath+cstack]
  3962                           
  3963     0497  1283               	bcf	3,5	;RP0=0, select bank0
  3964     0498  1303               	bcf	3,6	;RP1=0, select bank0
  3965     0499  083D               	movf	___flmul@b+3,w
  3966     049A  3980               	andlw	128
  3967     049B  00C7               	movwf	___flmul@sign
  3968     049C                     l2212:
  3969     049C  083D               	movf	___flmul@b+3,w
  3970     049D  00C2               	movwf	??___flmul
  3971     049E  0742               	addwf	??___flmul,w
  3972     049F  00CD               	movwf	___flmul@bexp
  3973     04A0                     l2214:
  3974     04A0  1FBC               	btfss	___flmul@b+2,7
  3975     04A1  2CA3               	goto	u3611
  3976     04A2  2CA4               	goto	u3610
  3977     04A3                     u3611:
  3978     04A3  2CA5               	goto	l2218
  3979     04A4                     u3610:
  3980     04A4                     l2216:
  3981     04A4  144D               	bsf	___flmul@bexp,0
  3982     04A5                     l2218:
  3983     04A5  084D               	movf	___flmul@bexp,w
  3984     04A6  1903               	btfsc	3,2
  3985     04A7  2CA9               	goto	u3621
  3986     04A8  2CAA               	goto	u3620
  3987     04A9                     u3621:
  3988     04A9  2CB9               	goto	l2226
  3989     04AA                     u3620:
  3990     04AA                     l2220:
  3991     04AA  0A4D               	incf	___flmul@bexp,w
  3992     04AB  1D03               	btfss	3,2
  3993     04AC  2CAE               	goto	u3631
  3994     04AD  2CAF               	goto	u3630
  3995     04AE                     u3631:
  3996     04AE  2CB7               	goto	l2224
  3997     04AF                     u3630:
  3998     04AF                     l2222:
  3999     04AF  3000               	movlw	0
  4000     04B0  00BD               	movwf	___flmul@b+3
  4001     04B1  3000               	movlw	0
  4002     04B2  00BC               	movwf	___flmul@b+2
  4003     04B3  3000               	movlw	0
  4004     04B4  00BB               	movwf	___flmul@b+1
  4005     04B5  3000               	movlw	0
  4006     04B6  00BA               	movwf	___flmul@b
  4007     04B7                     l2224:
  4008     04B7  17BC               	bsf	___flmul@b+2,7
  4009     04B8  2CC1               	goto	l2228
  4010     04B9                     l2226:
  4011     04B9  3000               	movlw	0
  4012     04BA  00BD               	movwf	___flmul@b+3
  4013     04BB  3000               	movlw	0
  4014     04BC  00BC               	movwf	___flmul@b+2
  4015     04BD  3000               	movlw	0
  4016     04BE  00BB               	movwf	___flmul@b+1
  4017     04BF  3000               	movlw	0
  4018     04C0  00BA               	movwf	___flmul@b
  4019     04C1                     l2228:
  4020     04C1  0841               	movf	___flmul@a+3,w
  4021     04C2  3980               	andlw	128
  4022     04C3  00C2               	movwf	??___flmul
  4023     04C4  0842               	movf	??___flmul,w
  4024     04C5  06C7               	xorwf	___flmul@sign,f
  4025     04C6                     l2230:
  4026     04C6  0841               	movf	___flmul@a+3,w
  4027     04C7  00C2               	movwf	??___flmul
  4028     04C8  0742               	addwf	??___flmul,w
  4029     04C9  00CC               	movwf	___flmul@aexp
  4030     04CA                     l2232:
  4031     04CA  1FC0               	btfss	___flmul@a+2,7
  4032     04CB  2CCD               	goto	u3641
  4033     04CC  2CCE               	goto	u3640
  4034     04CD                     u3641:
  4035     04CD  2CCF               	goto	l2236
  4036     04CE                     u3640:
  4037     04CE                     l2234:
  4038     04CE  144C               	bsf	___flmul@aexp,0
  4039     04CF                     l2236:
  4040     04CF  084C               	movf	___flmul@aexp,w
  4041     04D0  1903               	btfsc	3,2
  4042     04D1  2CD3               	goto	u3651
  4043     04D2  2CD4               	goto	u3650
  4044     04D3                     u3651:
  4045     04D3  2CE3               	goto	l2244
  4046     04D4                     u3650:
  4047     04D4                     l2238:
  4048     04D4  0A4C               	incf	___flmul@aexp,w
  4049     04D5  1D03               	btfss	3,2
  4050     04D6  2CD8               	goto	u3661
  4051     04D7  2CD9               	goto	u3660
  4052     04D8                     u3661:
  4053     04D8  2CE1               	goto	l2242
  4054     04D9                     u3660:
  4055     04D9                     l2240:
  4056     04D9  3000               	movlw	0
  4057     04DA  00C1               	movwf	___flmul@a+3
  4058     04DB  3000               	movlw	0
  4059     04DC  00C0               	movwf	___flmul@a+2
  4060     04DD  3000               	movlw	0
  4061     04DE  00BF               	movwf	___flmul@a+1
  4062     04DF  3000               	movlw	0
  4063     04E0  00BE               	movwf	___flmul@a
  4064     04E1                     l2242:
  4065     04E1  17C0               	bsf	___flmul@a+2,7
  4066     04E2  2CEB               	goto	l2246
  4067     04E3                     l2244:
  4068     04E3  3000               	movlw	0
  4069     04E4  00C1               	movwf	___flmul@a+3
  4070     04E5  3000               	movlw	0
  4071     04E6  00C0               	movwf	___flmul@a+2
  4072     04E7  3000               	movlw	0
  4073     04E8  00BF               	movwf	___flmul@a+1
  4074     04E9  3000               	movlw	0
  4075     04EA  00BE               	movwf	___flmul@a
  4076     04EB                     l2246:
  4077     04EB  084C               	movf	___flmul@aexp,w
  4078     04EC  1903               	btfsc	3,2
  4079     04ED  2CEF               	goto	u3671
  4080     04EE  2CF0               	goto	u3670
  4081     04EF                     u3671:
  4082     04EF  2CF5               	goto	l2250
  4083     04F0                     u3670:
  4084     04F0                     l2248:
  4085     04F0  084D               	movf	___flmul@bexp,w
  4086     04F1  1D03               	btfss	3,2
  4087     04F2  2CF4               	goto	u3681
  4088     04F3  2CF5               	goto	u3680
  4089     04F4                     u3681:
  4090     04F4  2CFE               	goto	l2254
  4091     04F5                     u3680:
  4092     04F5                     l2250:
  4093     04F5  3000               	movlw	0
  4094     04F6  00BD               	movwf	?___flmul+3
  4095     04F7  3000               	movlw	0
  4096     04F8  00BC               	movwf	?___flmul+2
  4097     04F9  3000               	movlw	0
  4098     04FA  00BB               	movwf	?___flmul+1
  4099     04FB  3000               	movlw	0
  4100     04FC  00BA               	movwf	?___flmul
  4101     04FD  2FDB               	goto	l633
  4102     04FE                     l2254:
  4103     04FE  083A               	movf	___flmul@b,w
  4104     04FF  00F0               	movwf	__Umul8_16@multiplicand
  4105     0500  0840               	movf	___flmul@a+2,w
  4106     0501  160A  118A  2423  120A  118A  	fcall	__Umul8_16
  4107     0506  0871               	movf	?__Umul8_16+1,w
  4108     0507  1283               	bcf	3,5	;RP0=0, select bank0
  4109     0508  1303               	bcf	3,6	;RP1=0, select bank0
  4110     0509  00D3               	movwf	___flmul@temp+1
  4111     050A  0870               	movf	?__Umul8_16,w
  4112     050B  00D2               	movwf	___flmul@temp
  4113     050C                     l2256:
  4114     050C  0852               	movf	___flmul@temp,w
  4115     050D  00C2               	movwf	??___flmul
  4116     050E  01C3               	clrf	??___flmul+1
  4117     050F  01C4               	clrf	??___flmul+2
  4118     0510  01C5               	clrf	??___flmul+3
  4119     0511  0845               	movf	??___flmul+3,w
  4120     0512  00CB               	movwf	___flmul@grs+3
  4121     0513  0844               	movf	??___flmul+2,w
  4122     0514  00CA               	movwf	___flmul@grs+2
  4123     0515  0843               	movf	??___flmul+1,w
  4124     0516  00C9               	movwf	___flmul@grs+1
  4125     0517  0842               	movf	??___flmul,w
  4126     0518  00C8               	movwf	___flmul@grs
  4127     0519                     l2258:
  4128     0519  0853               	movf	___flmul@temp+1,w
  4129     051A  00C2               	movwf	??___flmul
  4130     051B  01C3               	clrf	??___flmul+1
  4131     051C  01C4               	clrf	??___flmul+2
  4132     051D  01C5               	clrf	??___flmul+3
  4133     051E  0845               	movf	??___flmul+3,w
  4134     051F  00D1               	movwf	___flmul@prod+3
  4135     0520  0844               	movf	??___flmul+2,w
  4136     0521  00D0               	movwf	___flmul@prod+2
  4137     0522  0843               	movf	??___flmul+1,w
  4138     0523  00CF               	movwf	___flmul@prod+1
  4139     0524  0842               	movf	??___flmul,w
  4140     0525  00CE               	movwf	___flmul@prod
  4141     0526  083B               	movf	___flmul@b+1,w
  4142     0527  00F0               	movwf	__Umul8_16@multiplicand
  4143     0528  083F               	movf	___flmul@a+1,w
  4144     0529  160A  118A  2423  120A  118A  	fcall	__Umul8_16
  4145     052E  0871               	movf	?__Umul8_16+1,w
  4146     052F  1283               	bcf	3,5	;RP0=0, select bank0
  4147     0530  1303               	bcf	3,6	;RP1=0, select bank0
  4148     0531  00D3               	movwf	___flmul@temp+1
  4149     0532  0870               	movf	?__Umul8_16,w
  4150     0533  00D2               	movwf	___flmul@temp
  4151     0534                     l2260:
  4152     0534  0852               	movf	___flmul@temp,w
  4153     0535  00C2               	movwf	??___flmul
  4154     0536  01C3               	clrf	??___flmul+1
  4155     0537  01C4               	clrf	??___flmul+2
  4156     0538  01C5               	clrf	??___flmul+3
  4157     0539  0842               	movf	??___flmul,w
  4158     053A  07C8               	addwf	___flmul@grs,f
  4159     053B  0843               	movf	??___flmul+1,w
  4160     053C  1103               	clrz
  4161     053D  1803               	skipnc
  4162     053E  3E01               	addlw	1
  4163     053F  1903               	skipnz
  4164     0540  2D42               	goto	u3691
  4165     0541  07C9               	addwf	___flmul@grs+1,f
  4166     0542                     u3691:
  4167     0542  0844               	movf	??___flmul+2,w
  4168     0543  1103               	clrz
  4169     0544  1803               	skipnc
  4170     0545  3E01               	addlw	1
  4171     0546  1903               	skipnz
  4172     0547  2D49               	goto	u3692
  4173     0548  07CA               	addwf	___flmul@grs+2,f
  4174     0549                     u3692:
  4175     0549  0845               	movf	??___flmul+3,w
  4176     054A  1103               	clrz
  4177     054B  1803               	skipnc
  4178     054C  3E01               	addlw	1
  4179     054D  1903               	skipnz
  4180     054E  2D50               	goto	u3693
  4181     054F  07CB               	addwf	___flmul@grs+3,f
  4182     0550                     u3693:
  4183     0550                     l2262:
  4184     0550  0853               	movf	___flmul@temp+1,w
  4185     0551  00C2               	movwf	??___flmul
  4186     0552  01C3               	clrf	??___flmul+1
  4187     0553  01C4               	clrf	??___flmul+2
  4188     0554  01C5               	clrf	??___flmul+3
  4189     0555  0842               	movf	??___flmul,w
  4190     0556  07CE               	addwf	___flmul@prod,f
  4191     0557  0843               	movf	??___flmul+1,w
  4192     0558  1103               	clrz
  4193     0559  1803               	skipnc
  4194     055A  3E01               	addlw	1
  4195     055B  1903               	skipnz
  4196     055C  2D5E               	goto	u3701
  4197     055D  07CF               	addwf	___flmul@prod+1,f
  4198     055E                     u3701:
  4199     055E  0844               	movf	??___flmul+2,w
  4200     055F  1103               	clrz
  4201     0560  1803               	skipnc
  4202     0561  3E01               	addlw	1
  4203     0562  1903               	skipnz
  4204     0563  2D65               	goto	u3702
  4205     0564  07D0               	addwf	___flmul@prod+2,f
  4206     0565                     u3702:
  4207     0565  0845               	movf	??___flmul+3,w
  4208     0566  1103               	clrz
  4209     0567  1803               	skipnc
  4210     0568  3E01               	addlw	1
  4211     0569  1903               	skipnz
  4212     056A  2D6C               	goto	u3703
  4213     056B  07D1               	addwf	___flmul@prod+3,f
  4214     056C                     u3703:
  4215     056C  083C               	movf	___flmul@b+2,w
  4216     056D  00F0               	movwf	__Umul8_16@multiplicand
  4217     056E  083E               	movf	___flmul@a,w
  4218     056F  160A  118A  2423  120A  118A  	fcall	__Umul8_16
  4219     0574  0871               	movf	?__Umul8_16+1,w
  4220     0575  1283               	bcf	3,5	;RP0=0, select bank0
  4221     0576  1303               	bcf	3,6	;RP1=0, select bank0
  4222     0577  00D3               	movwf	___flmul@temp+1
  4223     0578  0870               	movf	?__Umul8_16,w
  4224     0579  00D2               	movwf	___flmul@temp
  4225     057A                     l2264:
  4226     057A  0852               	movf	___flmul@temp,w
  4227     057B  00C2               	movwf	??___flmul
  4228     057C  01C3               	clrf	??___flmul+1
  4229     057D  01C4               	clrf	??___flmul+2
  4230     057E  01C5               	clrf	??___flmul+3
  4231     057F  0842               	movf	??___flmul,w
  4232     0580  07C8               	addwf	___flmul@grs,f
  4233     0581  0843               	movf	??___flmul+1,w
  4234     0582  1103               	clrz
  4235     0583  1803               	skipnc
  4236     0584  3E01               	addlw	1
  4237     0585  1903               	skipnz
  4238     0586  2D88               	goto	u3711
  4239     0587  07C9               	addwf	___flmul@grs+1,f
  4240     0588                     u3711:
  4241     0588  0844               	movf	??___flmul+2,w
  4242     0589  1103               	clrz
  4243     058A  1803               	skipnc
  4244     058B  3E01               	addlw	1
  4245     058C  1903               	skipnz
  4246     058D  2D8F               	goto	u3712
  4247     058E  07CA               	addwf	___flmul@grs+2,f
  4248     058F                     u3712:
  4249     058F  0845               	movf	??___flmul+3,w
  4250     0590  1103               	clrz
  4251     0591  1803               	skipnc
  4252     0592  3E01               	addlw	1
  4253     0593  1903               	skipnz
  4254     0594  2D96               	goto	u3713
  4255     0595  07CB               	addwf	___flmul@grs+3,f
  4256     0596                     u3713:
  4257     0596                     l2266:
  4258     0596  0853               	movf	___flmul@temp+1,w
  4259     0597  00C2               	movwf	??___flmul
  4260     0598  01C3               	clrf	??___flmul+1
  4261     0599  01C4               	clrf	??___flmul+2
  4262     059A  01C5               	clrf	??___flmul+3
  4263     059B  0842               	movf	??___flmul,w
  4264     059C  07CE               	addwf	___flmul@prod,f
  4265     059D  0843               	movf	??___flmul+1,w
  4266     059E  1103               	clrz
  4267     059F  1803               	skipnc
  4268     05A0  3E01               	addlw	1
  4269     05A1  1903               	skipnz
  4270     05A2  2DA4               	goto	u3721
  4271     05A3  07CF               	addwf	___flmul@prod+1,f
  4272     05A4                     u3721:
  4273     05A4  0844               	movf	??___flmul+2,w
  4274     05A5  1103               	clrz
  4275     05A6  1803               	skipnc
  4276     05A7  3E01               	addlw	1
  4277     05A8  1903               	skipnz
  4278     05A9  2DAB               	goto	u3722
  4279     05AA  07D0               	addwf	___flmul@prod+2,f
  4280     05AB                     u3722:
  4281     05AB  0845               	movf	??___flmul+3,w
  4282     05AC  1103               	clrz
  4283     05AD  1803               	skipnc
  4284     05AE  3E01               	addlw	1
  4285     05AF  1903               	skipnz
  4286     05B0  2DB2               	goto	u3723
  4287     05B1  07D1               	addwf	___flmul@prod+3,f
  4288     05B2                     u3723:
  4289     05B2                     l2268:
  4290     05B2  3008               	movlw	8
  4291     05B3  00C2               	movwf	??___flmul
  4292     05B4                     u3735:
  4293     05B4  1003               	clrc
  4294     05B5  0DC8               	rlf	___flmul@grs,f
  4295     05B6  0DC9               	rlf	___flmul@grs+1,f
  4296     05B7  0DCA               	rlf	___flmul@grs+2,f
  4297     05B8  0DCB               	rlf	___flmul@grs+3,f
  4298     05B9  0BC2               	decfsz	??___flmul,f
  4299     05BA  2DB4               	goto	u3735
  4300     05BB                     l2270:
  4301     05BB  083B               	movf	___flmul@b+1,w
  4302     05BC  00F0               	movwf	__Umul8_16@multiplicand
  4303     05BD  083E               	movf	___flmul@a,w
  4304     05BE  160A  118A  2423  120A  118A  	fcall	__Umul8_16
  4305     05C3  0871               	movf	?__Umul8_16+1,w
  4306     05C4  1283               	bcf	3,5	;RP0=0, select bank0
  4307     05C5  1303               	bcf	3,6	;RP1=0, select bank0
  4308     05C6  00D3               	movwf	___flmul@temp+1
  4309     05C7  0870               	movf	?__Umul8_16,w
  4310     05C8  00D2               	movwf	___flmul@temp
  4311     05C9                     l2272:
  4312     05C9  0852               	movf	___flmul@temp,w
  4313     05CA  00C2               	movwf	??___flmul
  4314     05CB  0853               	movf	___flmul@temp+1,w
  4315     05CC  00C3               	movwf	??___flmul+1
  4316     05CD  01C4               	clrf	??___flmul+2
  4317     05CE  01C5               	clrf	??___flmul+3
  4318     05CF  0842               	movf	??___flmul,w
  4319     05D0  07C8               	addwf	___flmul@grs,f
  4320     05D1  0843               	movf	??___flmul+1,w
  4321     05D2  1103               	clrz
  4322     05D3  1803               	skipnc
  4323     05D4  3E01               	addlw	1
  4324     05D5  1903               	skipnz
  4325     05D6  2DD8               	goto	u3741
  4326     05D7  07C9               	addwf	___flmul@grs+1,f
  4327     05D8                     u3741:
  4328     05D8  0844               	movf	??___flmul+2,w
  4329     05D9  1103               	clrz
  4330     05DA  1803               	skipnc
  4331     05DB  3E01               	addlw	1
  4332     05DC  1903               	skipnz
  4333     05DD  2DDF               	goto	u3742
  4334     05DE  07CA               	addwf	___flmul@grs+2,f
  4335     05DF                     u3742:
  4336     05DF  0845               	movf	??___flmul+3,w
  4337     05E0  1103               	clrz
  4338     05E1  1803               	skipnc
  4339     05E2  3E01               	addlw	1
  4340     05E3  1903               	skipnz
  4341     05E4  2DE6               	goto	u3743
  4342     05E5  07CB               	addwf	___flmul@grs+3,f
  4343     05E6                     u3743:
  4344     05E6                     l2274:
  4345     05E6  083A               	movf	___flmul@b,w
  4346     05E7  00F0               	movwf	__Umul8_16@multiplicand
  4347     05E8  083F               	movf	___flmul@a+1,w
  4348     05E9  160A  118A  2423  120A  118A  	fcall	__Umul8_16
  4349     05EE  0871               	movf	?__Umul8_16+1,w
  4350     05EF  1283               	bcf	3,5	;RP0=0, select bank0
  4351     05F0  1303               	bcf	3,6	;RP1=0, select bank0
  4352     05F1  00D3               	movwf	___flmul@temp+1
  4353     05F2  0870               	movf	?__Umul8_16,w
  4354     05F3  00D2               	movwf	___flmul@temp
  4355     05F4                     l2276:
  4356     05F4  0852               	movf	___flmul@temp,w
  4357     05F5  00C2               	movwf	??___flmul
  4358     05F6  0853               	movf	___flmul@temp+1,w
  4359     05F7  00C3               	movwf	??___flmul+1
  4360     05F8  01C4               	clrf	??___flmul+2
  4361     05F9  01C5               	clrf	??___flmul+3
  4362     05FA  0842               	movf	??___flmul,w
  4363     05FB  07C8               	addwf	___flmul@grs,f
  4364     05FC  0843               	movf	??___flmul+1,w
  4365     05FD  1103               	clrz
  4366     05FE  1803               	skipnc
  4367     05FF  3E01               	addlw	1
  4368     0600  1903               	skipnz
  4369     0601  2E03               	goto	u3751
  4370     0602  07C9               	addwf	___flmul@grs+1,f
  4371     0603                     u3751:
  4372     0603  0844               	movf	??___flmul+2,w
  4373     0604  1103               	clrz
  4374     0605  1803               	skipnc
  4375     0606  3E01               	addlw	1
  4376     0607  1903               	skipnz
  4377     0608  2E0A               	goto	u3752
  4378     0609  07CA               	addwf	___flmul@grs+2,f
  4379     060A                     u3752:
  4380     060A  0845               	movf	??___flmul+3,w
  4381     060B  1103               	clrz
  4382     060C  1803               	skipnc
  4383     060D  3E01               	addlw	1
  4384     060E  1903               	skipnz
  4385     060F  2E11               	goto	u3753
  4386     0610  07CB               	addwf	___flmul@grs+3,f
  4387     0611                     u3753:
  4388     0611                     l2278:
  4389     0611  3008               	movlw	8
  4390     0612  00C2               	movwf	??___flmul
  4391     0613                     u3765:
  4392     0613  1003               	clrc
  4393     0614  0DC8               	rlf	___flmul@grs,f
  4394     0615  0DC9               	rlf	___flmul@grs+1,f
  4395     0616  0DCA               	rlf	___flmul@grs+2,f
  4396     0617  0DCB               	rlf	___flmul@grs+3,f
  4397     0618  0BC2               	decfsz	??___flmul,f
  4398     0619  2E13               	goto	u3765
  4399     061A  083A               	movf	___flmul@b,w
  4400     061B  00F0               	movwf	__Umul8_16@multiplicand
  4401     061C  083E               	movf	___flmul@a,w
  4402     061D  160A  118A  2423  120A  118A  	fcall	__Umul8_16
  4403     0622  0871               	movf	?__Umul8_16+1,w
  4404     0623  1283               	bcf	3,5	;RP0=0, select bank0
  4405     0624  1303               	bcf	3,6	;RP1=0, select bank0
  4406     0625  00D3               	movwf	___flmul@temp+1
  4407     0626  0870               	movf	?__Umul8_16,w
  4408     0627  00D2               	movwf	___flmul@temp
  4409     0628                     l2280:
  4410     0628  0852               	movf	___flmul@temp,w
  4411     0629  00C2               	movwf	??___flmul
  4412     062A  0853               	movf	___flmul@temp+1,w
  4413     062B  00C3               	movwf	??___flmul+1
  4414     062C  01C4               	clrf	??___flmul+2
  4415     062D  01C5               	clrf	??___flmul+3
  4416     062E  0842               	movf	??___flmul,w
  4417     062F  07C8               	addwf	___flmul@grs,f
  4418     0630  0843               	movf	??___flmul+1,w
  4419     0631  1103               	clrz
  4420     0632  1803               	skipnc
  4421     0633  3E01               	addlw	1
  4422     0634  1903               	skipnz
  4423     0635  2E37               	goto	u3771
  4424     0636  07C9               	addwf	___flmul@grs+1,f
  4425     0637                     u3771:
  4426     0637  0844               	movf	??___flmul+2,w
  4427     0638  1103               	clrz
  4428     0639  1803               	skipnc
  4429     063A  3E01               	addlw	1
  4430     063B  1903               	skipnz
  4431     063C  2E3E               	goto	u3772
  4432     063D  07CA               	addwf	___flmul@grs+2,f
  4433     063E                     u3772:
  4434     063E  0845               	movf	??___flmul+3,w
  4435     063F  1103               	clrz
  4436     0640  1803               	skipnc
  4437     0641  3E01               	addlw	1
  4438     0642  1903               	skipnz
  4439     0643  2E45               	goto	u3773
  4440     0644  07CB               	addwf	___flmul@grs+3,f
  4441     0645                     u3773:
  4442     0645                     l2282:
  4443     0645  083B               	movf	___flmul@b+1,w
  4444     0646  00F0               	movwf	__Umul8_16@multiplicand
  4445     0647  0840               	movf	___flmul@a+2,w
  4446     0648  160A  118A  2423  120A  118A  	fcall	__Umul8_16
  4447     064D  0871               	movf	?__Umul8_16+1,w
  4448     064E  1283               	bcf	3,5	;RP0=0, select bank0
  4449     064F  1303               	bcf	3,6	;RP1=0, select bank0
  4450     0650  00D3               	movwf	___flmul@temp+1
  4451     0651  0870               	movf	?__Umul8_16,w
  4452     0652  00D2               	movwf	___flmul@temp
  4453     0653  0852               	movf	___flmul@temp,w
  4454     0654  00C2               	movwf	??___flmul
  4455     0655  0853               	movf	___flmul@temp+1,w
  4456     0656  00C3               	movwf	??___flmul+1
  4457     0657  01C4               	clrf	??___flmul+2
  4458     0658  01C5               	clrf	??___flmul+3
  4459     0659  0842               	movf	??___flmul,w
  4460     065A  07CE               	addwf	___flmul@prod,f
  4461     065B  0843               	movf	??___flmul+1,w
  4462     065C  1103               	clrz
  4463     065D  1803               	skipnc
  4464     065E  3E01               	addlw	1
  4465     065F  1903               	skipnz
  4466     0660  2E62               	goto	u3781
  4467     0661  07CF               	addwf	___flmul@prod+1,f
  4468     0662                     u3781:
  4469     0662  0844               	movf	??___flmul+2,w
  4470     0663  1103               	clrz
  4471     0664  1803               	skipnc
  4472     0665  3E01               	addlw	1
  4473     0666  1903               	skipnz
  4474     0667  2E69               	goto	u3782
  4475     0668  07D0               	addwf	___flmul@prod+2,f
  4476     0669                     u3782:
  4477     0669  0845               	movf	??___flmul+3,w
  4478     066A  1103               	clrz
  4479     066B  1803               	skipnc
  4480     066C  3E01               	addlw	1
  4481     066D  1903               	skipnz
  4482     066E  2E70               	goto	u3783
  4483     066F  07D1               	addwf	___flmul@prod+3,f
  4484     0670                     u3783:
  4485     0670                     l2284:
  4486     0670  083C               	movf	___flmul@b+2,w
  4487     0671  00F0               	movwf	__Umul8_16@multiplicand
  4488     0672  083F               	movf	___flmul@a+1,w
  4489     0673  160A  118A  2423  120A  118A  	fcall	__Umul8_16
  4490     0678  0871               	movf	?__Umul8_16+1,w
  4491     0679  1283               	bcf	3,5	;RP0=0, select bank0
  4492     067A  1303               	bcf	3,6	;RP1=0, select bank0
  4493     067B  00D3               	movwf	___flmul@temp+1
  4494     067C  0870               	movf	?__Umul8_16,w
  4495     067D  00D2               	movwf	___flmul@temp
  4496     067E                     l2286:
  4497     067E  0852               	movf	___flmul@temp,w
  4498     067F  00C2               	movwf	??___flmul
  4499     0680  0853               	movf	___flmul@temp+1,w
  4500     0681  00C3               	movwf	??___flmul+1
  4501     0682  01C4               	clrf	??___flmul+2
  4502     0683  01C5               	clrf	??___flmul+3
  4503     0684  0842               	movf	??___flmul,w
  4504     0685  07CE               	addwf	___flmul@prod,f
  4505     0686  0843               	movf	??___flmul+1,w
  4506     0687  1103               	clrz
  4507     0688  1803               	skipnc
  4508     0689  3E01               	addlw	1
  4509     068A  1903               	skipnz
  4510     068B  2E8D               	goto	u3791
  4511     068C  07CF               	addwf	___flmul@prod+1,f
  4512     068D                     u3791:
  4513     068D  0844               	movf	??___flmul+2,w
  4514     068E  1103               	clrz
  4515     068F  1803               	skipnc
  4516     0690  3E01               	addlw	1
  4517     0691  1903               	skipnz
  4518     0692  2E94               	goto	u3792
  4519     0693  07D0               	addwf	___flmul@prod+2,f
  4520     0694                     u3792:
  4521     0694  0845               	movf	??___flmul+3,w
  4522     0695  1103               	clrz
  4523     0696  1803               	skipnc
  4524     0697  3E01               	addlw	1
  4525     0698  1903               	skipnz
  4526     0699  2E9B               	goto	u3793
  4527     069A  07D1               	addwf	___flmul@prod+3,f
  4528     069B                     u3793:
  4529     069B  083C               	movf	___flmul@b+2,w
  4530     069C  00F0               	movwf	__Umul8_16@multiplicand
  4531     069D  0840               	movf	___flmul@a+2,w
  4532     069E  160A  118A  2423  120A  118A  	fcall	__Umul8_16
  4533     06A3  0871               	movf	?__Umul8_16+1,w
  4534     06A4  1283               	bcf	3,5	;RP0=0, select bank0
  4535     06A5  1303               	bcf	3,6	;RP1=0, select bank0
  4536     06A6  00D3               	movwf	___flmul@temp+1
  4537     06A7  0870               	movf	?__Umul8_16,w
  4538     06A8  00D2               	movwf	___flmul@temp
  4539     06A9                     l2288:
  4540     06A9  0852               	movf	___flmul@temp,w
  4541     06AA  00C2               	movwf	??___flmul
  4542     06AB  0853               	movf	___flmul@temp+1,w
  4543     06AC  00C3               	movwf	??___flmul+1
  4544     06AD  01C4               	clrf	??___flmul+2
  4545     06AE  01C5               	clrf	??___flmul+3
  4546     06AF  3008               	movlw	8
  4547     06B0                     u3805:
  4548     06B0  1003               	clrc
  4549     06B1  0DC2               	rlf	??___flmul,f
  4550     06B2  0DC3               	rlf	??___flmul+1,f
  4551     06B3  0DC4               	rlf	??___flmul+2,f
  4552     06B4  0DC5               	rlf	??___flmul+3,f
  4553     06B5                     u3800:
  4554     06B5  3EFF               	addlw	-1
  4555     06B6  1D03               	skipz
  4556     06B7  2EB0               	goto	u3805
  4557     06B8  0842               	movf	??___flmul,w
  4558     06B9  07CE               	addwf	___flmul@prod,f
  4559     06BA  0843               	movf	??___flmul+1,w
  4560     06BB  1103               	clrz
  4561     06BC  1803               	skipnc
  4562     06BD  3E01               	addlw	1
  4563     06BE  1903               	skipnz
  4564     06BF  2EC1               	goto	u3811
  4565     06C0  07CF               	addwf	___flmul@prod+1,f
  4566     06C1                     u3811:
  4567     06C1  0844               	movf	??___flmul+2,w
  4568     06C2  1103               	clrz
  4569     06C3  1803               	skipnc
  4570     06C4  3E01               	addlw	1
  4571     06C5  1903               	skipnz
  4572     06C6  2EC8               	goto	u3812
  4573     06C7  07D0               	addwf	___flmul@prod+2,f
  4574     06C8                     u3812:
  4575     06C8  0845               	movf	??___flmul+3,w
  4576     06C9  1103               	clrz
  4577     06CA  1803               	skipnc
  4578     06CB  3E01               	addlw	1
  4579     06CC  1903               	skipnz
  4580     06CD  2ECF               	goto	u3813
  4581     06CE  07D1               	addwf	___flmul@prod+3,f
  4582     06CF                     u3813:
  4583     06CF                     l2290:
  4584     06CF  0848               	movf	___flmul@grs,w
  4585     06D0  00C2               	movwf	??___flmul
  4586     06D1  0849               	movf	___flmul@grs+1,w
  4587     06D2  00C3               	movwf	??___flmul+1
  4588     06D3  084A               	movf	___flmul@grs+2,w
  4589     06D4  00C4               	movwf	??___flmul+2
  4590     06D5  084B               	movf	___flmul@grs+3,w
  4591     06D6  00C5               	movwf	??___flmul+3
  4592     06D7  3018               	movlw	24
  4593     06D8                     u3825:
  4594     06D8  1003               	clrc
  4595     06D9  0CC5               	rrf	??___flmul+3,f
  4596     06DA  0CC4               	rrf	??___flmul+2,f
  4597     06DB  0CC3               	rrf	??___flmul+1,f
  4598     06DC  0CC2               	rrf	??___flmul,f
  4599     06DD                     u3820:
  4600     06DD  3EFF               	addlw	-1
  4601     06DE  1D03               	skipz
  4602     06DF  2ED8               	goto	u3825
  4603     06E0  0842               	movf	??___flmul,w
  4604     06E1  07CE               	addwf	___flmul@prod,f
  4605     06E2  0843               	movf	??___flmul+1,w
  4606     06E3  1103               	clrz
  4607     06E4  1803               	skipnc
  4608     06E5  3E01               	addlw	1
  4609     06E6  1903               	skipnz
  4610     06E7  2EE9               	goto	u3831
  4611     06E8  07CF               	addwf	___flmul@prod+1,f
  4612     06E9                     u3831:
  4613     06E9  0844               	movf	??___flmul+2,w
  4614     06EA  1103               	clrz
  4615     06EB  1803               	skipnc
  4616     06EC  3E01               	addlw	1
  4617     06ED  1903               	skipnz
  4618     06EE  2EF0               	goto	u3832
  4619     06EF  07D0               	addwf	___flmul@prod+2,f
  4620     06F0                     u3832:
  4621     06F0  0845               	movf	??___flmul+3,w
  4622     06F1  1103               	clrz
  4623     06F2  1803               	skipnc
  4624     06F3  3E01               	addlw	1
  4625     06F4  1903               	skipnz
  4626     06F5  2EF7               	goto	u3833
  4627     06F6  07D1               	addwf	___flmul@prod+3,f
  4628     06F7                     u3833:
  4629     06F7                     l2292:
  4630     06F7  3008               	movlw	8
  4631     06F8  00C2               	movwf	??___flmul
  4632     06F9                     u3845:
  4633     06F9  1003               	clrc
  4634     06FA  0DC8               	rlf	___flmul@grs,f
  4635     06FB  0DC9               	rlf	___flmul@grs+1,f
  4636     06FC  0DCA               	rlf	___flmul@grs+2,f
  4637     06FD  0DCB               	rlf	___flmul@grs+3,f
  4638     06FE  0BC2               	decfsz	??___flmul,f
  4639     06FF  2EF9               	goto	u3845
  4640     0700                     l2294:
  4641     0700  084D               	movf	___flmul@bexp,w
  4642     0701  074C               	addwf	___flmul@aexp,w
  4643     0702  00C2               	movwf	??___flmul
  4644     0703  01C3               	clrf	??___flmul+1
  4645     0704  0DC3               	rlf	??___flmul+1,f
  4646     0705  0842               	movf	??___flmul,w
  4647     0706  3E82               	addlw	130
  4648     0707  00D2               	movwf	___flmul@temp
  4649     0708  0843               	movf	??___flmul+1,w
  4650     0709  1803               	skipnc
  4651     070A  3E01               	addlw	1
  4652     070B  3EFF               	addlw	255
  4653     070C  00D3               	movwf	___flmul@temp+1
  4654     070D  2F2B               	goto	l2306
  4655     070E                     l2296:
  4656     070E  3001               	movlw	1
  4657     070F  00C2               	movwf	??___flmul
  4658     0710                     u3855:
  4659     0710  1003               	clrc
  4660     0711  0DCE               	rlf	___flmul@prod,f
  4661     0712  0DCF               	rlf	___flmul@prod+1,f
  4662     0713  0DD0               	rlf	___flmul@prod+2,f
  4663     0714  0DD1               	rlf	___flmul@prod+3,f
  4664     0715  0BC2               	decfsz	??___flmul,f
  4665     0716  2F10               	goto	u3855
  4666     0717                     l2298:
  4667     0717  1FCB               	btfss	___flmul@grs+3,7
  4668     0718  2F1A               	goto	u3861
  4669     0719  2F1B               	goto	u3860
  4670     071A                     u3861:
  4671     071A  2F1C               	goto	l2302
  4672     071B                     u3860:
  4673     071B                     l2300:
  4674     071B  144E               	bsf	___flmul@prod,0
  4675     071C                     l2302:
  4676     071C  3001               	movlw	1
  4677     071D  00C2               	movwf	??___flmul
  4678     071E                     u3875:
  4679     071E  1003               	clrc
  4680     071F  0DC8               	rlf	___flmul@grs,f
  4681     0720  0DC9               	rlf	___flmul@grs+1,f
  4682     0721  0DCA               	rlf	___flmul@grs+2,f
  4683     0722  0DCB               	rlf	___flmul@grs+3,f
  4684     0723  0BC2               	decfsz	??___flmul,f
  4685     0724  2F1E               	goto	u3875
  4686     0725                     l2304:
  4687     0725  30FF               	movlw	255
  4688     0726  07D2               	addwf	___flmul@temp,f
  4689     0727  1803               	skipnc
  4690     0728  0AD3               	incf	___flmul@temp+1,f
  4691     0729  30FF               	movlw	255
  4692     072A  07D3               	addwf	___flmul@temp+1,f
  4693     072B                     l2306:
  4694     072B  1FD0               	btfss	___flmul@prod+2,7
  4695     072C  2F2E               	goto	u3881
  4696     072D  2F2F               	goto	u3880
  4697     072E                     u3881:
  4698     072E  2F0E               	goto	l2296
  4699     072F                     u3880:
  4700     072F                     l2308:
  4701     072F  01CC               	clrf	___flmul@aexp
  4702     0730                     l2310:
  4703     0730  1FCB               	btfss	___flmul@grs+3,7
  4704     0731  2F33               	goto	u3891
  4705     0732  2F34               	goto	u3890
  4706     0733                     u3891:
  4707     0733  2F50               	goto	l2318
  4708     0734                     u3890:
  4709     0734                     l2312:
  4710     0734  30FF               	movlw	255
  4711     0735  0548               	andwf	___flmul@grs,w
  4712     0736  00C2               	movwf	??___flmul
  4713     0737  30FF               	movlw	255
  4714     0738  0549               	andwf	___flmul@grs+1,w
  4715     0739  00C3               	movwf	??___flmul+1
  4716     073A  30FF               	movlw	255
  4717     073B  054A               	andwf	___flmul@grs+2,w
  4718     073C  00C4               	movwf	??___flmul+2
  4719     073D  307F               	movlw	127
  4720     073E  054B               	andwf	___flmul@grs+3,w
  4721     073F  00C5               	movwf	??___flmul+3
  4722     0740  0845               	movf	??___flmul+3,w
  4723     0741  0444               	iorwf	??___flmul+2,w
  4724     0742  0443               	iorwf	??___flmul+1,w
  4725     0743  0442               	iorwf	??___flmul,w
  4726     0744  1903               	skipnz
  4727     0745  2F47               	goto	u3901
  4728     0746  2F48               	goto	u3900
  4729     0747                     u3901:
  4730     0747  2F4B               	goto	l639
  4731     0748                     u3900:
  4732     0748                     l2314:
  4733     0748  01CC               	clrf	___flmul@aexp
  4734     0749  0ACC               	incf	___flmul@aexp,f
  4735     074A  2F50               	goto	l2318
  4736     074B                     l639:
  4737     074B  1C4E               	btfss	___flmul@prod,0
  4738     074C  2F4E               	goto	u3911
  4739     074D  2F4F               	goto	u3910
  4740     074E                     u3911:
  4741     074E  2F50               	goto	l2318
  4742     074F                     u3910:
  4743     074F  2F48               	goto	l2314
  4744     0750                     l2318:
  4745     0750  084C               	movf	___flmul@aexp,w
  4746     0751  1903               	btfsc	3,2
  4747     0752  2F54               	goto	u3921
  4748     0753  2F55               	goto	u3920
  4749     0754                     u3921:
  4750     0754  2F86               	goto	l2328
  4751     0755                     u3920:
  4752     0755                     l2320:
  4753     0755  3001               	movlw	1
  4754     0756  07CE               	addwf	___flmul@prod,f
  4755     0757  3000               	movlw	0
  4756     0758  1803               	skipnc
  4757     0759  3001               	movlw	1
  4758     075A  07CF               	addwf	___flmul@prod+1,f
  4759     075B  3000               	movlw	0
  4760     075C  1803               	skipnc
  4761     075D  3001               	movlw	1
  4762     075E  07D0               	addwf	___flmul@prod+2,f
  4763     075F  3000               	movlw	0
  4764     0760  1803               	skipnc
  4765     0761  3001               	movlw	1
  4766     0762  07D1               	addwf	___flmul@prod+3,f
  4767     0763                     l2322:
  4768     0763  1C51               	btfss	___flmul@prod+3,0
  4769     0764  2F66               	goto	u3931
  4770     0765  2F67               	goto	u3930
  4771     0766                     u3931:
  4772     0766  2F86               	goto	l2328
  4773     0767                     u3930:
  4774     0767                     l2324:
  4775     0767  084E               	movf	___flmul@prod,w
  4776     0768  00C2               	movwf	??___flmul
  4777     0769  084F               	movf	___flmul@prod+1,w
  4778     076A  00C3               	movwf	??___flmul+1
  4779     076B  0850               	movf	___flmul@prod+2,w
  4780     076C  00C4               	movwf	??___flmul+2
  4781     076D  0851               	movf	___flmul@prod+3,w
  4782     076E  00C5               	movwf	??___flmul+3
  4783     076F  3001               	movlw	1
  4784     0770  00C6               	movwf	??___flmul+4
  4785     0771                     u3945:
  4786     0771  0D45               	rlf	??___flmul+3,w
  4787     0772  0CC5               	rrf	??___flmul+3,f
  4788     0773  0CC4               	rrf	??___flmul+2,f
  4789     0774  0CC3               	rrf	??___flmul+1,f
  4790     0775  0CC2               	rrf	??___flmul,f
  4791     0776                     u3940:
  4792     0776  0BC6               	decfsz	??___flmul+4,f
  4793     0777  2F71               	goto	u3945
  4794     0778  0845               	movf	??___flmul+3,w
  4795     0779  00D1               	movwf	___flmul@prod+3
  4796     077A  0844               	movf	??___flmul+2,w
  4797     077B  00D0               	movwf	___flmul@prod+2
  4798     077C  0843               	movf	??___flmul+1,w
  4799     077D  00CF               	movwf	___flmul@prod+1
  4800     077E  0842               	movf	??___flmul,w
  4801     077F  00CE               	movwf	___flmul@prod
  4802     0780                     l2326:
  4803     0780  3001               	movlw	1
  4804     0781  07D2               	addwf	___flmul@temp,f
  4805     0782  1803               	skipnc
  4806     0783  0AD3               	incf	___flmul@temp+1,f
  4807     0784  3000               	movlw	0
  4808     0785  07D3               	addwf	___flmul@temp+1,f
  4809     0786                     l2328:
  4810     0786  0853               	movf	___flmul@temp+1,w
  4811     0787  3A80               	xorlw	128
  4812     0788  00FF               	movwf	btemp+1
  4813     0789  3080               	movlw	128
  4814     078A  027F               	subwf	btemp+1,w
  4815     078B  1D03               	skipz
  4816     078C  2F8F               	goto	u3955
  4817     078D  30FF               	movlw	255
  4818     078E  0252               	subwf	___flmul@temp,w
  4819     078F                     u3955:
  4820     078F  1C03               	skipc
  4821     0790  2F92               	goto	u3951
  4822     0791  2F93               	goto	u3950
  4823     0792                     u3951:
  4824     0792  2F9E               	goto	l2332
  4825     0793                     u3950:
  4826     0793                     l2330:
  4827     0793  307F               	movlw	127
  4828     0794  1283               	bcf	3,5	;RP0=0, select bank0
  4829     0795  1303               	bcf	3,6	;RP1=0, select bank0
  4830     0796  00D1               	movwf	___flmul@prod+3
  4831     0797  3080               	movlw	128
  4832     0798  00D0               	movwf	___flmul@prod+2
  4833     0799  3000               	movlw	0
  4834     079A  00CF               	movwf	___flmul@prod+1
  4835     079B  3000               	movlw	0
  4836     079C  00CE               	movwf	___flmul@prod
  4837     079D  2FCF               	goto	l645
  4838     079E                     l2332:
  4839     079E  1283               	bcf	3,5	;RP0=0, select bank0
  4840     079F  1303               	bcf	3,6	;RP1=0, select bank0
  4841     07A0  0853               	movf	___flmul@temp+1,w
  4842     07A1  3A80               	xorlw	128
  4843     07A2  00FF               	movwf	btemp+1
  4844     07A3  3080               	movlw	128
  4845     07A4  027F               	subwf	btemp+1,w
  4846     07A5  1D03               	skipz
  4847     07A6  2FA9               	goto	u3965
  4848     07A7  3001               	movlw	1
  4849     07A8  0252               	subwf	___flmul@temp,w
  4850     07A9                     u3965:
  4851     07A9  1803               	skipnc
  4852     07AA  2FAC               	goto	u3961
  4853     07AB  2FAD               	goto	u3960
  4854     07AC                     u3961:
  4855     07AC  2FB9               	goto	l2338
  4856     07AD                     u3960:
  4857     07AD                     l2334:
  4858     07AD  3000               	movlw	0
  4859     07AE  1283               	bcf	3,5	;RP0=0, select bank0
  4860     07AF  1303               	bcf	3,6	;RP1=0, select bank0
  4861     07B0  00D1               	movwf	___flmul@prod+3
  4862     07B1  3000               	movlw	0
  4863     07B2  00D0               	movwf	___flmul@prod+2
  4864     07B3  3000               	movlw	0
  4865     07B4  00CF               	movwf	___flmul@prod+1
  4866     07B5  3000               	movlw	0
  4867     07B6  00CE               	movwf	___flmul@prod
  4868     07B7                     l2336:
  4869     07B7  01C7               	clrf	___flmul@sign
  4870     07B8  2FCF               	goto	l645
  4871     07B9                     l2338:
  4872     07B9  1283               	bcf	3,5	;RP0=0, select bank0
  4873     07BA  1303               	bcf	3,6	;RP1=0, select bank0
  4874     07BB  0852               	movf	___flmul@temp,w
  4875     07BC  00CD               	movwf	___flmul@bexp
  4876     07BD  30FF               	movlw	255
  4877     07BE  05CE               	andwf	___flmul@prod,f
  4878     07BF  30FF               	movlw	255
  4879     07C0  05CF               	andwf	___flmul@prod+1,f
  4880     07C1  307F               	movlw	127
  4881     07C2  05D0               	andwf	___flmul@prod+2,f
  4882     07C3  3000               	movlw	0
  4883     07C4  05D1               	andwf	___flmul@prod+3,f
  4884     07C5                     l2340:
  4885     07C5  1C4D               	btfss	___flmul@bexp,0
  4886     07C6  2FC8               	goto	u3971
  4887     07C7  2FC9               	goto	u3970
  4888     07C8                     u3971:
  4889     07C8  2FCA               	goto	l2344
  4890     07C9                     u3970:
  4891     07C9                     l2342:
  4892     07C9  17D0               	bsf	___flmul@prod+2,7
  4893     07CA                     l2344:
  4894     07CA  084D               	movf	___flmul@bexp,w
  4895     07CB  00C2               	movwf	??___flmul
  4896     07CC  1003               	clrc
  4897     07CD  0C42               	rrf	??___flmul,w
  4898     07CE  00D1               	movwf	___flmul@prod+3
  4899     07CF                     l645:
  4900     07CF  0847               	movf	___flmul@sign,w
  4901     07D0  00C2               	movwf	??___flmul
  4902     07D1  0842               	movf	??___flmul,w
  4903     07D2  04D1               	iorwf	___flmul@prod+3,f
  4904     07D3                     l2346:
  4905     07D3  0851               	movf	___flmul@prod+3,w
  4906     07D4  00BD               	movwf	?___flmul+3
  4907     07D5  0850               	movf	___flmul@prod+2,w
  4908     07D6  00BC               	movwf	?___flmul+2
  4909     07D7  084F               	movf	___flmul@prod+1,w
  4910     07D8  00BB               	movwf	?___flmul+1
  4911     07D9  084E               	movf	___flmul@prod,w
  4912     07DA  00BA               	movwf	?___flmul
  4913     07DB                     l633:
  4914     07DB  0008               	return
  4915     07DC                     __end_of___flmul:
  4916                           
  4917                           	psect	text17
  4918     1423                     __ptext17:	
  4919 ;; *************** function __Umul8_16 *****************
  4920 ;; Defined at:
  4921 ;;		line 4 in file "/Applications/microchip/xc8/v2.45/pic/sources/c99/common/Umul8_16.c"
  4922 ;; Parameters:    Size  Location     Type
  4923 ;;  multiplier      1    wreg     unsigned char 
  4924 ;;  multiplicand    1    0[COMMON] unsigned char 
  4925 ;; Auto vars:     Size  Location     Type
  4926 ;;  multiplier      1    8[COMMON] unsigned char 
  4927 ;;  word_mpld       2    6[COMMON] unsigned short 
  4928 ;;  product         2    4[COMMON] unsigned short 
  4929 ;; Return value:  Size  Location     Type
  4930 ;;                  2    0[COMMON] unsigned int 
  4931 ;; Registers used:
  4932 ;;		wreg, status,2, status,0
  4933 ;; Tracked objects:
  4934 ;;		On entry : 0/0
  4935 ;;		On exit  : 0/0
  4936 ;;		Unchanged: 0/0
  4937 ;; Data sizes:     COMMON   BANK0   BANK1   BANK3   BANK2
  4938 ;;      Params:         2       0       0       0       0
  4939 ;;      Locals:         5       0       0       0       0
  4940 ;;      Temps:          2       0       0       0       0
  4941 ;;      Totals:         9       0       0       0       0
  4942 ;;Total ram usage:        9 bytes
  4943 ;; Hardware stack levels used: 1
  4944 ;; This function calls:
  4945 ;;		Nothing
  4946 ;; This function is called by:
  4947 ;;		___flmul
  4948 ;; This function uses a non-reentrant model
  4949 ;;
  4950                           
  4951     1423                     __Umul8_16:	
  4952                           ;psect for function __Umul8_16
  4953                           
  4954                           
  4955                           ;incstack = 0
  4956                           ; Regs used in __Umul8_16: [wreg+status,2+status,0]
  4957                           ;__Umul8_16@multiplier stored from wreg
  4958     1423  00F8               	movwf	__Umul8_16@multiplier
  4959     1424                     l1998:
  4960     1424  01F4               	clrf	__Umul8_16@product
  4961     1425  01F5               	clrf	__Umul8_16@product+1
  4962     1426                     l2000:
  4963     1426  0870               	movf	__Umul8_16@multiplicand,w
  4964     1427  00F2               	movwf	??__Umul8_16
  4965     1428  01F3               	clrf	??__Umul8_16+1
  4966     1429  0872               	movf	??__Umul8_16,w
  4967     142A  00F6               	movwf	__Umul8_16@word_mpld
  4968     142B  0873               	movf	??__Umul8_16+1,w
  4969     142C  00F7               	movwf	__Umul8_16@word_mpld+1
  4970     142D                     l2002:
  4971     142D  1C78               	btfss	__Umul8_16@multiplier,0
  4972     142E  2C30               	goto	u3021
  4973     142F  2C31               	goto	u3020
  4974     1430                     u3021:
  4975     1430  2C37               	goto	l652
  4976     1431                     u3020:
  4977     1431                     l2004:
  4978     1431  0876               	movf	__Umul8_16@word_mpld,w
  4979     1432  07F4               	addwf	__Umul8_16@product,f
  4980     1433  1803               	skipnc
  4981     1434  0AF5               	incf	__Umul8_16@product+1,f
  4982     1435  0877               	movf	__Umul8_16@word_mpld+1,w
  4983     1436  07F5               	addwf	__Umul8_16@product+1,f
  4984     1437                     l652:
  4985     1437  3001               	movlw	1
  4986     1438                     u3035:
  4987     1438  1003               	clrc
  4988     1439  0DF6               	rlf	__Umul8_16@word_mpld,f
  4989     143A  0DF7               	rlf	__Umul8_16@word_mpld+1,f
  4990     143B  3EFF               	addlw	-1
  4991     143C  1D03               	skipz
  4992     143D  2C38               	goto	u3035
  4993     143E  1003               	clrc
  4994     143F  0CF8               	rrf	__Umul8_16@multiplier,f
  4995     1440                     l2006:
  4996     1440  0878               	movf	__Umul8_16@multiplier,w
  4997     1441  1D03               	btfss	3,2
  4998     1442  2C44               	goto	u3041
  4999     1443  2C45               	goto	u3040
  5000     1444                     u3041:
  5001     1444  2C2D               	goto	l2002
  5002     1445                     u3040:
  5003     1445                     l2008:
  5004     1445  0875               	movf	__Umul8_16@product+1,w
  5005     1446  00F1               	movwf	?__Umul8_16+1
  5006     1447  0874               	movf	__Umul8_16@product,w
  5007     1448  00F0               	movwf	?__Umul8_16
  5008     1449                     l654:
  5009     1449  0008               	return
  5010     144A                     __end_of__Umul8_16:
  5011                           
  5012                           	psect	text18
  5013     0BA2                     __ptext18:	
  5014 ;; *************** function ___fldiv *****************
  5015 ;; Defined at:
  5016 ;;		line 8 in file "/Applications/microchip/xc8/v2.45/pic/sources/c99/common/sprcdiv.c"
  5017 ;; Parameters:    Size  Location     Type
  5018 ;;  a               4    0[BANK0 ] unsigned int 
  5019 ;;  b               4    4[BANK0 ] unsigned int 
  5020 ;; Auto vars:     Size  Location     Type
  5021 ;;  grs             4   20[BANK0 ] unsigned long 
  5022 ;;  rem             4   13[BANK0 ] unsigned long 
  5023 ;;  new_exp         2   18[BANK0 ] short 
  5024 ;;  aexp            1   25[BANK0 ] unsigned char 
  5025 ;;  bexp            1   24[BANK0 ] unsigned char 
  5026 ;;  sign            1   17[BANK0 ] unsigned char 
  5027 ;; Return value:  Size  Location     Type
  5028 ;;                  4    0[BANK0 ] unsigned char 
  5029 ;; Registers used:
  5030 ;;		wreg, status,2, status,0, btemp+1
  5031 ;; Tracked objects:
  5032 ;;		On entry : 0/0
  5033 ;;		On exit  : 0/0
  5034 ;;		Unchanged: 0/0
  5035 ;; Data sizes:     COMMON   BANK0   BANK1   BANK3   BANK2
  5036 ;;      Params:         0       8       0       0       0
  5037 ;;      Locals:         0      13       0       0       0
  5038 ;;      Temps:          0       5       0       0       0
  5039 ;;      Totals:         0      26       0       0       0
  5040 ;;Total ram usage:       26 bytes
  5041 ;; Hardware stack levels used: 1
  5042 ;; This function calls:
  5043 ;;		Nothing
  5044 ;; This function is called by:
  5045 ;;		_readTemperature
  5046 ;;		_main
  5047 ;; This function uses a non-reentrant model
  5048 ;;
  5049                           
  5050     0BA2                     ___fldiv:	
  5051                           ;psect for function ___fldiv
  5052                           
  5053     0BA2                     l2068:	
  5054                           ;incstack = 0
  5055                           ; Regs used in ___fldiv: [wreg+status,2+status,0+btemp+1]
  5056                           
  5057     0BA2  1283               	bcf	3,5	;RP0=0, select bank0
  5058     0BA3  1303               	bcf	3,6	;RP1=0, select bank0
  5059     0BA4  0827               	movf	___fldiv@b+3,w
  5060     0BA5  3980               	andlw	128
  5061     0BA6  00B1               	movwf	___fldiv@sign
  5062     0BA7                     l2070:
  5063     0BA7  0827               	movf	___fldiv@b+3,w
  5064     0BA8  00A8               	movwf	??___fldiv
  5065     0BA9  0728               	addwf	??___fldiv,w
  5066     0BAA  00B8               	movwf	___fldiv@bexp
  5067     0BAB                     l2072:
  5068     0BAB  1FA6               	btfss	___fldiv@b+2,7
  5069     0BAC  2BAE               	goto	u3321
  5070     0BAD  2BAF               	goto	u3320
  5071     0BAE                     u3321:
  5072     0BAE  2BB0               	goto	l2076
  5073     0BAF                     u3320:
  5074     0BAF                     l2074:
  5075     0BAF  1438               	bsf	___fldiv@bexp,0
  5076     0BB0                     l2076:
  5077     0BB0  0838               	movf	___fldiv@bexp,w
  5078     0BB1  1903               	btfsc	3,2
  5079     0BB2  2BB4               	goto	u3331
  5080     0BB3  2BB5               	goto	u3330
  5081     0BB4                     u3331:
  5082     0BB4  2BC5               	goto	l2086
  5083     0BB5                     u3330:
  5084     0BB5                     l2078:
  5085     0BB5  0A38               	incf	___fldiv@bexp,w
  5086     0BB6  1D03               	btfss	3,2
  5087     0BB7  2BB9               	goto	u3341
  5088     0BB8  2BBA               	goto	u3340
  5089     0BB9                     u3341:
  5090     0BB9  2BC2               	goto	l2082
  5091     0BBA                     u3340:
  5092     0BBA                     l2080:
  5093     0BBA  3000               	movlw	0
  5094     0BBB  00A7               	movwf	___fldiv@b+3
  5095     0BBC  3000               	movlw	0
  5096     0BBD  00A6               	movwf	___fldiv@b+2
  5097     0BBE  3000               	movlw	0
  5098     0BBF  00A5               	movwf	___fldiv@b+1
  5099     0BC0  3000               	movlw	0
  5100     0BC1  00A4               	movwf	___fldiv@b
  5101     0BC2                     l2082:
  5102     0BC2  17A6               	bsf	___fldiv@b+2,7
  5103     0BC3                     l2084:
  5104     0BC3  01A7               	clrf	___fldiv@b+3
  5105     0BC4  2BCD               	goto	l2088
  5106     0BC5                     l2086:
  5107     0BC5  3000               	movlw	0
  5108     0BC6  00A7               	movwf	___fldiv@b+3
  5109     0BC7  3000               	movlw	0
  5110     0BC8  00A6               	movwf	___fldiv@b+2
  5111     0BC9  3000               	movlw	0
  5112     0BCA  00A5               	movwf	___fldiv@b+1
  5113     0BCB  3000               	movlw	0
  5114     0BCC  00A4               	movwf	___fldiv@b
  5115     0BCD                     l2088:
  5116     0BCD  0823               	movf	___fldiv@a+3,w
  5117     0BCE  3980               	andlw	128
  5118     0BCF  00A8               	movwf	??___fldiv
  5119     0BD0  0828               	movf	??___fldiv,w
  5120     0BD1  06B1               	xorwf	___fldiv@sign,f
  5121     0BD2                     l2090:
  5122     0BD2  0823               	movf	___fldiv@a+3,w
  5123     0BD3  00A8               	movwf	??___fldiv
  5124     0BD4  0728               	addwf	??___fldiv,w
  5125     0BD5  00B9               	movwf	___fldiv@aexp
  5126     0BD6                     l2092:
  5127     0BD6  1FA2               	btfss	___fldiv@a+2,7
  5128     0BD7  2BD9               	goto	u3351
  5129     0BD8  2BDA               	goto	u3350
  5130     0BD9                     u3351:
  5131     0BD9  2BDB               	goto	l2096
  5132     0BDA                     u3350:
  5133     0BDA                     l2094:
  5134     0BDA  1439               	bsf	___fldiv@aexp,0
  5135     0BDB                     l2096:
  5136     0BDB  0839               	movf	___fldiv@aexp,w
  5137     0BDC  1903               	btfsc	3,2
  5138     0BDD  2BDF               	goto	u3361
  5139     0BDE  2BE0               	goto	u3360
  5140     0BDF                     u3361:
  5141     0BDF  2BF0               	goto	l2106
  5142     0BE0                     u3360:
  5143     0BE0                     l2098:
  5144     0BE0  0A39               	incf	___fldiv@aexp,w
  5145     0BE1  1D03               	btfss	3,2
  5146     0BE2  2BE4               	goto	u3371
  5147     0BE3  2BE5               	goto	u3370
  5148     0BE4                     u3371:
  5149     0BE4  2BED               	goto	l2102
  5150     0BE5                     u3370:
  5151     0BE5                     l2100:
  5152     0BE5  3000               	movlw	0
  5153     0BE6  00A3               	movwf	___fldiv@a+3
  5154     0BE7  3000               	movlw	0
  5155     0BE8  00A2               	movwf	___fldiv@a+2
  5156     0BE9  3000               	movlw	0
  5157     0BEA  00A1               	movwf	___fldiv@a+1
  5158     0BEB  3000               	movlw	0
  5159     0BEC  00A0               	movwf	___fldiv@a
  5160     0BED                     l2102:
  5161     0BED  17A2               	bsf	___fldiv@a+2,7
  5162     0BEE                     l2104:
  5163     0BEE  01A3               	clrf	___fldiv@a+3
  5164     0BEF  2BF8               	goto	l593
  5165     0BF0                     l2106:
  5166     0BF0  3000               	movlw	0
  5167     0BF1  00A3               	movwf	___fldiv@a+3
  5168     0BF2  3000               	movlw	0
  5169     0BF3  00A2               	movwf	___fldiv@a+2
  5170     0BF4  3000               	movlw	0
  5171     0BF5  00A1               	movwf	___fldiv@a+1
  5172     0BF6  3000               	movlw	0
  5173     0BF7  00A0               	movwf	___fldiv@a
  5174     0BF8                     l593:
  5175     0BF8  0823               	movf	___fldiv@a+3,w
  5176     0BF9  0422               	iorwf	___fldiv@a+2,w
  5177     0BFA  0421               	iorwf	___fldiv@a+1,w
  5178     0BFB  0420               	iorwf	___fldiv@a,w
  5179     0BFC  1D03               	skipz
  5180     0BFD  2BFF               	goto	u3381
  5181     0BFE  2C00               	goto	u3380
  5182     0BFF                     u3381:
  5183     0BFF  2C19               	goto	l2116
  5184     0C00                     u3380:
  5185     0C00                     l2108:
  5186     0C00  3000               	movlw	0
  5187     0C01  00A7               	movwf	___fldiv@b+3
  5188     0C02  3000               	movlw	0
  5189     0C03  00A6               	movwf	___fldiv@b+2
  5190     0C04  3000               	movlw	0
  5191     0C05  00A5               	movwf	___fldiv@b+1
  5192     0C06  3000               	movlw	0
  5193     0C07  00A4               	movwf	___fldiv@b
  5194     0C08  3080               	movlw	128
  5195     0C09  04A6               	iorwf	___fldiv@b+2,f
  5196     0C0A  307F               	movlw	127
  5197     0C0B  04A7               	iorwf	___fldiv@b+3,f
  5198     0C0C                     l2110:
  5199     0C0C  0831               	movf	___fldiv@sign,w
  5200     0C0D  00A8               	movwf	??___fldiv
  5201     0C0E  0828               	movf	??___fldiv,w
  5202     0C0F  04A7               	iorwf	___fldiv@b+3,f
  5203     0C10                     l2112:
  5204     0C10  0827               	movf	___fldiv@b+3,w
  5205     0C11  00A3               	movwf	?___fldiv+3
  5206     0C12  0826               	movf	___fldiv@b+2,w
  5207     0C13  00A2               	movwf	?___fldiv+2
  5208     0C14  0825               	movf	___fldiv@b+1,w
  5209     0C15  00A1               	movwf	?___fldiv+1
  5210     0C16  0824               	movf	___fldiv@b,w
  5211     0C17  00A0               	movwf	?___fldiv
  5212     0C18  2D74               	goto	l595
  5213     0C19                     l2116:
  5214     0C19  0838               	movf	___fldiv@bexp,w
  5215     0C1A  1D03               	btfss	3,2
  5216     0C1B  2C1D               	goto	u3391
  5217     0C1C  2C1E               	goto	u3390
  5218     0C1D                     u3391:
  5219     0C1D  2C27               	goto	l2122
  5220     0C1E                     u3390:
  5221     0C1E                     l2118:
  5222     0C1E  3000               	movlw	0
  5223     0C1F  00A3               	movwf	?___fldiv+3
  5224     0C20  3000               	movlw	0
  5225     0C21  00A2               	movwf	?___fldiv+2
  5226     0C22  3000               	movlw	0
  5227     0C23  00A1               	movwf	?___fldiv+1
  5228     0C24  3000               	movlw	0
  5229     0C25  00A0               	movwf	?___fldiv
  5230     0C26  2D74               	goto	l595
  5231     0C27                     l2122:
  5232     0C27  0838               	movf	___fldiv@bexp,w
  5233     0C28  00A8               	movwf	??___fldiv
  5234     0C29  01A9               	clrf	??___fldiv+1
  5235     0C2A  0829               	movf	??___fldiv+1,w
  5236     0C2B  00AB               	movwf	??___fldiv+3
  5237     0C2C  0839               	movf	___fldiv@aexp,w
  5238     0C2D  0228               	subwf	??___fldiv,w
  5239     0C2E  00AA               	movwf	??___fldiv+2
  5240     0C2F  1C03               	skipc
  5241     0C30  03AB               	decf	??___fldiv+3,f
  5242     0C31  082A               	movf	??___fldiv+2,w
  5243     0C32  3E7F               	addlw	127
  5244     0C33  00B2               	movwf	___fldiv@new_exp
  5245     0C34  082B               	movf	??___fldiv+3,w
  5246     0C35  1803               	skipnc
  5247     0C36  3E01               	addlw	1
  5248     0C37  3E00               	addlw	0
  5249     0C38  00B3               	movwf	___fldiv@new_exp+1
  5250     0C39                     l2124:
  5251     0C39  0827               	movf	___fldiv@b+3,w
  5252     0C3A  00B0               	movwf	___fldiv@rem+3
  5253     0C3B  0826               	movf	___fldiv@b+2,w
  5254     0C3C  00AF               	movwf	___fldiv@rem+2
  5255     0C3D  0825               	movf	___fldiv@b+1,w
  5256     0C3E  00AE               	movwf	___fldiv@rem+1
  5257     0C3F  0824               	movf	___fldiv@b,w
  5258     0C40  00AD               	movwf	___fldiv@rem
  5259     0C41                     l2126:
  5260     0C41  3000               	movlw	0
  5261     0C42  00A7               	movwf	___fldiv@b+3
  5262     0C43  3000               	movlw	0
  5263     0C44  00A6               	movwf	___fldiv@b+2
  5264     0C45  3000               	movlw	0
  5265     0C46  00A5               	movwf	___fldiv@b+1
  5266     0C47  3000               	movlw	0
  5267     0C48  00A4               	movwf	___fldiv@b
  5268     0C49                     l2128:
  5269     0C49  3000               	movlw	0
  5270     0C4A  00B7               	movwf	___fldiv@grs+3
  5271     0C4B  3000               	movlw	0
  5272     0C4C  00B6               	movwf	___fldiv@grs+2
  5273     0C4D  3000               	movlw	0
  5274     0C4E  00B5               	movwf	___fldiv@grs+1
  5275     0C4F  3000               	movlw	0
  5276     0C50  00B4               	movwf	___fldiv@grs
  5277     0C51                     l2130:
  5278     0C51  01B9               	clrf	___fldiv@aexp
  5279     0C52  2C9D               	goto	l2150
  5280     0C53                     l2132:
  5281     0C53  0839               	movf	___fldiv@aexp,w
  5282     0C54  1903               	btfsc	3,2
  5283     0C55  2C57               	goto	u3401
  5284     0C56  2C58               	goto	u3400
  5285     0C57                     u3401:
  5286     0C57  2C78               	goto	l2142
  5287     0C58                     u3400:
  5288     0C58                     l2134:
  5289     0C58  3001               	movlw	1
  5290     0C59  00A8               	movwf	??___fldiv
  5291     0C5A                     u3415:
  5292     0C5A  1003               	clrc
  5293     0C5B  0DAD               	rlf	___fldiv@rem,f
  5294     0C5C  0DAE               	rlf	___fldiv@rem+1,f
  5295     0C5D  0DAF               	rlf	___fldiv@rem+2,f
  5296     0C5E  0DB0               	rlf	___fldiv@rem+3,f
  5297     0C5F  0BA8               	decfsz	??___fldiv,f
  5298     0C60  2C5A               	goto	u3415
  5299     0C61  3001               	movlw	1
  5300     0C62  00A8               	movwf	??___fldiv
  5301     0C63                     u3425:
  5302     0C63  1003               	clrc
  5303     0C64  0DA4               	rlf	___fldiv@b,f
  5304     0C65  0DA5               	rlf	___fldiv@b+1,f
  5305     0C66  0DA6               	rlf	___fldiv@b+2,f
  5306     0C67  0DA7               	rlf	___fldiv@b+3,f
  5307     0C68  0BA8               	decfsz	??___fldiv,f
  5308     0C69  2C63               	goto	u3425
  5309     0C6A                     l2136:
  5310     0C6A  1FB7               	btfss	___fldiv@grs+3,7
  5311     0C6B  2C6D               	goto	u3431
  5312     0C6C  2C6E               	goto	u3430
  5313     0C6D                     u3431:
  5314     0C6D  2C6F               	goto	l2140
  5315     0C6E                     u3430:
  5316     0C6E                     l2138:
  5317     0C6E  1424               	bsf	___fldiv@b,0
  5318     0C6F                     l2140:
  5319     0C6F  3001               	movlw	1
  5320     0C70  00A8               	movwf	??___fldiv
  5321     0C71                     u3445:
  5322     0C71  1003               	clrc
  5323     0C72  0DB4               	rlf	___fldiv@grs,f
  5324     0C73  0DB5               	rlf	___fldiv@grs+1,f
  5325     0C74  0DB6               	rlf	___fldiv@grs+2,f
  5326     0C75  0DB7               	rlf	___fldiv@grs+3,f
  5327     0C76  0BA8               	decfsz	??___fldiv,f
  5328     0C77  2C71               	goto	u3445
  5329     0C78                     l2142:
  5330     0C78  0823               	movf	___fldiv@a+3,w
  5331     0C79  0230               	subwf	___fldiv@rem+3,w
  5332     0C7A  1D03               	skipz
  5333     0C7B  2C86               	goto	u3455
  5334     0C7C  0822               	movf	___fldiv@a+2,w
  5335     0C7D  022F               	subwf	___fldiv@rem+2,w
  5336     0C7E  1D03               	skipz
  5337     0C7F  2C86               	goto	u3455
  5338     0C80  0821               	movf	___fldiv@a+1,w
  5339     0C81  022E               	subwf	___fldiv@rem+1,w
  5340     0C82  1D03               	skipz
  5341     0C83  2C86               	goto	u3455
  5342     0C84  0820               	movf	___fldiv@a,w
  5343     0C85  022D               	subwf	___fldiv@rem,w
  5344     0C86                     u3455:
  5345     0C86  1C03               	skipc
  5346     0C87  2C89               	goto	u3451
  5347     0C88  2C8A               	goto	u3450
  5348     0C89                     u3451:
  5349     0C89  2C99               	goto	l2148
  5350     0C8A                     u3450:
  5351     0C8A                     l2144:
  5352     0C8A  1737               	bsf	___fldiv@grs+3,6
  5353     0C8B                     l2146:
  5354     0C8B  0820               	movf	___fldiv@a,w
  5355     0C8C  02AD               	subwf	___fldiv@rem,f
  5356     0C8D  0821               	movf	___fldiv@a+1,w
  5357     0C8E  1C03               	skipc
  5358     0C8F  0F21               	incfsz	___fldiv@a+1,w
  5359     0C90  02AE               	subwf	___fldiv@rem+1,f
  5360     0C91  0822               	movf	___fldiv@a+2,w
  5361     0C92  1C03               	skipc
  5362     0C93  0F22               	incfsz	___fldiv@a+2,w
  5363     0C94  02AF               	subwf	___fldiv@rem+2,f
  5364     0C95  0823               	movf	___fldiv@a+3,w
  5365     0C96  1C03               	skipc
  5366     0C97  0F23               	incfsz	___fldiv@a+3,w
  5367     0C98  02B0               	subwf	___fldiv@rem+3,f
  5368     0C99                     l2148:
  5369     0C99  3001               	movlw	1
  5370     0C9A  00A8               	movwf	??___fldiv
  5371     0C9B  0828               	movf	??___fldiv,w
  5372     0C9C  07B9               	addwf	___fldiv@aexp,f
  5373     0C9D                     l2150:
  5374     0C9D  301A               	movlw	26
  5375     0C9E  0239               	subwf	___fldiv@aexp,w
  5376     0C9F  1C03               	skipc
  5377     0CA0  2CA2               	goto	u3461
  5378     0CA1  2CA3               	goto	u3460
  5379     0CA2                     u3461:
  5380     0CA2  2C53               	goto	l2132
  5381     0CA3                     u3460:
  5382     0CA3                     l2152:
  5383     0CA3  0830               	movf	___fldiv@rem+3,w
  5384     0CA4  042F               	iorwf	___fldiv@rem+2,w
  5385     0CA5  042E               	iorwf	___fldiv@rem+1,w
  5386     0CA6  042D               	iorwf	___fldiv@rem,w
  5387     0CA7  1903               	skipnz
  5388     0CA8  2CAA               	goto	u3471
  5389     0CA9  2CAB               	goto	u3470
  5390     0CAA                     u3471:
  5391     0CAA  2CCA               	goto	l2166
  5392     0CAB                     u3470:
  5393     0CAB                     l2154:
  5394     0CAB  1434               	bsf	___fldiv@grs,0
  5395     0CAC  2CCA               	goto	l2166
  5396     0CAD                     l2156:
  5397     0CAD  3001               	movlw	1
  5398     0CAE  00A8               	movwf	??___fldiv
  5399     0CAF                     u3485:
  5400     0CAF  1003               	clrc
  5401     0CB0  0DA4               	rlf	___fldiv@b,f
  5402     0CB1  0DA5               	rlf	___fldiv@b+1,f
  5403     0CB2  0DA6               	rlf	___fldiv@b+2,f
  5404     0CB3  0DA7               	rlf	___fldiv@b+3,f
  5405     0CB4  0BA8               	decfsz	??___fldiv,f
  5406     0CB5  2CAF               	goto	u3485
  5407     0CB6                     l2158:
  5408     0CB6  1FB7               	btfss	___fldiv@grs+3,7
  5409     0CB7  2CB9               	goto	u3491
  5410     0CB8  2CBA               	goto	u3490
  5411     0CB9                     u3491:
  5412     0CB9  2CBB               	goto	l2162
  5413     0CBA                     u3490:
  5414     0CBA                     l2160:
  5415     0CBA  1424               	bsf	___fldiv@b,0
  5416     0CBB                     l2162:
  5417     0CBB  3001               	movlw	1
  5418     0CBC  00A8               	movwf	??___fldiv
  5419     0CBD                     u3505:
  5420     0CBD  1003               	clrc
  5421     0CBE  0DB4               	rlf	___fldiv@grs,f
  5422     0CBF  0DB5               	rlf	___fldiv@grs+1,f
  5423     0CC0  0DB6               	rlf	___fldiv@grs+2,f
  5424     0CC1  0DB7               	rlf	___fldiv@grs+3,f
  5425     0CC2  0BA8               	decfsz	??___fldiv,f
  5426     0CC3  2CBD               	goto	u3505
  5427     0CC4                     l2164:
  5428     0CC4  30FF               	movlw	255
  5429     0CC5  07B2               	addwf	___fldiv@new_exp,f
  5430     0CC6  1803               	skipnc
  5431     0CC7  0AB3               	incf	___fldiv@new_exp+1,f
  5432     0CC8  30FF               	movlw	255
  5433     0CC9  07B3               	addwf	___fldiv@new_exp+1,f
  5434     0CCA                     l2166:
  5435     0CCA  1FA6               	btfss	___fldiv@b+2,7
  5436     0CCB  2CCD               	goto	u3511
  5437     0CCC  2CCE               	goto	u3510
  5438     0CCD                     u3511:
  5439     0CCD  2CAD               	goto	l2156
  5440     0CCE                     u3510:
  5441     0CCE                     l2168:
  5442     0CCE  01B9               	clrf	___fldiv@aexp
  5443     0CCF                     l2170:
  5444     0CCF  1FB7               	btfss	___fldiv@grs+3,7
  5445     0CD0  2CD2               	goto	u3521
  5446     0CD1  2CD3               	goto	u3520
  5447     0CD2                     u3521:
  5448     0CD2  2CEF               	goto	l2178
  5449     0CD3                     u3520:
  5450     0CD3                     l2172:
  5451     0CD3  30FF               	movlw	255
  5452     0CD4  0534               	andwf	___fldiv@grs,w
  5453     0CD5  00A8               	movwf	??___fldiv
  5454     0CD6  30FF               	movlw	255
  5455     0CD7  0535               	andwf	___fldiv@grs+1,w
  5456     0CD8  00A9               	movwf	??___fldiv+1
  5457     0CD9  30FF               	movlw	255
  5458     0CDA  0536               	andwf	___fldiv@grs+2,w
  5459     0CDB  00AA               	movwf	??___fldiv+2
  5460     0CDC  307F               	movlw	127
  5461     0CDD  0537               	andwf	___fldiv@grs+3,w
  5462     0CDE  00AB               	movwf	??___fldiv+3
  5463     0CDF  082B               	movf	??___fldiv+3,w
  5464     0CE0  042A               	iorwf	??___fldiv+2,w
  5465     0CE1  0429               	iorwf	??___fldiv+1,w
  5466     0CE2  0428               	iorwf	??___fldiv,w
  5467     0CE3  1903               	skipnz
  5468     0CE4  2CE6               	goto	u3531
  5469     0CE5  2CE7               	goto	u3530
  5470     0CE6                     u3531:
  5471     0CE6  2CEA               	goto	l609
  5472     0CE7                     u3530:
  5473     0CE7                     l2174:
  5474     0CE7  01B9               	clrf	___fldiv@aexp
  5475     0CE8  0AB9               	incf	___fldiv@aexp,f
  5476     0CE9  2CEF               	goto	l2178
  5477     0CEA                     l609:
  5478     0CEA  1C24               	btfss	___fldiv@b,0
  5479     0CEB  2CED               	goto	u3541
  5480     0CEC  2CEE               	goto	u3540
  5481     0CED                     u3541:
  5482     0CED  2CEF               	goto	l2178
  5483     0CEE                     u3540:
  5484     0CEE  2CE7               	goto	l2174
  5485     0CEF                     l2178:
  5486     0CEF  0839               	movf	___fldiv@aexp,w
  5487     0CF0  1903               	btfsc	3,2
  5488     0CF1  2CF3               	goto	u3551
  5489     0CF2  2CF4               	goto	u3550
  5490     0CF3                     u3551:
  5491     0CF3  2D25               	goto	l2188
  5492     0CF4                     u3550:
  5493     0CF4                     l2180:
  5494     0CF4  3001               	movlw	1
  5495     0CF5  07A4               	addwf	___fldiv@b,f
  5496     0CF6  3000               	movlw	0
  5497     0CF7  1803               	skipnc
  5498     0CF8  3001               	movlw	1
  5499     0CF9  07A5               	addwf	___fldiv@b+1,f
  5500     0CFA  3000               	movlw	0
  5501     0CFB  1803               	skipnc
  5502     0CFC  3001               	movlw	1
  5503     0CFD  07A6               	addwf	___fldiv@b+2,f
  5504     0CFE  3000               	movlw	0
  5505     0CFF  1803               	skipnc
  5506     0D00  3001               	movlw	1
  5507     0D01  07A7               	addwf	___fldiv@b+3,f
  5508     0D02                     l2182:
  5509     0D02  1C27               	btfss	___fldiv@b+3,0
  5510     0D03  2D05               	goto	u3561
  5511     0D04  2D06               	goto	u3560
  5512     0D05                     u3561:
  5513     0D05  2D25               	goto	l2188
  5514     0D06                     u3560:
  5515     0D06                     l2184:
  5516     0D06  0824               	movf	___fldiv@b,w
  5517     0D07  00A8               	movwf	??___fldiv
  5518     0D08  0825               	movf	___fldiv@b+1,w
  5519     0D09  00A9               	movwf	??___fldiv+1
  5520     0D0A  0826               	movf	___fldiv@b+2,w
  5521     0D0B  00AA               	movwf	??___fldiv+2
  5522     0D0C  0827               	movf	___fldiv@b+3,w
  5523     0D0D  00AB               	movwf	??___fldiv+3
  5524     0D0E  3001               	movlw	1
  5525     0D0F  00AC               	movwf	??___fldiv+4
  5526     0D10                     u3575:
  5527     0D10  0D2B               	rlf	??___fldiv+3,w
  5528     0D11  0CAB               	rrf	??___fldiv+3,f
  5529     0D12  0CAA               	rrf	??___fldiv+2,f
  5530     0D13  0CA9               	rrf	??___fldiv+1,f
  5531     0D14  0CA8               	rrf	??___fldiv,f
  5532     0D15                     u3570:
  5533     0D15  0BAC               	decfsz	??___fldiv+4,f
  5534     0D16  2D10               	goto	u3575
  5535     0D17  082B               	movf	??___fldiv+3,w
  5536     0D18  00A7               	movwf	___fldiv@b+3
  5537     0D19  082A               	movf	??___fldiv+2,w
  5538     0D1A  00A6               	movwf	___fldiv@b+2
  5539     0D1B  0829               	movf	??___fldiv+1,w
  5540     0D1C  00A5               	movwf	___fldiv@b+1
  5541     0D1D  0828               	movf	??___fldiv,w
  5542     0D1E  00A4               	movwf	___fldiv@b
  5543     0D1F                     l2186:
  5544     0D1F  3001               	movlw	1
  5545     0D20  07B2               	addwf	___fldiv@new_exp,f
  5546     0D21  1803               	skipnc
  5547     0D22  0AB3               	incf	___fldiv@new_exp+1,f
  5548     0D23  3000               	movlw	0
  5549     0D24  07B3               	addwf	___fldiv@new_exp+1,f
  5550     0D25                     l2188:
  5551     0D25  0833               	movf	___fldiv@new_exp+1,w
  5552     0D26  3A80               	xorlw	128
  5553     0D27  00FF               	movwf	btemp+1
  5554     0D28  3080               	movlw	128
  5555     0D29  027F               	subwf	btemp+1,w
  5556     0D2A  1D03               	skipz
  5557     0D2B  2D2E               	goto	u3585
  5558     0D2C  30FF               	movlw	255
  5559     0D2D  0232               	subwf	___fldiv@new_exp,w
  5560     0D2E                     u3585:
  5561     0D2E  1C03               	skipc
  5562     0D2F  2D31               	goto	u3581
  5563     0D30  2D32               	goto	u3580
  5564     0D31                     u3581:
  5565     0D31  2D40               	goto	l2192
  5566     0D32                     u3580:
  5567     0D32                     l2190:
  5568     0D32  30FF               	movlw	255
  5569     0D33  1283               	bcf	3,5	;RP0=0, select bank0
  5570     0D34  1303               	bcf	3,6	;RP1=0, select bank0
  5571     0D35  00B2               	movwf	___fldiv@new_exp
  5572     0D36  3000               	movlw	0
  5573     0D37  00B3               	movwf	___fldiv@new_exp+1
  5574     0D38  3000               	movlw	0
  5575     0D39  00A7               	movwf	___fldiv@b+3
  5576     0D3A  3000               	movlw	0
  5577     0D3B  00A6               	movwf	___fldiv@b+2
  5578     0D3C  3000               	movlw	0
  5579     0D3D  00A5               	movwf	___fldiv@b+1
  5580     0D3E  3000               	movlw	0
  5581     0D3F  00A4               	movwf	___fldiv@b
  5582     0D40                     l2192:
  5583     0D40  1283               	bcf	3,5	;RP0=0, select bank0
  5584     0D41  1303               	bcf	3,6	;RP1=0, select bank0
  5585     0D42  0833               	movf	___fldiv@new_exp+1,w
  5586     0D43  3A80               	xorlw	128
  5587     0D44  00FF               	movwf	btemp+1
  5588     0D45  3080               	movlw	128
  5589     0D46  027F               	subwf	btemp+1,w
  5590     0D47  1D03               	skipz
  5591     0D48  2D4B               	goto	u3595
  5592     0D49  3001               	movlw	1
  5593     0D4A  0232               	subwf	___fldiv@new_exp,w
  5594     0D4B                     u3595:
  5595     0D4B  1803               	skipnc
  5596     0D4C  2D4E               	goto	u3591
  5597     0D4D  2D4F               	goto	u3590
  5598     0D4E                     u3591:
  5599     0D4E  2D5C               	goto	l615
  5600     0D4F                     u3590:
  5601     0D4F                     l2194:
  5602     0D4F  1283               	bcf	3,5	;RP0=0, select bank0
  5603     0D50  1303               	bcf	3,6	;RP1=0, select bank0
  5604     0D51  01B2               	clrf	___fldiv@new_exp
  5605     0D52  01B3               	clrf	___fldiv@new_exp+1
  5606     0D53                     l2196:
  5607     0D53  3000               	movlw	0
  5608     0D54  00A7               	movwf	___fldiv@b+3
  5609     0D55  3000               	movlw	0
  5610     0D56  00A6               	movwf	___fldiv@b+2
  5611     0D57  3000               	movlw	0
  5612     0D58  00A5               	movwf	___fldiv@b+1
  5613     0D59  3000               	movlw	0
  5614     0D5A  00A4               	movwf	___fldiv@b
  5615     0D5B                     l2198:
  5616     0D5B  01B1               	clrf	___fldiv@sign
  5617     0D5C                     l615:
  5618     0D5C  1283               	bcf	3,5	;RP0=0, select bank0
  5619     0D5D  1303               	bcf	3,6	;RP1=0, select bank0
  5620     0D5E  0832               	movf	___fldiv@new_exp,w
  5621     0D5F  00B8               	movwf	___fldiv@bexp
  5622     0D60                     l2200:
  5623     0D60  1C38               	btfss	___fldiv@bexp,0
  5624     0D61  2D63               	goto	u3601
  5625     0D62  2D64               	goto	u3600
  5626     0D63                     u3601:
  5627     0D63  2D66               	goto	l2204
  5628     0D64                     u3600:
  5629     0D64                     l2202:
  5630     0D64  17A6               	bsf	___fldiv@b+2,7
  5631     0D65  2D6A               	goto	l617
  5632     0D66                     l2204:
  5633     0D66  307F               	movlw	127
  5634     0D67  00A8               	movwf	??___fldiv
  5635     0D68  0828               	movf	??___fldiv,w
  5636     0D69  05A6               	andwf	___fldiv@b+2,f
  5637     0D6A                     l617:
  5638     0D6A  0838               	movf	___fldiv@bexp,w
  5639     0D6B  00A8               	movwf	??___fldiv
  5640     0D6C  1003               	clrc
  5641     0D6D  0C28               	rrf	??___fldiv,w
  5642     0D6E  00A7               	movwf	___fldiv@b+3
  5643     0D6F  0831               	movf	___fldiv@sign,w
  5644     0D70  00A8               	movwf	??___fldiv
  5645     0D71  0828               	movf	??___fldiv,w
  5646     0D72  04A7               	iorwf	___fldiv@b+3,f
  5647     0D73  2C10               	goto	l2112
  5648     0D74                     l595:
  5649     0D74  0008               	return
  5650     0D75                     __end_of___fldiv:
  5651                           
  5652                           	psect	text19
  5653     1372                     __ptext19:	
  5654 ;; *************** function _initRPM *****************
  5655 ;; Defined at:
  5656 ;;		line 45 in file "teste.c"
  5657 ;; Parameters:    Size  Location     Type
  5658 ;;		None
  5659 ;; Auto vars:     Size  Location     Type
  5660 ;;		None
  5661 ;; Return value:  Size  Location     Type
  5662 ;;                  1    wreg      void 
  5663 ;; Registers used:
  5664 ;;		wreg, status,2, status,0
  5665 ;; Tracked objects:
  5666 ;;		On entry : 0/0
  5667 ;;		On exit  : 0/0
  5668 ;;		Unchanged: 0/0
  5669 ;; Data sizes:     COMMON   BANK0   BANK1   BANK3   BANK2
  5670 ;;      Params:         0       0       0       0       0
  5671 ;;      Locals:         0       0       0       0       0
  5672 ;;      Temps:          0       0       0       0       0
  5673 ;;      Totals:         0       0       0       0       0
  5674 ;;Total ram usage:        0 bytes
  5675 ;; Hardware stack levels used: 1
  5676 ;; This function calls:
  5677 ;;		Nothing
  5678 ;; This function is called by:
  5679 ;;		_main
  5680 ;; This function uses a non-reentrant model
  5681 ;;
  5682                           
  5683     1372                     _initRPM:	
  5684                           ;psect for function _initRPM
  5685                           
  5686     1372                     l2416:	
  5687                           ;incstack = 0
  5688                           ; Regs used in _initRPM: [wreg+status,2+status,0]
  5689                           
  5690                           
  5691                           ;teste.c: 47: 
  5692     1372  1683               	bsf	3,5	;RP0=1, select bank1
  5693     1373  1303               	bcf	3,6	;RP1=0, select bank1
  5694     1374  1406               	bsf	6,0	;volatile
  5695     1375                     l2418:
  5696                           
  5697                           ;teste.c: 48: unsigned int readADC() {
  5698     1375  1683               	bsf	3,5	;RP0=1, select bank3
  5699     1376  1703               	bsf	3,6	;RP1=1, select bank3
  5700     1377  0189               	clrf	9	;volatile
  5701     1378                     l2420:
  5702                           
  5703                           ;teste.c: 50:     while (ADCON0bits.GO_nDONE);
  5704     1378  1683               	bsf	3,5	;RP0=1, select bank1
  5705     1379  1303               	bcf	3,6	;RP1=0, select bank1
  5706     137A  1281               	bcf	1,5	;volatile
  5707     137B                     l2422:
  5708                           
  5709                           ;teste.c: 51:     return (unsigned int) ((ADRESH << 8) + ADRESL);
  5710     137B  1181               	bcf	1,3	;volatile
  5711     137C                     l2424:
  5712                           
  5713                           ;teste.c: 52: }
  5714     137C  3007               	movlw	7
  5715     137D  0481               	iorwf	1,f	;volatile
  5716     137E                     l2426:
  5717                           
  5718                           ;teste.c: 53: 
  5719     137E  1283               	bcf	3,5	;RP0=0, select bank0
  5720     137F  1303               	bcf	3,6	;RP1=0, select bank0
  5721     1380  0181               	clrf	1	;volatile
  5722     1381                     l64:
  5723     1381  0008               	return
  5724     1382                     __end_of_initRPM:
  5725                           
  5726                           	psect	text20
  5727     13A9                     __ptext20:	
  5728 ;; *************** function _initPWM *****************
  5729 ;; Defined at:
  5730 ;;		line 31 in file "teste.c"
  5731 ;; Parameters:    Size  Location     Type
  5732 ;;		None
  5733 ;; Auto vars:     Size  Location     Type
  5734 ;;		None
  5735 ;; Return value:  Size  Location     Type
  5736 ;;                  1    wreg      void 
  5737 ;; Registers used:
  5738 ;;		wreg, status,2
  5739 ;; Tracked objects:
  5740 ;;		On entry : 0/0
  5741 ;;		On exit  : 0/0
  5742 ;;		Unchanged: 0/0
  5743 ;; Data sizes:     COMMON   BANK0   BANK1   BANK3   BANK2
  5744 ;;      Params:         0       0       0       0       0
  5745 ;;      Locals:         0       0       0       0       0
  5746 ;;      Temps:          0       0       0       0       0
  5747 ;;      Totals:         0       0       0       0       0
  5748 ;;Total ram usage:        0 bytes
  5749 ;; Hardware stack levels used: 1
  5750 ;; This function calls:
  5751 ;;		Nothing
  5752 ;; This function is called by:
  5753 ;;		_main
  5754 ;; This function uses a non-reentrant model
  5755 ;;
  5756                           
  5757     13A9                     _initPWM:	
  5758                           ;psect for function _initPWM
  5759                           
  5760     13A9                     l2404:	
  5761                           ;incstack = 0
  5762                           ; Regs used in _initPWM: [wreg+status,2]
  5763                           
  5764                           
  5765                           ;teste.c: 32:     TRISBbits.TRISB0 = 1;
  5766     13A9  3060               	movlw	96
  5767     13AA  1683               	bsf	3,5	;RP0=1, select bank1
  5768     13AB  1303               	bcf	3,6	;RP1=0, select bank1
  5769     13AC  008F               	movwf	15	;volatile
  5770     13AD                     l2406:
  5771                           
  5772                           ;teste.c: 33:     ANSELH = 0x00;
  5773     13AD  0187               	clrf	7	;volatile
  5774     13AE                     l2408:
  5775                           
  5776                           ;teste.c: 34: 
  5777     13AE  3007               	movlw	7
  5778     13AF  1283               	bcf	3,5	;RP0=0, select bank0
  5779     13B0  1303               	bcf	3,6	;RP1=0, select bank0
  5780     13B1  0092               	movwf	18	;volatile
  5781     13B2                     l2410:
  5782                           
  5783                           ;teste.c: 35:     OPTION_REGbits.T0CS = 0;
  5784     13B2  30FF               	movlw	255
  5785     13B3  1683               	bsf	3,5	;RP0=1, select bank1
  5786     13B4  1303               	bcf	3,6	;RP1=0, select bank1
  5787     13B5  0092               	movwf	18	;volatile
  5788     13B6                     l2412:
  5789                           
  5790                           ;teste.c: 36:     OPTION_REGbits.PSA = 0;
  5791     13B6  300C               	movlw	12
  5792     13B7  1283               	bcf	3,5	;RP0=0, select bank0
  5793     13B8  1303               	bcf	3,6	;RP1=0, select bank0
  5794     13B9  0097               	movwf	23	;volatile
  5795                           
  5796                           ;teste.c: 37:     OPTION_REGbits.PS = 0b111;
  5797     13BA  0195               	clrf	21	;volatile
  5798     13BB                     l2414:
  5799                           
  5800                           ;teste.c: 38:     TMR0 = 0;
  5801     13BB  3004               	movlw	4
  5802     13BC  0092               	movwf	18	;volatile
  5803     13BD                     l61:
  5804     13BD  0008               	return
  5805     13BE                     __end_of_initPWM:
  5806                           
  5807                           	psect	text21
  5808     1357                     __ptext21:	
  5809 ;; *************** function _initADC *****************
  5810 ;; Defined at:
  5811 ;;		line 57 in file "teste.c"
  5812 ;; Parameters:    Size  Location     Type
  5813 ;;		None
  5814 ;; Auto vars:     Size  Location     Type
  5815 ;;		None
  5816 ;; Return value:  Size  Location     Type
  5817 ;;                  1    wreg      void 
  5818 ;; Registers used:
  5819 ;;		wreg
  5820 ;; Tracked objects:
  5821 ;;		On entry : 0/0
  5822 ;;		On exit  : 0/0
  5823 ;;		Unchanged: 0/0
  5824 ;; Data sizes:     COMMON   BANK0   BANK1   BANK3   BANK2
  5825 ;;      Params:         0       0       0       0       0
  5826 ;;      Locals:         0       0       0       0       0
  5827 ;;      Temps:          0       0       0       0       0
  5828 ;;      Totals:         0       0       0       0       0
  5829 ;;Total ram usage:        0 bytes
  5830 ;; Hardware stack levels used: 1
  5831 ;; This function calls:
  5832 ;;		Nothing
  5833 ;; This function is called by:
  5834 ;;		_main
  5835 ;; This function uses a non-reentrant model
  5836 ;;
  5837                           
  5838     1357                     _initADC:	
  5839                           ;psect for function _initADC
  5840                           
  5841     1357                     l2428:	
  5842                           ;incstack = 0
  5843                           ; Regs used in _initADC: [wreg]
  5844                           
  5845                           
  5846                           ;teste.c: 58: }
  5847     1357  3001               	movlw	1
  5848     1358  1683               	bsf	3,5	;RP0=1, select bank3
  5849     1359  1703               	bsf	3,6	;RP1=1, select bank3
  5850     135A  0088               	movwf	8	;volatile
  5851                           
  5852                           ;teste.c: 59: 
  5853     135B  3001               	movlw	1
  5854     135C  1283               	bcf	3,5	;RP0=0, select bank0
  5855     135D  1303               	bcf	3,6	;RP1=0, select bank0
  5856     135E  009F               	movwf	31	;volatile
  5857                           
  5858                           ;teste.c: 60: unsigned int countPulses() {
  5859     135F  3080               	movlw	128
  5860     1360  1683               	bsf	3,5	;RP0=1, select bank1
  5861     1361  1303               	bcf	3,6	;RP1=0, select bank1
  5862     1362  009F               	movwf	31	;volatile
  5863     1363                     l67:
  5864     1363  0008               	return
  5865     1364                     __end_of_initADC:
  5866                           
  5867                           	psect	text22
  5868     14C7                     __ptext22:	
  5869 ;; *************** function _countPulses *****************
  5870 ;; Defined at:
  5871 ;;		line 75 in file "teste.c"
  5872 ;; Parameters:    Size  Location     Type
  5873 ;;		None
  5874 ;; Auto vars:     Size  Location     Type
  5875 ;;  pulseCount      2    2[COMMON] unsigned int 
  5876 ;;  currentState    1    5[COMMON] unsigned char 
  5877 ;;  lastState       1    4[COMMON] unsigned char 
  5878 ;; Return value:  Size  Location     Type
  5879 ;;                  2    0[COMMON] unsigned int 
  5880 ;; Registers used:
  5881 ;;		wreg, status,2, status,0
  5882 ;; Tracked objects:
  5883 ;;		On entry : 0/0
  5884 ;;		On exit  : 0/0
  5885 ;;		Unchanged: 0/0
  5886 ;; Data sizes:     COMMON   BANK0   BANK1   BANK3   BANK2
  5887 ;;      Params:         2       0       0       0       0
  5888 ;;      Locals:         4       0       0       0       0
  5889 ;;      Temps:          0       0       0       0       0
  5890 ;;      Totals:         6       0       0       0       0
  5891 ;;Total ram usage:        6 bytes
  5892 ;; Hardware stack levels used: 1
  5893 ;; This function calls:
  5894 ;;		Nothing
  5895 ;; This function is called by:
  5896 ;;		_main
  5897 ;; This function uses a non-reentrant model
  5898 ;;
  5899                           
  5900     14C7                     _countPulses:	
  5901                           ;psect for function _countPulses
  5902                           
  5903     14C7                     l2438:	
  5904                           ;incstack = 0
  5905                           ; Regs used in _countPulses: [wreg+status,2+status,0]
  5906                           
  5907                           
  5908                           ;teste.c: 76: 
  5909     14C7  01F2               	clrf	countPulses@pulseCount
  5910     14C8  01F3               	clrf	countPulses@pulseCount+1
  5911     14C9                     l2440:
  5912                           
  5913                           ;teste.c: 77:     return pulseCount;
  5914     14C9  3000               	movlw	0
  5915     14CA  1283               	bcf	3,5	;RP0=0, select bank0
  5916     14CB  1303               	bcf	3,6	;RP1=0, select bank0
  5917     14CC  1806               	btfsc	6,0	;volatile
  5918     14CD  3001               	movlw	1
  5919     14CE  00F4               	movwf	countPulses@lastState
  5920     14CF                     l2442:
  5921                           
  5922                           ;teste.c: 78: };teste.c: 80: void main() {
  5923     14CF  0181               	clrf	1	;volatile
  5924     14D0                     l2444:
  5925                           
  5926                           ;teste.c: 81:     initPWM();
  5927     14D0  110B               	bcf	11,2	;volatile
  5928                           
  5929                           ;teste.c: 83:     initRPM();
  5930     14D1  2CE9               	goto	l2454
  5931     14D2                     l2446:
  5932                           
  5933                           ;teste.c: 84: 
  5934     14D2  3000               	movlw	0
  5935     14D3  1806               	btfsc	6,0	;volatile
  5936     14D4  3001               	movlw	1
  5937     14D5  00F5               	movwf	countPulses@currentState
  5938     14D6                     l2448:
  5939                           
  5940                           ;teste.c: 86:         .port = &PORTD,
  5941     14D6  0875               	movf	countPulses@currentState,w
  5942     14D7  0674               	xorwf	countPulses@lastState,w
  5943     14D8  1903               	skipnz
  5944     14D9  2CDB               	goto	u4131
  5945     14DA  2CDC               	goto	u4130
  5946     14DB                     u4131:
  5947     14DB  2CE7               	goto	l81
  5948     14DC                     u4130:
  5949     14DC                     l2450:
  5950     14DC  0375               	decf	countPulses@currentState,w
  5951     14DD  1D03               	btfss	3,2
  5952     14DE  2CE0               	goto	u4141
  5953     14DF  2CE1               	goto	u4140
  5954     14E0                     u4141:
  5955     14E0  2CE7               	goto	l81
  5956     14E1                     u4140:
  5957     14E1                     l2452:
  5958                           
  5959                           ;teste.c: 87:         .rs_pin = 2,
  5960     14E1  3001               	movlw	1
  5961     14E2  07F2               	addwf	countPulses@pulseCount,f
  5962     14E3  1803               	skipnc
  5963     14E4  0AF3               	incf	countPulses@pulseCount+1,f
  5964     14E5  3000               	movlw	0
  5965     14E6  07F3               	addwf	countPulses@pulseCount+1,f
  5966     14E7                     l81:	
  5967                           ;teste.c: 88:         .en_pin = 3,
  5968                           
  5969                           
  5970                           ;teste.c: 89:         .d4_pin = 4,
  5971     14E7  0875               	movf	countPulses@currentState,w
  5972     14E8  00F4               	movwf	countPulses@lastState
  5973     14E9                     l2454:
  5974                           
  5975                           ;teste.c: 83:     initRPM();
  5976     14E9  1D0B               	btfss	11,2	;volatile
  5977     14EA  2CEC               	goto	u4151
  5978     14EB  2CED               	goto	u4150
  5979     14EC                     u4151:
  5980     14EC  2CD2               	goto	l2446
  5981     14ED                     u4150:
  5982     14ED                     l2456:
  5983                           
  5984                           ;teste.c: 92:         .d7_pin = 7
  5985     14ED  0873               	movf	countPulses@pulseCount+1,w
  5986     14EE  00F1               	movwf	?_countPulses+1
  5987     14EF  0872               	movf	countPulses@pulseCount,w
  5988     14F0  00F0               	movwf	?_countPulses
  5989     14F1                     l83:
  5990     14F1  0008               	return
  5991     14F2                     __end_of_countPulses:
  5992                           
  5993                           	psect	text23
  5994     1788                     __ptext23:	
  5995 ;; *************** function ___fltol *****************
  5996 ;; Defined at:
  5997 ;;		line 43 in file "/Applications/microchip/xc8/v2.45/pic/sources/c99/common/fltol.c"
  5998 ;; Parameters:    Size  Location     Type
  5999 ;;  f1              4   52[BANK0 ] unsigned int 
  6000 ;; Auto vars:     Size  Location     Type
  6001 ;;  exp1            1   61[BANK0 ] unsigned char 
  6002 ;;  sign1           1   60[BANK0 ] unsigned char 
  6003 ;; Return value:  Size  Location     Type
  6004 ;;                  4   52[BANK0 ] long 
  6005 ;; Registers used:
  6006 ;;		wreg, status,2, status,0
  6007 ;; Tracked objects:
  6008 ;;		On entry : 0/0
  6009 ;;		On exit  : 0/0
  6010 ;;		Unchanged: 0/0
  6011 ;; Data sizes:     COMMON   BANK0   BANK1   BANK3   BANK2
  6012 ;;      Params:         0       4       0       0       0
  6013 ;;      Locals:         0       2       0       0       0
  6014 ;;      Temps:          0       4       0       0       0
  6015 ;;      Totals:         0      10       0       0       0
  6016 ;;Total ram usage:       10 bytes
  6017 ;; Hardware stack levels used: 1
  6018 ;; This function calls:
  6019 ;;		Nothing
  6020 ;; This function is called by:
  6021 ;;		_main
  6022 ;; This function uses a non-reentrant model
  6023 ;;
  6024                           
  6025     1788                     ___fltol:	
  6026                           ;psect for function ___fltol
  6027                           
  6028     1788                     l2558:	
  6029                           ;incstack = 0
  6030                           ; Regs used in ___fltol: [wreg+status,2+status,0]
  6031                           
  6032     1788  1003               	clrc
  6033     1789  1283               	bcf	3,5	;RP0=0, select bank0
  6034     178A  1303               	bcf	3,6	;RP1=0, select bank0
  6035     178B  0D56               	rlf	___fltol@f1+2,w
  6036     178C  0D57               	rlf	___fltol@f1+3,w
  6037     178D  00DD               	movwf	___fltol@exp1
  6038     178E  085D               	movf	___fltol@exp1,w
  6039     178F  1D03               	btfss	3,2
  6040     1790  2F92               	goto	u4271
  6041     1791  2F93               	goto	u4270
  6042     1792                     u4271:
  6043     1792  2F9C               	goto	l2564
  6044     1793                     u4270:
  6045     1793                     l2560:
  6046     1793  3000               	movlw	0
  6047     1794  00D7               	movwf	?___fltol+3
  6048     1795  3000               	movlw	0
  6049     1796  00D6               	movwf	?___fltol+2
  6050     1797  3000               	movlw	0
  6051     1798  00D5               	movwf	?___fltol+1
  6052     1799  3000               	movlw	0
  6053     179A  00D4               	movwf	?___fltol
  6054     179B  2FFF               	goto	l430
  6055     179C                     l2564:
  6056     179C  0854               	movf	___fltol@f1,w
  6057     179D  00D8               	movwf	??___fltol
  6058     179E  0855               	movf	___fltol@f1+1,w
  6059     179F  00D9               	movwf	??___fltol+1
  6060     17A0  0856               	movf	___fltol@f1+2,w
  6061     17A1  00DA               	movwf	??___fltol+2
  6062     17A2  0857               	movf	___fltol@f1+3,w
  6063     17A3  00DB               	movwf	??___fltol+3
  6064     17A4  301F               	movlw	31
  6065     17A5                     u4285:
  6066     17A5  1003               	clrc
  6067     17A6  0CDB               	rrf	??___fltol+3,f
  6068     17A7  0CDA               	rrf	??___fltol+2,f
  6069     17A8  0CD9               	rrf	??___fltol+1,f
  6070     17A9  0CD8               	rrf	??___fltol,f
  6071     17AA                     u4280:
  6072     17AA  3EFF               	addlw	-1
  6073     17AB  1D03               	skipz
  6074     17AC  2FA5               	goto	u4285
  6075     17AD  0858               	movf	??___fltol,w
  6076     17AE  00DC               	movwf	___fltol@sign1
  6077     17AF                     l2566:
  6078     17AF  17D6               	bsf	___fltol@f1+2,7
  6079     17B0                     l2568:
  6080     17B0  30FF               	movlw	255
  6081     17B1  05D4               	andwf	___fltol@f1,f
  6082     17B2  30FF               	movlw	255
  6083     17B3  05D5               	andwf	___fltol@f1+1,f
  6084     17B4  30FF               	movlw	255
  6085     17B5  05D6               	andwf	___fltol@f1+2,f
  6086     17B6  3000               	movlw	0
  6087     17B7  05D7               	andwf	___fltol@f1+3,f
  6088     17B8                     l2570:
  6089     17B8  3096               	movlw	150
  6090     17B9  02DD               	subwf	___fltol@exp1,f
  6091     17BA                     l2572:
  6092     17BA  1FDD               	btfss	___fltol@exp1,7
  6093     17BB  2FBD               	goto	u4291
  6094     17BC  2FBE               	goto	u4290
  6095     17BD                     u4291:
  6096     17BD  2FD8               	goto	l2582
  6097     17BE                     u4290:
  6098     17BE                     l2574:
  6099     17BE  085D               	movf	___fltol@exp1,w
  6100     17BF  3A80               	xorlw	128
  6101     17C0  3E97               	addlw	151
  6102     17C1  1803               	skipnc
  6103     17C2  2FC4               	goto	u4301
  6104     17C3  2FC5               	goto	u4300
  6105     17C4                     u4301:
  6106     17C4  2FC6               	goto	l2580
  6107     17C5                     u4300:
  6108     17C5  2F93               	goto	l2560
  6109     17C6                     l2580:
  6110     17C6  3001               	movlw	1
  6111     17C7                     u4315:
  6112     17C7  1003               	clrc
  6113     17C8  0CD7               	rrf	___fltol@f1+3,f
  6114     17C9  0CD6               	rrf	___fltol@f1+2,f
  6115     17CA  0CD5               	rrf	___fltol@f1+1,f
  6116     17CB  0CD4               	rrf	___fltol@f1,f
  6117     17CC  3EFF               	addlw	-1
  6118     17CD  1D03               	skipz
  6119     17CE  2FC7               	goto	u4315
  6120     17CF  3001               	movlw	1
  6121     17D0  00D8               	movwf	??___fltol
  6122     17D1  0858               	movf	??___fltol,w
  6123     17D2  07DD               	addwf	___fltol@exp1,f
  6124     17D3  1D03               	btfss	3,2
  6125     17D4  2FD6               	goto	u4321
  6126     17D5  2FD7               	goto	u4320
  6127     17D6                     u4321:
  6128     17D6  2FC6               	goto	l2580
  6129     17D7                     u4320:
  6130     17D7  2FEF               	goto	l2590
  6131     17D8                     l2582:
  6132     17D8  3020               	movlw	32
  6133     17D9  025D               	subwf	___fltol@exp1,w
  6134     17DA  1C03               	skipc
  6135     17DB  2FDD               	goto	u4331
  6136     17DC  2FDE               	goto	u4330
  6137     17DD                     u4331:
  6138     17DD  2FEA               	goto	l437
  6139     17DE                     u4330:
  6140     17DE  2F93               	goto	l2560
  6141     17DF                     l2588:
  6142     17DF  3001               	movlw	1
  6143     17E0  00D8               	movwf	??___fltol
  6144     17E1                     u4345:
  6145     17E1  1003               	clrc
  6146     17E2  0DD4               	rlf	___fltol@f1,f
  6147     17E3  0DD5               	rlf	___fltol@f1+1,f
  6148     17E4  0DD6               	rlf	___fltol@f1+2,f
  6149     17E5  0DD7               	rlf	___fltol@f1+3,f
  6150     17E6  0BD8               	decfsz	??___fltol,f
  6151     17E7  2FE1               	goto	u4345
  6152     17E8  3001               	movlw	1
  6153     17E9  02DD               	subwf	___fltol@exp1,f
  6154     17EA                     l437:
  6155     17EA  085D               	movf	___fltol@exp1,w
  6156     17EB  1D03               	btfss	3,2
  6157     17EC  2FEE               	goto	u4351
  6158     17ED  2FEF               	goto	u4350
  6159     17EE                     u4351:
  6160     17EE  2FDF               	goto	l2588
  6161     17EF                     u4350:
  6162     17EF                     l2590:
  6163     17EF  085C               	movf	___fltol@sign1,w
  6164     17F0  1903               	btfsc	3,2
  6165     17F1  2FF3               	goto	u4361
  6166     17F2  2FF4               	goto	u4360
  6167     17F3                     u4361:
  6168     17F3  2FFF               	goto	l440
  6169     17F4                     u4360:
  6170     17F4                     l2592:
  6171     17F4  09D4               	comf	___fltol@f1,f
  6172     17F5  09D5               	comf	___fltol@f1+1,f
  6173     17F6  09D6               	comf	___fltol@f1+2,f
  6174     17F7  09D7               	comf	___fltol@f1+3,f
  6175     17F8  0AD4               	incf	___fltol@f1,f
  6176     17F9  1903               	skipnz
  6177     17FA  0AD5               	incf	___fltol@f1+1,f
  6178     17FB  1903               	skipnz
  6179     17FC  0AD6               	incf	___fltol@f1+2,f
  6180     17FD  1903               	skipnz
  6181     17FE  0AD7               	incf	___fltol@f1+3,f
  6182     17FF                     l440:
  6183     17FF                     l430:
  6184     17FF  0008               	return
  6185     1800                     __end_of___fltol:
  6186                           
  6187                           	psect	text24
  6188     0871                     __ptext24:	
  6189 ;; *************** function ___flge *****************
  6190 ;; Defined at:
  6191 ;;		line 4 in file "/Applications/microchip/xc8/v2.45/pic/sources/c99/common/flge.c"
  6192 ;; Parameters:    Size  Location     Type
  6193 ;;  ff1             4    0[COMMON] long 
  6194 ;;  ff2             4    4[COMMON] long 
  6195 ;; Auto vars:     Size  Location     Type
  6196 ;;		None
  6197 ;; Return value:  Size  Location     Type
  6198 ;;		None               void
  6199 ;; Registers used:
  6200 ;;		wreg, status,2, status,0
  6201 ;; Tracked objects:
  6202 ;;		On entry : 0/0
  6203 ;;		On exit  : 0/0
  6204 ;;		Unchanged: 0/0
  6205 ;; Data sizes:     COMMON   BANK0   BANK1   BANK3   BANK2
  6206 ;;      Params:         8       0       0       0       0
  6207 ;;      Locals:         0       0       0       0       0
  6208 ;;      Temps:          4       0       0       0       0
  6209 ;;      Totals:        12       0       0       0       0
  6210 ;;Total ram usage:       12 bytes
  6211 ;; Hardware stack levels used: 1
  6212 ;; This function calls:
  6213 ;;		Nothing
  6214 ;; This function is called by:
  6215 ;;		_main
  6216 ;; This function uses a non-reentrant model
  6217 ;;
  6218                           
  6219     0871                     ___flge:	
  6220                           ;psect for function ___flge
  6221                           
  6222     0871                     l2538:	
  6223                           ;incstack = 0
  6224                           ; Regs used in ___flge: [wreg+status,2+status,0]
  6225                           
  6226     0871  3000               	movlw	0
  6227     0872  0570               	andwf	___flge@ff1,w
  6228     0873  00F8               	movwf	??___flge
  6229     0874  3000               	movlw	0
  6230     0875  0571               	andwf	___flge@ff1+1,w
  6231     0876  00F9               	movwf	??___flge+1
  6232     0877  3080               	movlw	128
  6233     0878  0572               	andwf	___flge@ff1+2,w
  6234     0879  00FA               	movwf	??___flge+2
  6235     087A  307F               	movlw	127
  6236     087B  0573               	andwf	___flge@ff1+3,w
  6237     087C  00FB               	movwf	??___flge+3
  6238     087D  087B               	movf	??___flge+3,w
  6239     087E  047A               	iorwf	??___flge+2,w
  6240     087F  0479               	iorwf	??___flge+1,w
  6241     0880  0478               	iorwf	??___flge,w
  6242     0881  1D03               	skipz
  6243     0882  2884               	goto	u4201
  6244     0883  2885               	goto	u4200
  6245     0884                     u4201:
  6246     0884  288D               	goto	l414
  6247     0885                     u4200:
  6248     0885                     l2540:
  6249     0885  3000               	movlw	0
  6250     0886  00F3               	movwf	___flge@ff1+3
  6251     0887  3000               	movlw	0
  6252     0888  00F2               	movwf	___flge@ff1+2
  6253     0889  3000               	movlw	0
  6254     088A  00F1               	movwf	___flge@ff1+1
  6255     088B  3000               	movlw	0
  6256     088C  00F0               	movwf	___flge@ff1
  6257     088D                     l414:
  6258     088D  3000               	movlw	0
  6259     088E  0574               	andwf	___flge@ff2,w
  6260     088F  00F8               	movwf	??___flge
  6261     0890  3000               	movlw	0
  6262     0891  0575               	andwf	___flge@ff2+1,w
  6263     0892  00F9               	movwf	??___flge+1
  6264     0893  3080               	movlw	128
  6265     0894  0576               	andwf	___flge@ff2+2,w
  6266     0895  00FA               	movwf	??___flge+2
  6267     0896  307F               	movlw	127
  6268     0897  0577               	andwf	___flge@ff2+3,w
  6269     0898  00FB               	movwf	??___flge+3
  6270     0899  087B               	movf	??___flge+3,w
  6271     089A  047A               	iorwf	??___flge+2,w
  6272     089B  0479               	iorwf	??___flge+1,w
  6273     089C  0478               	iorwf	??___flge,w
  6274     089D  1D03               	skipz
  6275     089E  28A0               	goto	u4211
  6276     089F  28A1               	goto	u4210
  6277     08A0                     u4211:
  6278     08A0  28A9               	goto	l2544
  6279     08A1                     u4210:
  6280     08A1                     l2542:
  6281     08A1  3000               	movlw	0
  6282     08A2  00F7               	movwf	___flge@ff2+3
  6283     08A3  3000               	movlw	0
  6284     08A4  00F6               	movwf	___flge@ff2+2
  6285     08A5  3000               	movlw	0
  6286     08A6  00F5               	movwf	___flge@ff2+1
  6287     08A7  3000               	movlw	0
  6288     08A8  00F4               	movwf	___flge@ff2
  6289     08A9                     l2544:
  6290     08A9  1FF3               	btfss	___flge@ff1+3,7
  6291     08AA  28AC               	goto	u4221
  6292     08AB  28AD               	goto	u4220
  6293     08AC                     u4221:
  6294     08AC  28D1               	goto	l2548
  6295     08AD                     u4220:
  6296     08AD                     l2546:
  6297     08AD  3000               	movlw	0
  6298     08AE  00F8               	movwf	??___flge
  6299     08AF  3000               	movlw	0
  6300     08B0  00F9               	movwf	??___flge+1
  6301     08B1  3000               	movlw	0
  6302     08B2  00FA               	movwf	??___flge+2
  6303     08B3  3080               	movlw	128
  6304     08B4  00FB               	movwf	??___flge+3
  6305     08B5  0870               	movf	___flge@ff1,w
  6306     08B6  02F8               	subwf	??___flge,f
  6307     08B7  0871               	movf	___flge@ff1+1,w
  6308     08B8  1C03               	skipc
  6309     08B9  0F71               	incfsz	___flge@ff1+1,w
  6310     08BA  28BC               	goto	u4231
  6311     08BB  28BD               	goto	u4232
  6312     08BC                     u4231:
  6313     08BC  02F9               	subwf	??___flge+1,f
  6314     08BD                     u4232:
  6315     08BD  0872               	movf	___flge@ff1+2,w
  6316     08BE  1C03               	skipc
  6317     08BF  0F72               	incfsz	___flge@ff1+2,w
  6318     08C0  28C2               	goto	u4233
  6319     08C1  28C3               	goto	u4234
  6320     08C2                     u4233:
  6321     08C2  02FA               	subwf	??___flge+2,f
  6322     08C3                     u4234:
  6323     08C3  0873               	movf	___flge@ff1+3,w
  6324     08C4  1C03               	skipc
  6325     08C5  0F73               	incfsz	___flge@ff1+3,w
  6326     08C6  28C8               	goto	u4235
  6327     08C7  28C9               	goto	u4236
  6328     08C8                     u4235:
  6329     08C8  02FB               	subwf	??___flge+3,f
  6330     08C9                     u4236:
  6331     08C9  087B               	movf	??___flge+3,w
  6332     08CA  00F3               	movwf	___flge@ff1+3
  6333     08CB  087A               	movf	??___flge+2,w
  6334     08CC  00F2               	movwf	___flge@ff1+2
  6335     08CD  0879               	movf	??___flge+1,w
  6336     08CE  00F1               	movwf	___flge@ff1+1
  6337     08CF  0878               	movf	??___flge,w
  6338     08D0  00F0               	movwf	___flge@ff1
  6339     08D1                     l2548:
  6340     08D1  1FF7               	btfss	___flge@ff2+3,7
  6341     08D2  28D4               	goto	u4241
  6342     08D3  28D5               	goto	u4240
  6343     08D4                     u4241:
  6344     08D4  28F9               	goto	l417
  6345     08D5                     u4240:
  6346     08D5                     l2550:
  6347     08D5  3000               	movlw	0
  6348     08D6  00F8               	movwf	??___flge
  6349     08D7  3000               	movlw	0
  6350     08D8  00F9               	movwf	??___flge+1
  6351     08D9  3000               	movlw	0
  6352     08DA  00FA               	movwf	??___flge+2
  6353     08DB  3080               	movlw	128
  6354     08DC  00FB               	movwf	??___flge+3
  6355     08DD  0874               	movf	___flge@ff2,w
  6356     08DE  02F8               	subwf	??___flge,f
  6357     08DF  0875               	movf	___flge@ff2+1,w
  6358     08E0  1C03               	skipc
  6359     08E1  0F75               	incfsz	___flge@ff2+1,w
  6360     08E2  28E4               	goto	u4251
  6361     08E3  28E5               	goto	u4252
  6362     08E4                     u4251:
  6363     08E4  02F9               	subwf	??___flge+1,f
  6364     08E5                     u4252:
  6365     08E5  0876               	movf	___flge@ff2+2,w
  6366     08E6  1C03               	skipc
  6367     08E7  0F76               	incfsz	___flge@ff2+2,w
  6368     08E8  28EA               	goto	u4253
  6369     08E9  28EB               	goto	u4254
  6370     08EA                     u4253:
  6371     08EA  02FA               	subwf	??___flge+2,f
  6372     08EB                     u4254:
  6373     08EB  0877               	movf	___flge@ff2+3,w
  6374     08EC  1C03               	skipc
  6375     08ED  0F77               	incfsz	___flge@ff2+3,w
  6376     08EE  28F0               	goto	u4255
  6377     08EF  28F1               	goto	u4256
  6378     08F0                     u4255:
  6379     08F0  02FB               	subwf	??___flge+3,f
  6380     08F1                     u4256:
  6381     08F1  087B               	movf	??___flge+3,w
  6382     08F2  00F7               	movwf	___flge@ff2+3
  6383     08F3  087A               	movf	??___flge+2,w
  6384     08F4  00F6               	movwf	___flge@ff2+2
  6385     08F5  0879               	movf	??___flge+1,w
  6386     08F6  00F5               	movwf	___flge@ff2+1
  6387     08F7  0878               	movf	??___flge,w
  6388     08F8  00F4               	movwf	___flge@ff2
  6389     08F9                     l417:
  6390     08F9  3080               	movlw	128
  6391     08FA  06F3               	xorwf	___flge@ff1+3,f
  6392     08FB  3080               	movlw	128
  6393     08FC  06F7               	xorwf	___flge@ff2+3,f
  6394     08FD  0877               	movf	___flge@ff2+3,w
  6395     08FE  0273               	subwf	___flge@ff1+3,w
  6396     08FF  1D03               	skipz
  6397     0900  290B               	goto	u4265
  6398     0901  0876               	movf	___flge@ff2+2,w
  6399     0902  0272               	subwf	___flge@ff1+2,w
  6400     0903  1D03               	skipz
  6401     0904  290B               	goto	u4265
  6402     0905  0875               	movf	___flge@ff2+1,w
  6403     0906  0271               	subwf	___flge@ff1+1,w
  6404     0907  1D03               	skipz
  6405     0908  290B               	goto	u4265
  6406     0909  0874               	movf	___flge@ff2,w
  6407     090A  0270               	subwf	___flge@ff1,w
  6408     090B                     u4265:
  6409     090B  1803               	skipnc
  6410     090C  290E               	goto	u4261
  6411     090D  290F               	goto	u4260
  6412     090E                     u4261:
  6413     090E  2911               	goto	l2554
  6414     090F                     u4260:
  6415     090F                     l2552:
  6416     090F  1003               	clrc
  6417     0910  2912               	goto	l422
  6418     0911                     l2554:
  6419     0911  1403               	setc
  6420     0912                     l422:
  6421     0912  0008               	return
  6422     0913                     __end_of___flge:
  6423                           
  6424                           	psect	text25
  6425     0197                     __ptext25:	
  6426 ;; *************** function ___fladd *****************
  6427 ;; Defined at:
  6428 ;;		line 10 in file "/Applications/microchip/xc8/v2.45/pic/sources/c99/common/sprcadd.c"
  6429 ;; Parameters:    Size  Location     Type
  6430 ;;  b               4   62[BANK0 ] long 
  6431 ;;  a               4   66[BANK0 ] long 
  6432 ;; Auto vars:     Size  Location     Type
  6433 ;;  grs             1    3[BANK1 ] unsigned char 
  6434 ;;  bexp            1    2[BANK1 ] unsigned char 
  6435 ;;  aexp            1    1[BANK1 ] unsigned char 
  6436 ;;  signs           1    0[BANK1 ] unsigned char 
  6437 ;; Return value:  Size  Location     Type
  6438 ;;                  4   62[BANK0 ] unsigned char 
  6439 ;; Registers used:
  6440 ;;		wreg, status,2, status,0, btemp+1
  6441 ;; Tracked objects:
  6442 ;;		On entry : 0/0
  6443 ;;		On exit  : 0/0
  6444 ;;		Unchanged: 0/0
  6445 ;; Data sizes:     COMMON   BANK0   BANK1   BANK3   BANK2
  6446 ;;      Params:         0       8       0       0       0
  6447 ;;      Locals:         0       0       4       0       0
  6448 ;;      Temps:          0       8       0       0       0
  6449 ;;      Totals:         0      16       4       0       0
  6450 ;;Total ram usage:       20 bytes
  6451 ;; Hardware stack levels used: 1
  6452 ;; This function calls:
  6453 ;;		Nothing
  6454 ;; This function is called by:
  6455 ;;		_main
  6456 ;; This function uses a non-reentrant model
  6457 ;;
  6458                           
  6459     0197                     ___fladd:	
  6460                           ;psect for function ___fladd
  6461                           
  6462     0197                     l2594:	
  6463                           ;incstack = 0
  6464                           ; Regs used in ___fladd: [wreg+status,2+status,0+btemp+1]
  6465                           
  6466     0197  1283               	bcf	3,5	;RP0=0, select bank0
  6467     0198  1303               	bcf	3,6	;RP1=0, select bank0
  6468     0199  0861               	movf	___fladd@b+3,w
  6469     019A  3980               	andlw	128
  6470     019B  1683               	bsf	3,5	;RP0=1, select bank1
  6471     019C  1303               	bcf	3,6	;RP1=0, select bank1
  6472     019D  00A0               	movwf	___fladd@signs^(0+128)
  6473     019E                     l2596:
  6474     019E  1283               	bcf	3,5	;RP0=0, select bank0
  6475     019F  1303               	bcf	3,6	;RP1=0, select bank0
  6476     01A0  0861               	movf	___fladd@b+3,w
  6477     01A1  00E6               	movwf	??___fladd
  6478     01A2  0766               	addwf	??___fladd,w
  6479     01A3  1683               	bsf	3,5	;RP0=1, select bank1
  6480     01A4  1303               	bcf	3,6	;RP1=0, select bank1
  6481     01A5  00A2               	movwf	___fladd@bexp^(0+128)
  6482     01A6                     l2598:
  6483     01A6  1283               	bcf	3,5	;RP0=0, select bank0
  6484     01A7  1303               	bcf	3,6	;RP1=0, select bank0
  6485     01A8  1FE0               	btfss	___fladd@b+2,7
  6486     01A9  29AB               	goto	u4371
  6487     01AA  29AC               	goto	u4370
  6488     01AB                     u4371:
  6489     01AB  29AF               	goto	l2602
  6490     01AC                     u4370:
  6491     01AC                     l2600:
  6492     01AC  1683               	bsf	3,5	;RP0=1, select bank1
  6493     01AD  1303               	bcf	3,6	;RP1=0, select bank1
  6494     01AE  1422               	bsf	___fladd@bexp^(0+128),0
  6495     01AF                     l2602:
  6496     01AF  1683               	bsf	3,5	;RP0=1, select bank1
  6497     01B0  1303               	bcf	3,6	;RP1=0, select bank1
  6498     01B1  0822               	movf	___fladd@bexp^(0+128),w
  6499     01B2  1903               	btfsc	3,2
  6500     01B3  29B5               	goto	u4381
  6501     01B4  29B6               	goto	u4380
  6502     01B5                     u4381:
  6503     01B5  29C9               	goto	l2612
  6504     01B6                     u4380:
  6505     01B6                     l2604:
  6506     01B6  0A22               	incf	___fladd@bexp^(0+128),w
  6507     01B7  1D03               	btfss	3,2
  6508     01B8  29BA               	goto	u4391
  6509     01B9  29BB               	goto	u4390
  6510     01BA                     u4391:
  6511     01BA  29C5               	goto	l2608
  6512     01BB                     u4390:
  6513     01BB                     l2606:
  6514     01BB  3000               	movlw	0
  6515     01BC  1283               	bcf	3,5	;RP0=0, select bank0
  6516     01BD  1303               	bcf	3,6	;RP1=0, select bank0
  6517     01BE  00E1               	movwf	___fladd@b+3
  6518     01BF  3000               	movlw	0
  6519     01C0  00E0               	movwf	___fladd@b+2
  6520     01C1  3000               	movlw	0
  6521     01C2  00DF               	movwf	___fladd@b+1
  6522     01C3  3000               	movlw	0
  6523     01C4  00DE               	movwf	___fladd@b
  6524     01C5                     l2608:
  6525     01C5  1283               	bcf	3,5	;RP0=0, select bank0
  6526     01C6  17E0               	bsf	___fladd@b+2,7
  6527     01C7                     l2610:
  6528     01C7  01E1               	clrf	___fladd@b+3
  6529     01C8  29D3               	goto	l2614
  6530     01C9                     l2612:
  6531     01C9  3000               	movlw	0
  6532     01CA  1283               	bcf	3,5	;RP0=0, select bank0
  6533     01CB  1303               	bcf	3,6	;RP1=0, select bank0
  6534     01CC  00E1               	movwf	___fladd@b+3
  6535     01CD  3000               	movlw	0
  6536     01CE  00E0               	movwf	___fladd@b+2
  6537     01CF  3000               	movlw	0
  6538     01D0  00DF               	movwf	___fladd@b+1
  6539     01D1  3000               	movlw	0
  6540     01D2  00DE               	movwf	___fladd@b
  6541     01D3                     l2614:
  6542     01D3  0865               	movf	___fladd@a+3,w
  6543     01D4  3980               	andlw	128
  6544     01D5  1683               	bsf	3,5	;RP0=1, select bank1
  6545     01D6  1303               	bcf	3,6	;RP1=0, select bank1
  6546     01D7  00A1               	movwf	___fladd@aexp^(0+128)
  6547     01D8                     l2616:
  6548     01D8  0821               	movf	___fladd@aexp^(0+128),w
  6549     01D9  0620               	xorwf	___fladd@signs^(0+128),w
  6550     01DA  1903               	skipnz
  6551     01DB  29DD               	goto	u4401
  6552     01DC  29DE               	goto	u4400
  6553     01DD                     u4401:
  6554     01DD  29DF               	goto	l2620
  6555     01DE                     u4400:
  6556     01DE                     l2618:
  6557     01DE  1720               	bsf	___fladd@signs^(0+128),6
  6558     01DF                     l2620:
  6559     01DF  1283               	bcf	3,5	;RP0=0, select bank0
  6560     01E0  1303               	bcf	3,6	;RP1=0, select bank0
  6561     01E1  0865               	movf	___fladd@a+3,w
  6562     01E2  00E6               	movwf	??___fladd
  6563     01E3  0766               	addwf	??___fladd,w
  6564     01E4  1683               	bsf	3,5	;RP0=1, select bank1
  6565     01E5  1303               	bcf	3,6	;RP1=0, select bank1
  6566     01E6  00A1               	movwf	___fladd@aexp^(0+128)
  6567     01E7                     l2622:
  6568     01E7  1283               	bcf	3,5	;RP0=0, select bank0
  6569     01E8  1303               	bcf	3,6	;RP1=0, select bank0
  6570     01E9  1FE4               	btfss	___fladd@a+2,7
  6571     01EA  29EC               	goto	u4411
  6572     01EB  29ED               	goto	u4410
  6573     01EC                     u4411:
  6574     01EC  29F0               	goto	l2626
  6575     01ED                     u4410:
  6576     01ED                     l2624:
  6577     01ED  1683               	bsf	3,5	;RP0=1, select bank1
  6578     01EE  1303               	bcf	3,6	;RP1=0, select bank1
  6579     01EF  1421               	bsf	___fladd@aexp^(0+128),0
  6580     01F0                     l2626:
  6581     01F0  1683               	bsf	3,5	;RP0=1, select bank1
  6582     01F1  1303               	bcf	3,6	;RP1=0, select bank1
  6583     01F2  0821               	movf	___fladd@aexp^(0+128),w
  6584     01F3  1903               	btfsc	3,2
  6585     01F4  29F6               	goto	u4421
  6586     01F5  29F7               	goto	u4420
  6587     01F6                     u4421:
  6588     01F6  2A0A               	goto	l2636
  6589     01F7                     u4420:
  6590     01F7                     l2628:
  6591     01F7  0A21               	incf	___fladd@aexp^(0+128),w
  6592     01F8  1D03               	btfss	3,2
  6593     01F9  29FB               	goto	u4431
  6594     01FA  29FC               	goto	u4430
  6595     01FB                     u4431:
  6596     01FB  2A06               	goto	l2632
  6597     01FC                     u4430:
  6598     01FC                     l2630:
  6599     01FC  3000               	movlw	0
  6600     01FD  1283               	bcf	3,5	;RP0=0, select bank0
  6601     01FE  1303               	bcf	3,6	;RP1=0, select bank0
  6602     01FF  00E5               	movwf	___fladd@a+3
  6603     0200  3000               	movlw	0
  6604     0201  00E4               	movwf	___fladd@a+2
  6605     0202  3000               	movlw	0
  6606     0203  00E3               	movwf	___fladd@a+1
  6607     0204  3000               	movlw	0
  6608     0205  00E2               	movwf	___fladd@a
  6609     0206                     l2632:
  6610     0206  1283               	bcf	3,5	;RP0=0, select bank0
  6611     0207  17E4               	bsf	___fladd@a+2,7
  6612     0208                     l2634:
  6613     0208  01E5               	clrf	___fladd@a+3
  6614     0209  2A14               	goto	l537
  6615     020A                     l2636:
  6616     020A  3000               	movlw	0
  6617     020B  1283               	bcf	3,5	;RP0=0, select bank0
  6618     020C  1303               	bcf	3,6	;RP1=0, select bank0
  6619     020D  00E5               	movwf	___fladd@a+3
  6620     020E  3000               	movlw	0
  6621     020F  00E4               	movwf	___fladd@a+2
  6622     0210  3000               	movlw	0
  6623     0211  00E3               	movwf	___fladd@a+1
  6624     0212  3000               	movlw	0
  6625     0213  00E2               	movwf	___fladd@a
  6626     0214                     l537:
  6627     0214  1683               	bsf	3,5	;RP0=1, select bank1
  6628     0215  1303               	bcf	3,6	;RP1=0, select bank1
  6629     0216  0822               	movf	___fladd@bexp^(0+128),w
  6630     0217  0221               	subwf	___fladd@aexp^(0+128),w
  6631     0218  1803               	skipnc
  6632     0219  2A1B               	goto	u4441
  6633     021A  2A1C               	goto	u4440
  6634     021B                     u4441:
  6635     021B  2A68               	goto	l2672
  6636     021C                     u4440:
  6637     021C                     l2638:
  6638     021C  1F20               	btfss	___fladd@signs^(0+128),6
  6639     021D  2A1F               	goto	u4451
  6640     021E  2A20               	goto	u4450
  6641     021F                     u4451:
  6642     021F  2A28               	goto	l2642
  6643     0220                     u4450:
  6644     0220                     l2640:
  6645     0220  3080               	movlw	128
  6646     0221  1283               	bcf	3,5	;RP0=0, select bank0
  6647     0222  1303               	bcf	3,6	;RP1=0, select bank0
  6648     0223  00E6               	movwf	??___fladd
  6649     0224  0866               	movf	??___fladd,w
  6650     0225  1683               	bsf	3,5	;RP0=1, select bank1
  6651     0226  1303               	bcf	3,6	;RP1=0, select bank1
  6652     0227  06A0               	xorwf	___fladd@signs^(0+128),f
  6653     0228                     l2642:
  6654     0228  0822               	movf	___fladd@bexp^(0+128),w
  6655     0229  00A3               	movwf	___fladd@grs^(0+128)
  6656     022A                     l2644:
  6657     022A  0821               	movf	___fladd@aexp^(0+128),w
  6658     022B  00A2               	movwf	___fladd@bexp^(0+128)
  6659     022C                     l2646:
  6660     022C  0823               	movf	___fladd@grs^(0+128),w
  6661     022D  00A1               	movwf	___fladd@aexp^(0+128)
  6662     022E                     l2648:
  6663     022E  1283               	bcf	3,5	;RP0=0, select bank0
  6664     022F  1303               	bcf	3,6	;RP1=0, select bank0
  6665     0230  085E               	movf	___fladd@b,w
  6666     0231  1683               	bsf	3,5	;RP0=1, select bank1
  6667     0232  1303               	bcf	3,6	;RP1=0, select bank1
  6668     0233  00A3               	movwf	___fladd@grs^(0+128)
  6669     0234                     l2650:
  6670     0234  1283               	bcf	3,5	;RP0=0, select bank0
  6671     0235  1303               	bcf	3,6	;RP1=0, select bank0
  6672     0236  0862               	movf	___fladd@a,w
  6673     0237  00DE               	movwf	___fladd@b
  6674     0238                     l2652:
  6675     0238  1683               	bsf	3,5	;RP0=1, select bank1
  6676     0239  1303               	bcf	3,6	;RP1=0, select bank1
  6677     023A  0823               	movf	___fladd@grs^(0+128),w
  6678     023B  1283               	bcf	3,5	;RP0=0, select bank0
  6679     023C  1303               	bcf	3,6	;RP1=0, select bank0
  6680     023D  00E2               	movwf	___fladd@a
  6681     023E                     l2654:
  6682     023E  085F               	movf	___fladd@b+1,w
  6683     023F  1683               	bsf	3,5	;RP0=1, select bank1
  6684     0240  1303               	bcf	3,6	;RP1=0, select bank1
  6685     0241  00A3               	movwf	___fladd@grs^(0+128)
  6686     0242                     l2656:
  6687     0242  1283               	bcf	3,5	;RP0=0, select bank0
  6688     0243  1303               	bcf	3,6	;RP1=0, select bank0
  6689     0244  0863               	movf	___fladd@a+1,w
  6690     0245  00DF               	movwf	___fladd@b+1
  6691     0246                     l2658:
  6692     0246  1683               	bsf	3,5	;RP0=1, select bank1
  6693     0247  1303               	bcf	3,6	;RP1=0, select bank1
  6694     0248  0823               	movf	___fladd@grs^(0+128),w
  6695     0249  1283               	bcf	3,5	;RP0=0, select bank0
  6696     024A  1303               	bcf	3,6	;RP1=0, select bank0
  6697     024B  00E3               	movwf	___fladd@a+1
  6698     024C                     l2660:
  6699     024C  0860               	movf	___fladd@b+2,w
  6700     024D  1683               	bsf	3,5	;RP0=1, select bank1
  6701     024E  1303               	bcf	3,6	;RP1=0, select bank1
  6702     024F  00A3               	movwf	___fladd@grs^(0+128)
  6703     0250                     l2662:
  6704     0250  1283               	bcf	3,5	;RP0=0, select bank0
  6705     0251  1303               	bcf	3,6	;RP1=0, select bank0
  6706     0252  0864               	movf	___fladd@a+2,w
  6707     0253  00E0               	movwf	___fladd@b+2
  6708     0254                     l2664:
  6709     0254  1683               	bsf	3,5	;RP0=1, select bank1
  6710     0255  1303               	bcf	3,6	;RP1=0, select bank1
  6711     0256  0823               	movf	___fladd@grs^(0+128),w
  6712     0257  1283               	bcf	3,5	;RP0=0, select bank0
  6713     0258  1303               	bcf	3,6	;RP1=0, select bank0
  6714     0259  00E4               	movwf	___fladd@a+2
  6715     025A                     l2666:
  6716     025A  0861               	movf	___fladd@b+3,w
  6717     025B  1683               	bsf	3,5	;RP0=1, select bank1
  6718     025C  1303               	bcf	3,6	;RP1=0, select bank1
  6719     025D  00A3               	movwf	___fladd@grs^(0+128)
  6720     025E                     l2668:
  6721     025E  1283               	bcf	3,5	;RP0=0, select bank0
  6722     025F  1303               	bcf	3,6	;RP1=0, select bank0
  6723     0260  0865               	movf	___fladd@a+3,w
  6724     0261  00E1               	movwf	___fladd@b+3
  6725     0262                     l2670:
  6726     0262  1683               	bsf	3,5	;RP0=1, select bank1
  6727     0263  1303               	bcf	3,6	;RP1=0, select bank1
  6728     0264  0823               	movf	___fladd@grs^(0+128),w
  6729     0265  1283               	bcf	3,5	;RP0=0, select bank0
  6730     0266  1303               	bcf	3,6	;RP1=0, select bank0
  6731     0267  00E5               	movwf	___fladd@a+3
  6732     0268                     l2672:
  6733     0268  1683               	bsf	3,5	;RP0=1, select bank1
  6734     0269  1303               	bcf	3,6	;RP1=0, select bank1
  6735     026A  01A3               	clrf	___fladd@grs^(0+128)
  6736     026B                     l2674:
  6737     026B  0821               	movf	___fladd@aexp^(0+128),w
  6738     026C  1283               	bcf	3,5	;RP0=0, select bank0
  6739     026D  1303               	bcf	3,6	;RP1=0, select bank0
  6740     026E  00E6               	movwf	??___fladd
  6741     026F  01E7               	clrf	??___fladd+1
  6742     0270  0867               	movf	??___fladd+1,w
  6743     0271  00E9               	movwf	??___fladd+3
  6744     0272  1683               	bsf	3,5	;RP0=1, select bank1
  6745     0273  1303               	bcf	3,6	;RP1=0, select bank1
  6746     0274  0822               	movf	___fladd@bexp^(0+128),w
  6747     0275  1283               	bcf	3,5	;RP0=0, select bank0
  6748     0276  1303               	bcf	3,6	;RP1=0, select bank0
  6749     0277  0266               	subwf	??___fladd,w
  6750     0278  00E8               	movwf	??___fladd+2
  6751     0279  1C03               	skipc
  6752     027A  03E9               	decf	??___fladd+3,f
  6753     027B  0869               	movf	??___fladd+3,w
  6754     027C  3A80               	xorlw	128
  6755     027D  00FF               	movwf	btemp+1
  6756     027E  3080               	movlw	128
  6757     027F  027F               	subwf	btemp+1,w
  6758     0280  1D03               	skipz
  6759     0281  2A84               	goto	u4465
  6760     0282  301A               	movlw	26
  6761     0283  0268               	subwf	??___fladd+2,w
  6762     0284                     u4465:
  6763     0284  1C03               	skipc
  6764     0285  2A87               	goto	u4461
  6765     0286  2A88               	goto	u4460
  6766     0287                     u4461:
  6767     0287  2AD0               	goto	l2690
  6768     0288                     u4460:
  6769     0288                     l2676:
  6770     0288  1283               	bcf	3,5	;RP0=0, select bank0
  6771     0289  1303               	bcf	3,6	;RP1=0, select bank0
  6772     028A  0861               	movf	___fladd@b+3,w
  6773     028B  0460               	iorwf	___fladd@b+2,w
  6774     028C  045F               	iorwf	___fladd@b+1,w
  6775     028D  045E               	iorwf	___fladd@b,w
  6776     028E  1D03               	skipz
  6777     028F  2A91               	goto	u4471
  6778     0290  2A93               	goto	u4470
  6779     0291                     u4471:
  6780     0291  3001               	movlw	1
  6781     0292  2A94               	goto	u4480
  6782     0293                     u4470:
  6783     0293  3000               	movlw	0
  6784     0294                     u4480:
  6785     0294  1683               	bsf	3,5	;RP0=1, select bank1
  6786     0295  1303               	bcf	3,6	;RP1=0, select bank1
  6787     0296  00A3               	movwf	___fladd@grs^(0+128)
  6788     0297  3000               	movlw	0
  6789     0298  1283               	bcf	3,5	;RP0=0, select bank0
  6790     0299  1303               	bcf	3,6	;RP1=0, select bank0
  6791     029A  00E1               	movwf	___fladd@b+3
  6792     029B  3000               	movlw	0
  6793     029C  00E0               	movwf	___fladd@b+2
  6794     029D  3000               	movlw	0
  6795     029E  00DF               	movwf	___fladd@b+1
  6796     029F  3000               	movlw	0
  6797     02A0  00DE               	movwf	___fladd@b
  6798     02A1  1683               	bsf	3,5	;RP0=1, select bank1
  6799     02A2  1303               	bcf	3,6	;RP1=0, select bank1
  6800     02A3  0821               	movf	___fladd@aexp^(0+128),w
  6801     02A4  00A2               	movwf	___fladd@bexp^(0+128)
  6802     02A5  2AD8               	goto	l541
  6803     02A6                     l543:
  6804     02A6  1C23               	btfss	___fladd@grs^(0+128),0
  6805     02A7  2AA9               	goto	u4491
  6806     02A8  2AAA               	goto	u4490
  6807     02A9                     u4491:
  6808     02A9  2AB5               	goto	l2680
  6809     02AA                     u4490:
  6810     02AA                     l2678:
  6811     02AA  0823               	movf	___fladd@grs^(0+128),w
  6812     02AB  1283               	bcf	3,5	;RP0=0, select bank0
  6813     02AC  1303               	bcf	3,6	;RP1=0, select bank0
  6814     02AD  00E6               	movwf	??___fladd
  6815     02AE  1003               	clrc
  6816     02AF  0C66               	rrf	??___fladd,w
  6817     02B0  3801               	iorlw	1
  6818     02B1  1683               	bsf	3,5	;RP0=1, select bank1
  6819     02B2  1303               	bcf	3,6	;RP1=0, select bank1
  6820     02B3  00A3               	movwf	___fladd@grs^(0+128)
  6821     02B4  2AB7               	goto	l2682
  6822     02B5                     l2680:
  6823     02B5  1003               	clrc
  6824     02B6  0CA3               	rrf	___fladd@grs^(0+128),f
  6825     02B7                     l2682:
  6826     02B7  1283               	bcf	3,5	;RP0=0, select bank0
  6827     02B8  1303               	bcf	3,6	;RP1=0, select bank0
  6828     02B9  1C5E               	btfss	___fladd@b,0
  6829     02BA  2ABC               	goto	u4501
  6830     02BB  2ABD               	goto	u4500
  6831     02BC                     u4501:
  6832     02BC  2AC0               	goto	l2686
  6833     02BD                     u4500:
  6834     02BD                     l2684:
  6835     02BD  1683               	bsf	3,5	;RP0=1, select bank1
  6836     02BE  1303               	bcf	3,6	;RP1=0, select bank1
  6837     02BF  17A3               	bsf	___fladd@grs^(0+128),7
  6838     02C0                     l2686:
  6839     02C0  3001               	movlw	1
  6840     02C1  1283               	bcf	3,5	;RP0=0, select bank0
  6841     02C2  00E6               	movwf	??___fladd
  6842     02C3                     u4515:
  6843     02C3  0D61               	rlf	___fladd@b+3,w
  6844     02C4  0CE1               	rrf	___fladd@b+3,f
  6845     02C5  0CE0               	rrf	___fladd@b+2,f
  6846     02C6  0CDF               	rrf	___fladd@b+1,f
  6847     02C7  0CDE               	rrf	___fladd@b,f
  6848     02C8  0BE6               	decfsz	??___fladd& (0+127),f
  6849     02C9  2AC3               	goto	u4515
  6850     02CA                     l2688:
  6851     02CA  3001               	movlw	1
  6852     02CB  00E6               	movwf	??___fladd
  6853     02CC  0866               	movf	??___fladd,w
  6854     02CD  1683               	bsf	3,5	;RP0=1, select bank1
  6855     02CE  1303               	bcf	3,6	;RP1=0, select bank1
  6856     02CF  07A2               	addwf	___fladd@bexp^(0+128),f
  6857     02D0                     l2690:
  6858     02D0  1683               	bsf	3,5	;RP0=1, select bank1
  6859     02D1  1303               	bcf	3,6	;RP1=0, select bank1
  6860     02D2  0821               	movf	___fladd@aexp^(0+128),w
  6861     02D3  0222               	subwf	___fladd@bexp^(0+128),w
  6862     02D4  1C03               	skipc
  6863     02D5  2AD7               	goto	u4521
  6864     02D6  2AD8               	goto	u4520
  6865     02D7                     u4521:
  6866     02D7  2AA6               	goto	l543
  6867     02D8                     u4520:
  6868     02D8                     l541:
  6869     02D8  1B20               	btfsc	___fladd@signs^(0+128),6
  6870     02D9  2ADB               	goto	u4531
  6871     02DA  2ADC               	goto	u4530
  6872     02DB                     u4531:
  6873     02DB  2B36               	goto	l2716
  6874     02DC                     u4530:
  6875     02DC                     l2692:
  6876     02DC  0822               	movf	___fladd@bexp^(0+128),w
  6877     02DD  1D03               	btfss	3,2
  6878     02DE  2AE0               	goto	u4541
  6879     02DF  2AE1               	goto	u4540
  6880     02E0                     u4541:
  6881     02E0  2AEC               	goto	l2698
  6882     02E1                     u4540:
  6883     02E1                     l2694:
  6884     02E1  3000               	movlw	0
  6885     02E2  1283               	bcf	3,5	;RP0=0, select bank0
  6886     02E3  1303               	bcf	3,6	;RP1=0, select bank0
  6887     02E4  00E1               	movwf	?___fladd+3
  6888     02E5  3000               	movlw	0
  6889     02E6  00E0               	movwf	?___fladd+2
  6890     02E7  3000               	movlw	0
  6891     02E8  00DF               	movwf	?___fladd+1
  6892     02E9  3000               	movlw	0
  6893     02EA  00DE               	movwf	?___fladd
  6894     02EB  2C96               	goto	l550
  6895     02EC                     l2698:
  6896     02EC  1283               	bcf	3,5	;RP0=0, select bank0
  6897     02ED  1303               	bcf	3,6	;RP1=0, select bank0
  6898     02EE  0862               	movf	___fladd@a,w
  6899     02EF  07DE               	addwf	___fladd@b,f
  6900     02F0  0863               	movf	___fladd@a+1,w
  6901     02F1  1103               	clrz
  6902     02F2  1803               	skipnc
  6903     02F3  3E01               	addlw	1
  6904     02F4  1903               	skipnz
  6905     02F5  2AF7               	goto	u4551
  6906     02F6  07DF               	addwf	___fladd@b+1,f
  6907     02F7                     u4551:
  6908     02F7  0864               	movf	___fladd@a+2,w
  6909     02F8  1103               	clrz
  6910     02F9  1803               	skipnc
  6911     02FA  3E01               	addlw	1
  6912     02FB  1903               	skipnz
  6913     02FC  2AFE               	goto	u4552
  6914     02FD  07E0               	addwf	___fladd@b+2,f
  6915     02FE                     u4552:
  6916     02FE  0865               	movf	___fladd@a+3,w
  6917     02FF  1103               	clrz
  6918     0300  1803               	skipnc
  6919     0301  3E01               	addlw	1
  6920     0302  1903               	skipnz
  6921     0303  2B05               	goto	u4553
  6922     0304  07E1               	addwf	___fladd@b+3,f
  6923     0305                     u4553:
  6924     0305                     l2700:
  6925     0305  1C61               	btfss	___fladd@b+3,0
  6926     0306  2B08               	goto	u4561
  6927     0307  2B09               	goto	u4560
  6928     0308                     u4561:
  6929     0308  2BFC               	goto	l2750
  6930     0309                     u4560:
  6931     0309                     l2702:
  6932     0309  1683               	bsf	3,5	;RP0=1, select bank1
  6933     030A  1303               	bcf	3,6	;RP1=0, select bank1
  6934     030B  1C23               	btfss	___fladd@grs^(0+128),0
  6935     030C  2B0E               	goto	u4571
  6936     030D  2B0F               	goto	u4570
  6937     030E                     u4571:
  6938     030E  2B1A               	goto	l2706
  6939     030F                     u4570:
  6940     030F                     l2704:
  6941     030F  0823               	movf	___fladd@grs^(0+128),w
  6942     0310  1283               	bcf	3,5	;RP0=0, select bank0
  6943     0311  1303               	bcf	3,6	;RP1=0, select bank0
  6944     0312  00E6               	movwf	??___fladd
  6945     0313  1003               	clrc
  6946     0314  0C66               	rrf	??___fladd,w
  6947     0315  3801               	iorlw	1
  6948     0316  1683               	bsf	3,5	;RP0=1, select bank1
  6949     0317  1303               	bcf	3,6	;RP1=0, select bank1
  6950     0318  00A3               	movwf	___fladd@grs^(0+128)
  6951     0319  2B1C               	goto	l2708
  6952     031A                     l2706:
  6953     031A  1003               	clrc
  6954     031B  0CA3               	rrf	___fladd@grs^(0+128),f
  6955     031C                     l2708:
  6956     031C  1283               	bcf	3,5	;RP0=0, select bank0
  6957     031D  1303               	bcf	3,6	;RP1=0, select bank0
  6958     031E  1C5E               	btfss	___fladd@b,0
  6959     031F  2B21               	goto	u4581
  6960     0320  2B22               	goto	u4580
  6961     0321                     u4581:
  6962     0321  2B25               	goto	l2712
  6963     0322                     u4580:
  6964     0322                     l2710:
  6965     0322  1683               	bsf	3,5	;RP0=1, select bank1
  6966     0323  1303               	bcf	3,6	;RP1=0, select bank1
  6967     0324  17A3               	bsf	___fladd@grs^(0+128),7
  6968     0325                     l2712:
  6969     0325  3001               	movlw	1
  6970     0326  1283               	bcf	3,5	;RP0=0, select bank0
  6971     0327  00E6               	movwf	??___fladd
  6972     0328                     u4595:
  6973     0328  0D61               	rlf	___fladd@b+3,w
  6974     0329  0CE1               	rrf	___fladd@b+3,f
  6975     032A  0CE0               	rrf	___fladd@b+2,f
  6976     032B  0CDF               	rrf	___fladd@b+1,f
  6977     032C  0CDE               	rrf	___fladd@b,f
  6978     032D  0BE6               	decfsz	??___fladd& (0+127),f
  6979     032E  2B28               	goto	u4595
  6980     032F                     l2714:
  6981     032F  3001               	movlw	1
  6982     0330  00E6               	movwf	??___fladd
  6983     0331  0866               	movf	??___fladd,w
  6984     0332  1683               	bsf	3,5	;RP0=1, select bank1
  6985     0333  1303               	bcf	3,6	;RP1=0, select bank1
  6986     0334  07A2               	addwf	___fladd@bexp^(0+128),f
  6987     0335  2BFC               	goto	l2750
  6988     0336                     l2716:
  6989     0336  1283               	bcf	3,5	;RP0=0, select bank0
  6990     0337  1303               	bcf	3,6	;RP1=0, select bank0
  6991     0338  0861               	movf	___fladd@b+3,w
  6992     0339  3A80               	xorlw	128
  6993     033A  00FF               	movwf	btemp+1
  6994     033B  0865               	movf	___fladd@a+3,w
  6995     033C  3A80               	xorlw	128
  6996     033D  027F               	subwf	btemp+1,w
  6997     033E  1D03               	skipz
  6998     033F  2B4A               	goto	u4603
  6999     0340  0864               	movf	___fladd@a+2,w
  7000     0341  0260               	subwf	___fladd@b+2,w
  7001     0342  1D03               	skipz
  7002     0343  2B4A               	goto	u4603
  7003     0344  0863               	movf	___fladd@a+1,w
  7004     0345  025F               	subwf	___fladd@b+1,w
  7005     0346  1D03               	skipz
  7006     0347  2B4A               	goto	u4603
  7007     0348  0862               	movf	___fladd@a,w
  7008     0349  025E               	subwf	___fladd@b,w
  7009     034A                     u4603:
  7010     034A  1803               	skipnc
  7011     034B  2B4D               	goto	u4601
  7012     034C  2B4E               	goto	u4600
  7013     034D                     u4601:
  7014     034D  2BAA               	goto	l2726
  7015     034E                     u4600:
  7016     034E                     l2718:
  7017     034E  30FF               	movlw	255
  7018     034F  00E6               	movwf	??___fladd
  7019     0350  30FF               	movlw	255
  7020     0351  00E7               	movwf	??___fladd+1
  7021     0352  30FF               	movlw	255
  7022     0353  00E8               	movwf	??___fladd+2
  7023     0354  30FF               	movlw	255
  7024     0355  00E9               	movwf	??___fladd+3
  7025     0356  0862               	movf	___fladd@a,w
  7026     0357  00EA               	movwf	??___fladd+4
  7027     0358  0863               	movf	___fladd@a+1,w
  7028     0359  00EB               	movwf	??___fladd+5
  7029     035A  0864               	movf	___fladd@a+2,w
  7030     035B  00EC               	movwf	??___fladd+6
  7031     035C  0865               	movf	___fladd@a+3,w
  7032     035D  00ED               	movwf	??___fladd+7
  7033     035E  085E               	movf	___fladd@b,w
  7034     035F  02EA               	subwf	??___fladd+4,f
  7035     0360  085F               	movf	___fladd@b+1,w
  7036     0361  1C03               	skipc
  7037     0362  0F5F               	incfsz	___fladd@b+1,w
  7038     0363  2B65               	goto	u4611
  7039     0364  2B66               	goto	u4612
  7040     0365                     u4611:
  7041     0365  02EB               	subwf	??___fladd+5,f
  7042     0366                     u4612:
  7043     0366  0860               	movf	___fladd@b+2,w
  7044     0367  1C03               	skipc
  7045     0368  0F60               	incfsz	___fladd@b+2,w
  7046     0369  2B6B               	goto	u4613
  7047     036A  2B6C               	goto	u4614
  7048     036B                     u4613:
  7049     036B  02EC               	subwf	??___fladd+6,f
  7050     036C                     u4614:
  7051     036C  0861               	movf	___fladd@b+3,w
  7052     036D  1C03               	skipc
  7053     036E  0F61               	incfsz	___fladd@b+3,w
  7054     036F  2B71               	goto	u4615
  7055     0370  2B72               	goto	u4616
  7056     0371                     u4615:
  7057     0371  02ED               	subwf	??___fladd+7,f
  7058     0372                     u4616:
  7059     0372  086A               	movf	??___fladd+4,w
  7060     0373  07E6               	addwf	??___fladd,f
  7061     0374  086B               	movf	??___fladd+5,w
  7062     0375  1803               	skipnc
  7063     0376  0F6B               	incfsz	??___fladd+5,w
  7064     0377  2B79               	goto	u4620
  7065     0378  2B7A               	goto	u4621
  7066     0379                     u4620:
  7067     0379  07E7               	addwf	??___fladd+1,f
  7068     037A                     u4621:
  7069     037A  086C               	movf	??___fladd+6,w
  7070     037B  1803               	skipnc
  7071     037C  0F6C               	incfsz	??___fladd+6,w
  7072     037D  2B7F               	goto	u4622
  7073     037E  2B80               	goto	u4623
  7074     037F                     u4622:
  7075     037F  07E8               	addwf	??___fladd+2,f
  7076     0380                     u4623:
  7077     0380  086D               	movf	??___fladd+7,w
  7078     0381  1803               	skipnc
  7079     0382  0A6D               	incf	??___fladd+7,w
  7080     0383  07E9               	addwf	??___fladd+3,f
  7081     0384  0869               	movf	??___fladd+3,w
  7082     0385  00E1               	movwf	___fladd@b+3
  7083     0386  0868               	movf	??___fladd+2,w
  7084     0387  00E0               	movwf	___fladd@b+2
  7085     0388  0867               	movf	??___fladd+1,w
  7086     0389  00DF               	movwf	___fladd@b+1
  7087     038A  0866               	movf	??___fladd,w
  7088     038B  00DE               	movwf	___fladd@b
  7089     038C                     l2720:
  7090     038C  3080               	movlw	128
  7091     038D  00E6               	movwf	??___fladd
  7092     038E  0866               	movf	??___fladd,w
  7093     038F  1683               	bsf	3,5	;RP0=1, select bank1
  7094     0390  1303               	bcf	3,6	;RP1=0, select bank1
  7095     0391  06A0               	xorwf	___fladd@signs^(0+128),f
  7096     0392  09A3               	comf	___fladd@grs^(0+128),f
  7097     0393  0AA3               	incf	___fladd@grs^(0+128),f
  7098     0394                     l2722:
  7099     0394  0823               	movf	___fladd@grs^(0+128),w
  7100     0395  1D03               	btfss	3,2
  7101     0396  2B98               	goto	u4631
  7102     0397  2B99               	goto	u4630
  7103     0398                     u4631:
  7104     0398  2BB8               	goto	l558
  7105     0399                     u4630:
  7106     0399                     l2724:
  7107     0399  3001               	movlw	1
  7108     039A  1283               	bcf	3,5	;RP0=0, select bank0
  7109     039B  1303               	bcf	3,6	;RP1=0, select bank0
  7110     039C  07DE               	addwf	___fladd@b,f
  7111     039D  3000               	movlw	0
  7112     039E  1803               	skipnc
  7113     039F  3001               	movlw	1
  7114     03A0  07DF               	addwf	___fladd@b+1,f
  7115     03A1  3000               	movlw	0
  7116     03A2  1803               	skipnc
  7117     03A3  3001               	movlw	1
  7118     03A4  07E0               	addwf	___fladd@b+2,f
  7119     03A5  3000               	movlw	0
  7120     03A6  1803               	skipnc
  7121     03A7  3001               	movlw	1
  7122     03A8  07E1               	addwf	___fladd@b+3,f
  7123     03A9  2BB8               	goto	l558
  7124     03AA                     l2726:
  7125     03AA  0862               	movf	___fladd@a,w
  7126     03AB  02DE               	subwf	___fladd@b,f
  7127     03AC  0863               	movf	___fladd@a+1,w
  7128     03AD  1C03               	skipc
  7129     03AE  0F63               	incfsz	___fladd@a+1,w
  7130     03AF  02DF               	subwf	___fladd@b+1,f
  7131     03B0  0864               	movf	___fladd@a+2,w
  7132     03B1  1C03               	skipc
  7133     03B2  0F64               	incfsz	___fladd@a+2,w
  7134     03B3  02E0               	subwf	___fladd@b+2,f
  7135     03B4  0865               	movf	___fladd@a+3,w
  7136     03B5  1C03               	skipc
  7137     03B6  0F65               	incfsz	___fladd@a+3,w
  7138     03B7  02E1               	subwf	___fladd@b+3,f
  7139     03B8                     l558:
  7140     03B8  1283               	bcf	3,5	;RP0=0, select bank0
  7141     03B9  0861               	movf	___fladd@b+3,w
  7142     03BA  0460               	iorwf	___fladd@b+2,w
  7143     03BB  045F               	iorwf	___fladd@b+1,w
  7144     03BC  045E               	iorwf	___fladd@b,w
  7145     03BD  1D03               	skipz
  7146     03BE  2BC0               	goto	u4641
  7147     03BF  2BC1               	goto	u4640
  7148     03C0                     u4641:
  7149     03C0  2BF7               	goto	l2748
  7150     03C1                     u4640:
  7151     03C1                     l2728:
  7152     03C1  1683               	bsf	3,5	;RP0=1, select bank1
  7153     03C2  1303               	bcf	3,6	;RP1=0, select bank1
  7154     03C3  0823               	movf	___fladd@grs^(0+128),w
  7155     03C4  1D03               	btfss	3,2
  7156     03C5  2BC7               	goto	u4651
  7157     03C6  2BC8               	goto	u4650
  7158     03C7                     u4651:
  7159     03C7  2BF7               	goto	l2748
  7160     03C8                     u4650:
  7161     03C8                     l2730:
  7162     03C8  3000               	movlw	0
  7163     03C9  1283               	bcf	3,5	;RP0=0, select bank0
  7164     03CA  1303               	bcf	3,6	;RP1=0, select bank0
  7165     03CB  00E1               	movwf	?___fladd+3
  7166     03CC  3000               	movlw	0
  7167     03CD  00E0               	movwf	?___fladd+2
  7168     03CE  3000               	movlw	0
  7169     03CF  00DF               	movwf	?___fladd+1
  7170     03D0  3000               	movlw	0
  7171     03D1  00DE               	movwf	?___fladd
  7172     03D2  2C96               	goto	l550
  7173     03D3                     l2734:
  7174     03D3  3001               	movlw	1
  7175     03D4  00E6               	movwf	??___fladd
  7176     03D5                     u4665:
  7177     03D5  1003               	clrc
  7178     03D6  0DDE               	rlf	___fladd@b,f
  7179     03D7  0DDF               	rlf	___fladd@b+1,f
  7180     03D8  0DE0               	rlf	___fladd@b+2,f
  7181     03D9  0DE1               	rlf	___fladd@b+3,f
  7182     03DA  0BE6               	decfsz	??___fladd,f
  7183     03DB  2BD5               	goto	u4665
  7184     03DC                     l2736:
  7185     03DC  1683               	bsf	3,5	;RP0=1, select bank1
  7186     03DD  1303               	bcf	3,6	;RP1=0, select bank1
  7187     03DE  1FA3               	btfss	___fladd@grs^(0+128),7
  7188     03DF  2BE1               	goto	u4671
  7189     03E0  2BE2               	goto	u4670
  7190     03E1                     u4671:
  7191     03E1  2BE5               	goto	l562
  7192     03E2                     u4670:
  7193     03E2                     l2738:
  7194     03E2  1283               	bcf	3,5	;RP0=0, select bank0
  7195     03E3  1303               	bcf	3,6	;RP1=0, select bank0
  7196     03E4  145E               	bsf	___fladd@b,0
  7197     03E5                     l562:
  7198     03E5  1683               	bsf	3,5	;RP0=1, select bank1
  7199     03E6  1303               	bcf	3,6	;RP1=0, select bank1
  7200     03E7  1C23               	btfss	___fladd@grs^(0+128),0
  7201     03E8  2BEA               	goto	u4681
  7202     03E9  2BEB               	goto	u4680
  7203     03EA                     u4681:
  7204     03EA  2BEE               	goto	l2742
  7205     03EB                     u4680:
  7206     03EB                     l2740:
  7207     03EB  1403               	setc
  7208     03EC  0DA3               	rlf	___fladd@grs^(0+128),f
  7209     03ED  2BF0               	goto	l2744
  7210     03EE                     l2742:
  7211     03EE  1003               	clrc
  7212     03EF  0DA3               	rlf	___fladd@grs^(0+128),f
  7213     03F0                     l2744:
  7214     03F0  0822               	movf	___fladd@bexp^(0+128),w
  7215     03F1  1903               	btfsc	3,2
  7216     03F2  2BF4               	goto	u4691
  7217     03F3  2BF5               	goto	u4690
  7218     03F4                     u4691:
  7219     03F4  2BF7               	goto	l2748
  7220     03F5                     u4690:
  7221     03F5                     l2746:
  7222     03F5  3001               	movlw	1
  7223     03F6  02A2               	subwf	___fladd@bexp^(0+128),f
  7224     03F7                     l2748:
  7225     03F7  1283               	bcf	3,5	;RP0=0, select bank0
  7226     03F8  1FE0               	btfss	___fladd@b+2,7
  7227     03F9  2BFB               	goto	u4701
  7228     03FA  2BFC               	goto	u4700
  7229     03FB                     u4701:
  7230     03FB  2BD3               	goto	l2734
  7231     03FC                     u4700:
  7232     03FC                     l2750:
  7233     03FC  1683               	bsf	3,5	;RP0=1, select bank1
  7234     03FD  1303               	bcf	3,6	;RP1=0, select bank1
  7235     03FE  01A1               	clrf	___fladd@aexp^(0+128)
  7236     03FF                     l2752:
  7237     03FF  1FA3               	btfss	___fladd@grs^(0+128),7
  7238     0400  2C02               	goto	u4711
  7239     0401  2C03               	goto	u4710
  7240     0402                     u4711:
  7241     0402  2C15               	goto	l2760
  7242     0403                     u4710:
  7243     0403                     l2754:
  7244     0403  0823               	movf	___fladd@grs^(0+128),w
  7245     0404  397F               	andlw	127
  7246     0405  1903               	btfsc	3,2
  7247     0406  2C08               	goto	u4721
  7248     0407  2C09               	goto	u4720
  7249     0408                     u4721:
  7250     0408  2C0E               	goto	l568
  7251     0409                     u4720:
  7252     0409                     l2756:
  7253     0409  1683               	bsf	3,5	;RP0=1, select bank1
  7254     040A  1303               	bcf	3,6	;RP1=0, select bank1
  7255     040B  01A1               	clrf	___fladd@aexp^(0+128)
  7256     040C  0AA1               	incf	___fladd@aexp^(0+128),f
  7257     040D  2C15               	goto	l2760
  7258     040E                     l568:
  7259     040E  1283               	bcf	3,5	;RP0=0, select bank0
  7260     040F  1303               	bcf	3,6	;RP1=0, select bank0
  7261     0410  1C5E               	btfss	___fladd@b,0
  7262     0411  2C13               	goto	u4731
  7263     0412  2C14               	goto	u4730
  7264     0413                     u4731:
  7265     0413  2C15               	goto	l2760
  7266     0414                     u4730:
  7267     0414  2C09               	goto	l2756
  7268     0415                     l2760:
  7269     0415  1683               	bsf	3,5	;RP0=1, select bank1
  7270     0416  1303               	bcf	3,6	;RP1=0, select bank1
  7271     0417  0821               	movf	___fladd@aexp^(0+128),w
  7272     0418  1903               	btfsc	3,2
  7273     0419  2C1B               	goto	u4741
  7274     041A  2C1C               	goto	u4740
  7275     041B                     u4741:
  7276     041B  2C58               	goto	l571
  7277     041C                     u4740:
  7278     041C                     l2762:
  7279     041C  3001               	movlw	1
  7280     041D  1283               	bcf	3,5	;RP0=0, select bank0
  7281     041E  1303               	bcf	3,6	;RP1=0, select bank0
  7282     041F  07DE               	addwf	___fladd@b,f
  7283     0420  3000               	movlw	0
  7284     0421  1803               	skipnc
  7285     0422  3001               	movlw	1
  7286     0423  07DF               	addwf	___fladd@b+1,f
  7287     0424  3000               	movlw	0
  7288     0425  1803               	skipnc
  7289     0426  3001               	movlw	1
  7290     0427  07E0               	addwf	___fladd@b+2,f
  7291     0428  3000               	movlw	0
  7292     0429  1803               	skipnc
  7293     042A  3001               	movlw	1
  7294     042B  07E1               	addwf	___fladd@b+3,f
  7295     042C                     l2764:
  7296     042C  1C61               	btfss	___fladd@b+3,0
  7297     042D  2C2F               	goto	u4751
  7298     042E  2C30               	goto	u4750
  7299     042F                     u4751:
  7300     042F  2C58               	goto	l571
  7301     0430                     u4750:
  7302     0430                     l2766:
  7303     0430  085E               	movf	___fladd@b,w
  7304     0431  00E6               	movwf	??___fladd
  7305     0432  085F               	movf	___fladd@b+1,w
  7306     0433  00E7               	movwf	??___fladd+1
  7307     0434  0860               	movf	___fladd@b+2,w
  7308     0435  00E8               	movwf	??___fladd+2
  7309     0436  0861               	movf	___fladd@b+3,w
  7310     0437  00E9               	movwf	??___fladd+3
  7311     0438  3001               	movlw	1
  7312     0439  00EA               	movwf	??___fladd+4
  7313     043A                     u4765:
  7314     043A  0D69               	rlf	??___fladd+3,w
  7315     043B  0CE9               	rrf	??___fladd+3,f
  7316     043C  0CE8               	rrf	??___fladd+2,f
  7317     043D  0CE7               	rrf	??___fladd+1,f
  7318     043E  0CE6               	rrf	??___fladd,f
  7319     043F                     u4760:
  7320     043F  0BEA               	decfsz	??___fladd+4,f
  7321     0440  2C3A               	goto	u4765
  7322     0441  0869               	movf	??___fladd+3,w
  7323     0442  00E1               	movwf	___fladd@b+3
  7324     0443  0868               	movf	??___fladd+2,w
  7325     0444  00E0               	movwf	___fladd@b+2
  7326     0445  0867               	movf	??___fladd+1,w
  7327     0446  00DF               	movwf	___fladd@b+1
  7328     0447  0866               	movf	??___fladd,w
  7329     0448  00DE               	movwf	___fladd@b
  7330     0449  1683               	bsf	3,5	;RP0=1, select bank1
  7331     044A  1303               	bcf	3,6	;RP1=0, select bank1
  7332     044B  0A22               	incf	___fladd@bexp^(0+128),w
  7333     044C  1903               	btfsc	3,2
  7334     044D  2C4F               	goto	u4771
  7335     044E  2C50               	goto	u4770
  7336     044F                     u4771:
  7337     044F  2C58               	goto	l571
  7338     0450                     u4770:
  7339     0450                     l2768:
  7340     0450  3001               	movlw	1
  7341     0451  1283               	bcf	3,5	;RP0=0, select bank0
  7342     0452  1303               	bcf	3,6	;RP1=0, select bank0
  7343     0453  00E6               	movwf	??___fladd
  7344     0454  0866               	movf	??___fladd,w
  7345     0455  1683               	bsf	3,5	;RP0=1, select bank1
  7346     0456  1303               	bcf	3,6	;RP1=0, select bank1
  7347     0457  07A2               	addwf	___fladd@bexp^(0+128),f
  7348     0458                     l571:
  7349     0458  1683               	bsf	3,5	;RP0=1, select bank1
  7350     0459  1303               	bcf	3,6	;RP1=0, select bank1
  7351     045A  0A22               	incf	___fladd@bexp^(0+128),w
  7352     045B  1903               	btfsc	3,2
  7353     045C  2C5E               	goto	u4781
  7354     045D  2C5F               	goto	u4780
  7355     045E                     u4781:
  7356     045E  2C64               	goto	l2772
  7357     045F                     u4780:
  7358     045F                     l2770:
  7359     045F  0822               	movf	___fladd@bexp^(0+128),w
  7360     0460  1D03               	btfss	3,2
  7361     0461  2C63               	goto	u4791
  7362     0462  2C64               	goto	u4790
  7363     0463                     u4791:
  7364     0463  2C76               	goto	l2778
  7365     0464                     u4790:
  7366     0464                     l2772:
  7367     0464  3000               	movlw	0
  7368     0465  1283               	bcf	3,5	;RP0=0, select bank0
  7369     0466  1303               	bcf	3,6	;RP1=0, select bank0
  7370     0467  00E1               	movwf	___fladd@b+3
  7371     0468  3000               	movlw	0
  7372     0469  00E0               	movwf	___fladd@b+2
  7373     046A  3000               	movlw	0
  7374     046B  00DF               	movwf	___fladd@b+1
  7375     046C  3000               	movlw	0
  7376     046D  00DE               	movwf	___fladd@b
  7377     046E                     l2774:
  7378     046E  1683               	bsf	3,5	;RP0=1, select bank1
  7379     046F  1303               	bcf	3,6	;RP1=0, select bank1
  7380     0470  0822               	movf	___fladd@bexp^(0+128),w
  7381     0471  1D03               	btfss	3,2
  7382     0472  2C74               	goto	u4801
  7383     0473  2C75               	goto	u4800
  7384     0474                     u4801:
  7385     0474  2C76               	goto	l2778
  7386     0475                     u4800:
  7387     0475                     l2776:
  7388     0475  01A0               	clrf	___fladd@signs^(0+128)
  7389     0476                     l2778:
  7390     0476  1C22               	btfss	___fladd@bexp^(0+128),0
  7391     0477  2C79               	goto	u4811
  7392     0478  2C7A               	goto	u4810
  7393     0479                     u4811:
  7394     0479  2C7E               	goto	l2782
  7395     047A                     u4810:
  7396     047A                     l2780:
  7397     047A  1283               	bcf	3,5	;RP0=0, select bank0
  7398     047B  1303               	bcf	3,6	;RP1=0, select bank0
  7399     047C  17E0               	bsf	___fladd@b+2,7
  7400     047D  2C84               	goto	l579
  7401     047E                     l2782:
  7402     047E  307F               	movlw	127
  7403     047F  1283               	bcf	3,5	;RP0=0, select bank0
  7404     0480  1303               	bcf	3,6	;RP1=0, select bank0
  7405     0481  00E6               	movwf	??___fladd
  7406     0482  0866               	movf	??___fladd,w
  7407     0483  05E0               	andwf	___fladd@b+2,f
  7408     0484                     l579:
  7409     0484  1683               	bsf	3,5	;RP0=1, select bank1
  7410     0485  1303               	bcf	3,6	;RP1=0, select bank1
  7411     0486  0822               	movf	___fladd@bexp^(0+128),w
  7412     0487  1283               	bcf	3,5	;RP0=0, select bank0
  7413     0488  1303               	bcf	3,6	;RP1=0, select bank0
  7414     0489  00E6               	movwf	??___fladd
  7415     048A  1003               	clrc
  7416     048B  0C66               	rrf	??___fladd,w
  7417     048C  00E1               	movwf	___fladd@b+3
  7418     048D                     l2784:
  7419     048D  1683               	bsf	3,5	;RP0=1, select bank1
  7420     048E  1303               	bcf	3,6	;RP1=0, select bank1
  7421     048F  1FA0               	btfss	___fladd@signs^(0+128),7
  7422     0490  2C92               	goto	u4821
  7423     0491  2C93               	goto	u4820
  7424     0492                     u4821:
  7425     0492  2C96               	goto	l580
  7426     0493                     u4820:
  7427     0493                     l2786:
  7428     0493  1283               	bcf	3,5	;RP0=0, select bank0
  7429     0494  1303               	bcf	3,6	;RP1=0, select bank0
  7430     0495  17E1               	bsf	___fladd@b+3,7
  7431     0496                     l580:
  7432     0496                     l550:
  7433     0496  0008               	return
  7434     0497                     __end_of___fladd:
  7435                           
  7436                           	psect	text26
  7437     149C                     __ptext26:	
  7438 ;; *************** function _Lcd_WriteString *****************
  7439 ;; Defined at:
  7440 ;;		line 102 in file "../../pic16flcd.c"
  7441 ;; Parameters:    Size  Location     Type
  7442 ;;  config          1    wreg     PTR struct .
  7443 ;;		 -> main@lcd(8), 
  7444 ;;  str             2    0[BANK0 ] PTR unsigned char 
  7445 ;;		 -> main@strTemp(6), main@strRPM(6), STR_2(5), STR_1(14), 
  7446 ;; Auto vars:     Size  Location     Type
  7447 ;;  config          1   13[COMMON] PTR struct .
  7448 ;;		 -> main@lcd(8), 
  7449 ;; Return value:  Size  Location     Type
  7450 ;;                  1    wreg      void 
  7451 ;; Registers used:
  7452 ;;		wreg, fsr0l, fsr0h, status,2, status,0, btemp+1, pclath, cstack
  7453 ;; Tracked objects:
  7454 ;;		On entry : 0/0
  7455 ;;		On exit  : 0/0
  7456 ;;		Unchanged: 0/0
  7457 ;; Data sizes:     COMMON   BANK0   BANK1   BANK3   BANK2
  7458 ;;      Params:         0       2       0       0       0
  7459 ;;      Locals:         1       0       0       0       0
  7460 ;;      Temps:          0       0       0       0       0
  7461 ;;      Totals:         1       2       0       0       0
  7462 ;;Total ram usage:        3 bytes
  7463 ;; Hardware stack levels used: 1
  7464 ;; Hardware stack levels required when called: 3
  7465 ;; This function calls:
  7466 ;;		_Lcd_WriteChar
  7467 ;; This function is called by:
  7468 ;;		_main
  7469 ;; This function uses a non-reentrant model
  7470 ;;
  7471                           
  7472     149C                     _Lcd_WriteString:	
  7473                           ;psect for function _Lcd_WriteString
  7474                           
  7475                           
  7476                           ;incstack = 0
  7477                           ; Regs used in _Lcd_WriteString: [wreg-fsr0h+status,2+status,0+btemp+1+pclath+cstack]
  7478                           ;Lcd_WriteString@config stored from wreg
  7479     149C  00FD               	movwf	Lcd_WriteString@config
  7480     149D                     l2516:
  7481                           
  7482                           ;../../pic16flcd.c: 103:     while(*str != '\0') {
  7483     149D  2CB6               	goto	l2522
  7484     149E                     l2518:
  7485                           
  7486                           ;../../pic16flcd.c: 104:         Lcd_WriteChar(config, (unsigned char)(*str));
  7487     149E  0821               	movf	Lcd_WriteString@str+1,w
  7488     149F  00FF               	movwf	btemp+1
  7489     14A0  0820               	movf	Lcd_WriteString@str,w
  7490     14A1  0084               	movwf	4
  7491     14A2  160A  118A  2000  160A  118A  	fcall	stringtab
  7492     14A7  00F9               	movwf	Lcd_WriteChar@data
  7493     14A8  087D               	movf	Lcd_WriteString@config,w
  7494     14A9  120A  118A  206C  160A  118A  	fcall	_Lcd_WriteChar
  7495     14AE                     l2520:
  7496                           
  7497                           ;../../pic16flcd.c: 105:         str++;
  7498     14AE  3001               	movlw	1
  7499     14AF  1283               	bcf	3,5	;RP0=0, select bank0
  7500     14B0  1303               	bcf	3,6	;RP1=0, select bank0
  7501     14B1  07A0               	addwf	Lcd_WriteString@str,f
  7502     14B2  1803               	skipnc
  7503     14B3  0AA1               	incf	Lcd_WriteString@str+1,f
  7504     14B4  3000               	movlw	0
  7505     14B5  07A1               	addwf	Lcd_WriteString@str+1,f
  7506     14B6                     l2522:
  7507                           
  7508                           ;../../pic16flcd.c: 103:     while(*str != '\0') {
  7509     14B6  1283               	bcf	3,5	;RP0=0, select bank0
  7510     14B7  1303               	bcf	3,6	;RP1=0, select bank0
  7511     14B8  0821               	movf	Lcd_WriteString@str+1,w
  7512     14B9  00FF               	movwf	btemp+1
  7513     14BA  0820               	movf	Lcd_WriteString@str,w
  7514     14BB  0084               	movwf	4
  7515     14BC  160A  118A  2000  160A  118A  	fcall	stringtab
  7516     14C1  3A00               	xorlw	0
  7517     14C2  1D03               	skipz
  7518     14C3  2CC5               	goto	u4191
  7519     14C4  2CC6               	goto	u4190
  7520     14C5                     u4191:
  7521     14C5  2C9E               	goto	l2518
  7522     14C6                     u4190:
  7523     14C6                     l127:
  7524     14C6  0008               	return
  7525     14C7                     __end_of_Lcd_WriteString:
  7526                           
  7527                           	psect	text27
  7528     134B                     __ptext27:	
  7529 ;; *************** function _Lcd_WriteCustomChar *****************
  7530 ;; Defined at:
  7531 ;;		line 198 in file "../../pic16flcd.c"
  7532 ;; Parameters:    Size  Location     Type
  7533 ;;  config          1    wreg     PTR struct .
  7534 ;;		 -> main@lcd(8), 
  7535 ;;  location        1   13[COMMON] unsigned char 
  7536 ;; Auto vars:     Size  Location     Type
  7537 ;;  config          1    0[BANK0 ] PTR struct .
  7538 ;;		 -> main@lcd(8), 
  7539 ;; Return value:  Size  Location     Type
  7540 ;;                  1    wreg      void 
  7541 ;; Registers used:
  7542 ;;		wreg, fsr0l, fsr0h, status,2, status,0, pclath, cstack
  7543 ;; Tracked objects:
  7544 ;;		On entry : 0/0
  7545 ;;		On exit  : 0/0
  7546 ;;		Unchanged: 0/0
  7547 ;; Data sizes:     COMMON   BANK0   BANK1   BANK3   BANK2
  7548 ;;      Params:         1       0       0       0       0
  7549 ;;      Locals:         0       1       0       0       0
  7550 ;;      Temps:          0       0       0       0       0
  7551 ;;      Totals:         1       1       0       0       0
  7552 ;;Total ram usage:        2 bytes
  7553 ;; Hardware stack levels used: 1
  7554 ;; Hardware stack levels required when called: 3
  7555 ;; This function calls:
  7556 ;;		_Lcd_WriteChar
  7557 ;; This function is called by:
  7558 ;;		_main
  7559 ;; This function uses a non-reentrant model
  7560 ;;
  7561                           
  7562     134B                     _Lcd_WriteCustomChar:	
  7563                           ;psect for function _Lcd_WriteCustomChar
  7564                           
  7565                           
  7566                           ;incstack = 0
  7567                           ; Regs used in _Lcd_WriteCustomChar: [wreg-fsr0h+status,2+status,0+pclath+cstack]
  7568                           ;Lcd_WriteCustomChar@config stored from wreg
  7569     134B  1283               	bcf	3,5	;RP0=0, select bank0
  7570     134C  1303               	bcf	3,6	;RP1=0, select bank0
  7571     134D  00A0               	movwf	Lcd_WriteCustomChar@config
  7572     134E                     l2536:
  7573                           
  7574                           ;../../pic16flcd.c: 199:     Lcd_WriteChar(config, location);
  7575     134E  087D               	movf	Lcd_WriteCustomChar@location,w
  7576     134F  00F9               	movwf	Lcd_WriteChar@data
  7577     1350  0820               	movf	Lcd_WriteCustomChar@config,w
  7578     1351  120A  118A  206C  160A  118A  	fcall	_Lcd_WriteChar
  7579     1356                     l150:
  7580     1356  0008               	return
  7581     1357                     __end_of_Lcd_WriteCustomChar:
  7582                           
  7583                           	psect	text28
  7584     144A                     __ptext28:	
  7585 ;; *************** function _Lcd_SetCursor *****************
  7586 ;; Defined at:
  7587 ;;		line 148 in file "../../pic16flcd.c"
  7588 ;; Parameters:    Size  Location     Type
  7589 ;;  config          1    wreg     PTR struct .
  7590 ;;		 -> main@lcd(8), 
  7591 ;;  row             1    0[BANK0 ] unsigned char 
  7592 ;;  column          1    1[BANK0 ] unsigned char 
  7593 ;; Auto vars:     Size  Location     Type
  7594 ;;  config          1    5[BANK0 ] PTR struct .
  7595 ;;		 -> main@lcd(8), 
  7596 ;;  address         1    4[BANK0 ] unsigned char 
  7597 ;; Return value:  Size  Location     Type
  7598 ;;                  1    wreg      void 
  7599 ;; Registers used:
  7600 ;;		wreg, fsr0l, fsr0h, status,2, status,0, pclath, cstack
  7601 ;; Tracked objects:
  7602 ;;		On entry : 0/0
  7603 ;;		On exit  : 0/0
  7604 ;;		Unchanged: 0/0
  7605 ;; Data sizes:     COMMON   BANK0   BANK1   BANK3   BANK2
  7606 ;;      Params:         0       2       0       0       0
  7607 ;;      Locals:         0       2       0       0       0
  7608 ;;      Temps:          0       2       0       0       0
  7609 ;;      Totals:         0       6       0       0       0
  7610 ;;Total ram usage:        6 bytes
  7611 ;; Hardware stack levels used: 1
  7612 ;; Hardware stack levels required when called: 3
  7613 ;; This function calls:
  7614 ;;		_Lcd_Command
  7615 ;; This function is called by:
  7616 ;;		_main
  7617 ;; This function uses a non-reentrant model
  7618 ;;
  7619                           
  7620     144A                     _Lcd_SetCursor:	
  7621                           ;psect for function _Lcd_SetCursor
  7622                           
  7623                           
  7624                           ;incstack = 0
  7625                           ; Regs used in _Lcd_SetCursor: [wreg-fsr0h+status,2+status,0+pclath+cstack]
  7626                           ;Lcd_SetCursor@config stored from wreg
  7627     144A  1283               	bcf	3,5	;RP0=0, select bank0
  7628     144B  1303               	bcf	3,6	;RP1=0, select bank0
  7629     144C  00A5               	movwf	Lcd_SetCursor@config
  7630     144D                     l2496:
  7631                           
  7632                           ;../../pic16flcd.c: 149:     unsigned char address;;../../pic16flcd.c: 152:     switch(r
      +                          ow) {
  7633     144D  2C54               	goto	l2504
  7634     144E                     l2498:
  7635                           
  7636                           ;../../pic16flcd.c: 154:             address = 0x80;
  7637     144E  3080               	movlw	128
  7638     144F  00A4               	movwf	Lcd_SetCursor@address
  7639                           
  7640                           ;../../pic16flcd.c: 155:             break;
  7641     1450  2C64               	goto	l2506
  7642     1451                     l2500:
  7643                           
  7644                           ;../../pic16flcd.c: 157:             address = 0xC0;
  7645     1451  30C0               	movlw	192
  7646     1452  00A4               	movwf	Lcd_SetCursor@address
  7647                           
  7648                           ;../../pic16flcd.c: 158:             break;
  7649     1453  2C64               	goto	l2506
  7650     1454                     l2504:
  7651     1454  0820               	movf	Lcd_SetCursor@row,w
  7652     1455  00A2               	movwf	??_Lcd_SetCursor
  7653     1456  01A3               	clrf	??_Lcd_SetCursor+1
  7654                           
  7655                           ; Switch on 2 bytes has been partitioned into a top level switch of size 1, and 1 sub-sw
      +                          itches
  7656                           ; Switch size 1, requested type "simple"
  7657                           ; Number of cases is 1, Range of values is 0 to 0
  7658                           ; switch strategies available:
  7659                           ; Name         Instructions Cycles
  7660                           ; simple_byte            4     3 (average)
  7661                           ; direct_byte           11     8 (fixed)
  7662                           ; jumptable            260     6 (fixed)
  7663                           ;	Chosen strategy is simple_byte
  7664     1457  0823               	movf	??_Lcd_SetCursor+1,w
  7665     1458  3A00               	xorlw	0	; case 0
  7666     1459  1903               	skipnz
  7667     145A  2C5C               	goto	l2918
  7668     145B  2C4E               	goto	l2498
  7669     145C                     l2918:
  7670                           
  7671                           ; Switch size 1, requested type "simple"
  7672                           ; Number of cases is 2, Range of values is 1 to 2
  7673                           ; switch strategies available:
  7674                           ; Name         Instructions Cycles
  7675                           ; simple_byte            7     4 (average)
  7676                           ; direct_byte           17    11 (fixed)
  7677                           ; jumptable            263     9 (fixed)
  7678                           ;	Chosen strategy is simple_byte
  7679     145C  0822               	movf	??_Lcd_SetCursor,w
  7680     145D  3A01               	xorlw	1	; case 1
  7681     145E  1903               	skipnz
  7682     145F  2C4E               	goto	l2498
  7683     1460  3A03               	xorlw	3	; case 2
  7684     1461  1903               	skipnz
  7685     1462  2C51               	goto	l2500
  7686     1463  2C4E               	goto	l2498
  7687     1464                     l2506:
  7688                           
  7689                           ;../../pic16flcd.c: 164:     address += (column - 1);
  7690     1464  0821               	movf	Lcd_SetCursor@column,w
  7691     1465  3EFF               	addlw	255
  7692     1466  00A2               	movwf	??_Lcd_SetCursor
  7693     1467  0822               	movf	??_Lcd_SetCursor,w
  7694     1468  07A4               	addwf	Lcd_SetCursor@address,f
  7695     1469                     l2508:
  7696                           
  7697                           ;../../pic16flcd.c: 167:     Lcd_Command(config, address);
  7698     1469  0824               	movf	Lcd_SetCursor@address,w
  7699     146A  00F9               	movwf	Lcd_Command@cmd
  7700     146B  0825               	movf	Lcd_SetCursor@config,w
  7701     146C  120A  158A  2278  160A  118A  	fcall	_Lcd_Command
  7702     1471                     l141:
  7703     1471  0008               	return
  7704     1472                     __end_of_Lcd_SetCursor:
  7705                           
  7706                           	psect	text29
  7707     16AB                     __ptext29:	
  7708 ;; *************** function _Lcd_Init *****************
  7709 ;; Defined at:
  7710 ;;		line 110 in file "../../pic16flcd.c"
  7711 ;; Parameters:    Size  Location     Type
  7712 ;;  config          1    wreg     PTR struct .
  7713 ;;		 -> main@lcd(8), 
  7714 ;; Auto vars:     Size  Location     Type
  7715 ;;  config          1    4[BANK0 ] PTR struct .
  7716 ;;		 -> main@lcd(8), 
  7717 ;; Return value:  Size  Location     Type
  7718 ;;                  1    wreg      void 
  7719 ;; Registers used:
  7720 ;;		wreg, fsr0l, fsr0h, status,2, status,0, pclath, cstack
  7721 ;; Tracked objects:
  7722 ;;		On entry : 0/0
  7723 ;;		On exit  : 0/0
  7724 ;;		Unchanged: 0/0
  7725 ;; Data sizes:     COMMON   BANK0   BANK1   BANK3   BANK2
  7726 ;;      Params:         0       0       0       0       0
  7727 ;;      Locals:         0       1       0       0       0
  7728 ;;      Temps:          0       2       0       0       0
  7729 ;;      Totals:         0       3       0       0       0
  7730 ;;Total ram usage:        3 bytes
  7731 ;; Hardware stack levels used: 1
  7732 ;; Hardware stack levels required when called: 4
  7733 ;; This function calls:
  7734 ;;		_Lcd_Clear
  7735 ;;		_Lcd_Command
  7736 ;; This function is called by:
  7737 ;;		_main
  7738 ;; This function uses a non-reentrant model
  7739 ;;
  7740                           
  7741     16AB                     _Lcd_Init:	
  7742                           ;psect for function _Lcd_Init
  7743                           
  7744                           
  7745                           ;incstack = 0
  7746                           ; Regs used in _Lcd_Init: [wreg-fsr0h+status,2+status,0+pclath+cstack]
  7747                           ;Lcd_Init@config stored from wreg
  7748     16AB  1283               	bcf	3,5	;RP0=0, select bank0
  7749     16AC  1303               	bcf	3,6	;RP1=0, select bank0
  7750     16AD  00A4               	movwf	Lcd_Init@config
  7751     16AE                     l2460:
  7752                           
  7753                           ;../../pic16flcd.c: 116:     _delay((unsigned long)((15)*(4000000/4000.0)));
  7754     16AE  3014               	movlw	20
  7755     16AF  1283               	bcf	3,5	;RP0=0, select bank0
  7756     16B0  1303               	bcf	3,6	;RP1=0, select bank0
  7757     16B1  00A3               	movwf	??_Lcd_Init+1
  7758     16B2  3079               	movlw	121
  7759     16B3  00A2               	movwf	??_Lcd_Init
  7760     16B4                     u4917:
  7761     16B4  0BA2               	decfsz	??_Lcd_Init,f
  7762     16B5  2EB4               	goto	u4917
  7763     16B6  0BA3               	decfsz	??_Lcd_Init+1,f
  7764     16B7  2EB4               	goto	u4917
  7765     16B8                     l2462:
  7766                           
  7767                           ;../../pic16flcd.c: 117:     Lcd_Command(config, 0x03);
  7768     16B8  3003               	movlw	3
  7769     16B9  00F9               	movwf	Lcd_Command@cmd
  7770     16BA  1283               	bcf	3,5	;RP0=0, select bank0
  7771     16BB  1303               	bcf	3,6	;RP1=0, select bank0
  7772     16BC  0824               	movf	Lcd_Init@config,w
  7773     16BD  120A  158A  2278  160A  118A  	fcall	_Lcd_Command
  7774     16C2                     l2464:
  7775                           
  7776                           ;../../pic16flcd.c: 118:     _delay((unsigned long)((5)*(4000000/4000.0)));
  7777     16C2  3007               	movlw	7
  7778     16C3  1283               	bcf	3,5	;RP0=0, select bank0
  7779     16C4  1303               	bcf	3,6	;RP1=0, select bank0
  7780     16C5  00A3               	movwf	??_Lcd_Init+1
  7781     16C6  307C               	movlw	124
  7782     16C7  00A2               	movwf	??_Lcd_Init
  7783     16C8                     u4927:
  7784     16C8  0BA2               	decfsz	??_Lcd_Init,f
  7785     16C9  2EC8               	goto	u4927
  7786     16CA  0BA3               	decfsz	??_Lcd_Init+1,f
  7787     16CB  2EC8               	goto	u4927
  7788     16CC  0000               	nop
  7789                           
  7790                           ;../../pic16flcd.c: 119:     Lcd_Command(config, 0x03);
  7791     16CD  3003               	movlw	3
  7792     16CE  00F9               	movwf	Lcd_Command@cmd
  7793     16CF  1283               	bcf	3,5	;RP0=0, select bank0
  7794     16D0  1303               	bcf	3,6	;RP1=0, select bank0
  7795     16D1  0824               	movf	Lcd_Init@config,w
  7796     16D2  120A  158A  2278  160A  118A  	fcall	_Lcd_Command
  7797     16D7                     l2466:
  7798                           
  7799                           ;../../pic16flcd.c: 120:     _delay((unsigned long)((100)*(4000000/4000000.0)));
  7800     16D7  3020               	movlw	32
  7801     16D8  1283               	bcf	3,5	;RP0=0, select bank0
  7802     16D9  1303               	bcf	3,6	;RP1=0, select bank0
  7803     16DA  00A2               	movwf	??_Lcd_Init
  7804     16DB                     u4937:
  7805     16DB  0BA2               	decfsz	??_Lcd_Init,f
  7806     16DC  2EDB               	goto	u4937
  7807     16DD  0000               	nop
  7808     16DE                     l2468:
  7809                           
  7810                           ;../../pic16flcd.c: 121:     Lcd_Command(config, 0x03);
  7811     16DE  3003               	movlw	3
  7812     16DF  00F9               	movwf	Lcd_Command@cmd
  7813     16E0  1283               	bcf	3,5	;RP0=0, select bank0
  7814     16E1  1303               	bcf	3,6	;RP1=0, select bank0
  7815     16E2  0824               	movf	Lcd_Init@config,w
  7816     16E3  120A  158A  2278  160A  118A  	fcall	_Lcd_Command
  7817     16E8                     l2470:
  7818                           
  7819                           ;../../pic16flcd.c: 122:     Lcd_Command(config, 0x02);
  7820     16E8  3002               	movlw	2
  7821     16E9  00F9               	movwf	Lcd_Command@cmd
  7822     16EA  1283               	bcf	3,5	;RP0=0, select bank0
  7823     16EB  1303               	bcf	3,6	;RP1=0, select bank0
  7824     16EC  0824               	movf	Lcd_Init@config,w
  7825     16ED  120A  158A  2278  160A  118A  	fcall	_Lcd_Command
  7826     16F2                     l2472:
  7827                           
  7828                           ;../../pic16flcd.c: 124:     Lcd_Command(config, 0x28);
  7829     16F2  3028               	movlw	40
  7830     16F3  00F9               	movwf	Lcd_Command@cmd
  7831     16F4  1283               	bcf	3,5	;RP0=0, select bank0
  7832     16F5  1303               	bcf	3,6	;RP1=0, select bank0
  7833     16F6  0824               	movf	Lcd_Init@config,w
  7834     16F7  120A  158A  2278  160A  118A  	fcall	_Lcd_Command
  7835     16FC                     l2474:
  7836                           
  7837                           ;../../pic16flcd.c: 125:     Lcd_Command(config, 0x0C);
  7838     16FC  300C               	movlw	12
  7839     16FD  00F9               	movwf	Lcd_Command@cmd
  7840     16FE  1283               	bcf	3,5	;RP0=0, select bank0
  7841     16FF  1303               	bcf	3,6	;RP1=0, select bank0
  7842     1700  0824               	movf	Lcd_Init@config,w
  7843     1701  120A  158A  2278  160A  118A  	fcall	_Lcd_Command
  7844     1706                     l2476:
  7845                           
  7846                           ;../../pic16flcd.c: 126:     Lcd_Command(config, 0x06);
  7847     1706  3006               	movlw	6
  7848     1707  00F9               	movwf	Lcd_Command@cmd
  7849     1708  1283               	bcf	3,5	;RP0=0, select bank0
  7850     1709  1303               	bcf	3,6	;RP1=0, select bank0
  7851     170A  0824               	movf	Lcd_Init@config,w
  7852     170B  120A  158A  2278  160A  118A  	fcall	_Lcd_Command
  7853     1710                     l2478:
  7854                           
  7855                           ;../../pic16flcd.c: 127:     Lcd_Clear(config);
  7856     1710  1283               	bcf	3,5	;RP0=0, select bank0
  7857     1711  1303               	bcf	3,6	;RP1=0, select bank0
  7858     1712  0824               	movf	Lcd_Init@config,w
  7859     1713  160A  118A  2395  160A  118A  	fcall	_Lcd_Clear
  7860     1718                     l130:
  7861     1718  0008               	return
  7862     1719                     __end_of_Lcd_Init:
  7863                           
  7864                           	psect	text30
  7865     1395                     __ptext30:	
  7866 ;; *************** function _Lcd_Clear *****************
  7867 ;; Defined at:
  7868 ;;		line 135 in file "../../pic16flcd.c"
  7869 ;; Parameters:    Size  Location     Type
  7870 ;;  config          1    wreg     PTR struct .
  7871 ;;		 -> main@lcd(8), 
  7872 ;; Auto vars:     Size  Location     Type
  7873 ;;  config          1   13[COMMON] PTR struct .
  7874 ;;		 -> main@lcd(8), 
  7875 ;; Return value:  Size  Location     Type
  7876 ;;                  1    wreg      void 
  7877 ;; Registers used:
  7878 ;;		wreg, fsr0l, fsr0h, status,2, status,0, pclath, cstack
  7879 ;; Tracked objects:
  7880 ;;		On entry : 0/0
  7881 ;;		On exit  : 0/0
  7882 ;;		Unchanged: 0/0
  7883 ;; Data sizes:     COMMON   BANK0   BANK1   BANK3   BANK2
  7884 ;;      Params:         0       0       0       0       0
  7885 ;;      Locals:         1       0       0       0       0
  7886 ;;      Temps:          0       2       0       0       0
  7887 ;;      Totals:         1       2       0       0       0
  7888 ;;Total ram usage:        3 bytes
  7889 ;; Hardware stack levels used: 1
  7890 ;; Hardware stack levels required when called: 3
  7891 ;; This function calls:
  7892 ;;		_Lcd_Command
  7893 ;; This function is called by:
  7894 ;;		_main
  7895 ;;		_Lcd_Init
  7896 ;; This function uses a non-reentrant model
  7897 ;;
  7898                           
  7899     1395                     _Lcd_Clear:	
  7900                           ;psect for function _Lcd_Clear
  7901                           
  7902                           
  7903                           ;incstack = 0
  7904                           ; Regs used in _Lcd_Clear: [wreg-fsr0h+status,2+status,0+pclath+cstack]
  7905                           ;Lcd_Clear@config stored from wreg
  7906     1395  00FD               	movwf	Lcd_Clear@config
  7907     1396                     l2062:
  7908                           
  7909                           ;../../pic16flcd.c: 136:     Lcd_Command(config, 0x01);
  7910     1396  01F9               	clrf	Lcd_Command@cmd
  7911     1397  0AF9               	incf	Lcd_Command@cmd,f
  7912     1398  087D               	movf	Lcd_Clear@config,w
  7913     1399  120A  158A  2278  160A  118A  	fcall	_Lcd_Command
  7914     139E                     l2064:
  7915                           
  7916                           ;../../pic16flcd.c: 137:     _delay((unsigned long)((2)*(4000000/4000.0)));
  7917     139E  3003               	movlw	3
  7918     139F  1283               	bcf	3,5	;RP0=0, select bank0
  7919     13A0  1303               	bcf	3,6	;RP1=0, select bank0
  7920     13A1  00A1               	movwf	??_Lcd_Clear+1
  7921     13A2  3097               	movlw	151
  7922     13A3  00A0               	movwf	??_Lcd_Clear
  7923     13A4                     u4947:
  7924     13A4  0BA0               	decfsz	??_Lcd_Clear,f
  7925     13A5  2BA4               	goto	u4947
  7926     13A6  0BA1               	decfsz	??_Lcd_Clear+1,f
  7927     13A7  2BA4               	goto	u4947
  7928     13A8                     l133:
  7929     13A8  0008               	return
  7930     13A9                     __end_of_Lcd_Clear:
  7931                           
  7932                           	psect	text31
  7933     1552                     __ptext31:	
  7934 ;; *************** function _Lcd_CreateCustomChar *****************
  7935 ;; Defined at:
  7936 ;;		line 180 in file "../../pic16flcd.c"
  7937 ;; Parameters:    Size  Location     Type
  7938 ;;  config          1    wreg     PTR struct .
  7939 ;;		 -> main@lcd(8), 
  7940 ;;  location        1    0[BANK0 ] unsigned char 
  7941 ;;  charmap         1    1[BANK0 ] PTR unsigned char 
  7942 ;;		 -> celsiusChar(8), 
  7943 ;; Auto vars:     Size  Location     Type
  7944 ;;  config          1    2[BANK0 ] PTR struct .
  7945 ;;		 -> main@lcd(8), 
  7946 ;;  i               1    3[BANK0 ] unsigned char 
  7947 ;; Return value:  Size  Location     Type
  7948 ;;                  1    wreg      void 
  7949 ;; Registers used:
  7950 ;;		wreg, fsr0l, fsr0h, status,2, status,0, pclath, cstack
  7951 ;; Tracked objects:
  7952 ;;		On entry : 0/0
  7953 ;;		On exit  : 0/0
  7954 ;;		Unchanged: 0/0
  7955 ;; Data sizes:     COMMON   BANK0   BANK1   BANK3   BANK2
  7956 ;;      Params:         0       2       0       0       0
  7957 ;;      Locals:         0       2       0       0       0
  7958 ;;      Temps:          1       0       0       0       0
  7959 ;;      Totals:         1       4       0       0       0
  7960 ;;Total ram usage:        5 bytes
  7961 ;; Hardware stack levels used: 1
  7962 ;; Hardware stack levels required when called: 3
  7963 ;; This function calls:
  7964 ;;		_Lcd_Command
  7965 ;;		_Lcd_WriteChar
  7966 ;; This function is called by:
  7967 ;;		_main
  7968 ;; This function uses a non-reentrant model
  7969 ;;
  7970                           
  7971     1552                     _Lcd_CreateCustomChar:	
  7972                           ;psect for function _Lcd_CreateCustomChar
  7973                           
  7974                           
  7975                           ;incstack = 0
  7976                           ; Regs used in _Lcd_CreateCustomChar: [wreg-fsr0h+status,2+status,0+pclath+cstack]
  7977                           ;Lcd_CreateCustomChar@config stored from wreg
  7978     1552  1283               	bcf	3,5	;RP0=0, select bank0
  7979     1553  1303               	bcf	3,6	;RP1=0, select bank0
  7980     1554  00A2               	movwf	Lcd_CreateCustomChar@config
  7981     1555                     l2480:
  7982                           
  7983                           ;../../pic16flcd.c: 181:     unsigned char i;;../../pic16flcd.c: 182:     if(location < 
      +                          8) {
  7984     1555  3008               	movlw	8
  7985     1556  0220               	subwf	Lcd_CreateCustomChar@location,w
  7986     1557  1803               	skipnc
  7987     1558  2D5A               	goto	u4161
  7988     1559  2D5B               	goto	u4160
  7989     155A                     u4161:
  7990     155A  2D8A               	goto	l147
  7991     155B                     u4160:
  7992     155B                     l2482:
  7993                           
  7994                           ;../../pic16flcd.c: 184:         Lcd_Command(config, 0x40 + (location * 8));
  7995     155B  0820               	movf	Lcd_CreateCustomChar@location,w
  7996     155C  00FD               	movwf	??_Lcd_CreateCustomChar
  7997     155D  3002               	movlw	2
  7998     155E                     u4175:
  7999     155E  1003               	clrc
  8000     155F  0DFD               	rlf	??_Lcd_CreateCustomChar,f
  8001     1560  3EFF               	addlw	-1
  8002     1561  1D03               	skipz
  8003     1562  2D5E               	goto	u4175
  8004     1563  1003               	clrc
  8005     1564  0D7D               	rlf	??_Lcd_CreateCustomChar,w
  8006     1565  3E40               	addlw	64
  8007     1566  00F9               	movwf	Lcd_Command@cmd
  8008     1567  0822               	movf	Lcd_CreateCustomChar@config,w
  8009     1568  120A  158A  2278  160A  118A  	fcall	_Lcd_Command
  8010     156D                     l2484:
  8011                           
  8012                           ;../../pic16flcd.c: 185:         for(i = 0; i < 8; i++) {
  8013     156D  1283               	bcf	3,5	;RP0=0, select bank0
  8014     156E  1303               	bcf	3,6	;RP1=0, select bank0
  8015     156F  01A3               	clrf	Lcd_CreateCustomChar@i
  8016     1570                     l2490:
  8017                           
  8018                           ;../../pic16flcd.c: 186:             Lcd_WriteChar(config, charmap[i]);
  8019     1570  0823               	movf	Lcd_CreateCustomChar@i,w
  8020     1571  0721               	addwf	Lcd_CreateCustomChar@charmap,w
  8021     1572  00FD               	movwf	??_Lcd_CreateCustomChar
  8022     1573  087D               	movf	??_Lcd_CreateCustomChar,w
  8023     1574  0084               	movwf	4
  8024     1575  1383               	bcf	3,7	;select IRP bank0
  8025     1576  0800               	movf	0,w
  8026     1577  00F9               	movwf	Lcd_WriteChar@data
  8027     1578  0822               	movf	Lcd_CreateCustomChar@config,w
  8028     1579  120A  118A  206C  160A  118A  	fcall	_Lcd_WriteChar
  8029     157E                     l2492:
  8030                           
  8031                           ;../../pic16flcd.c: 187:         }
  8032     157E  3001               	movlw	1
  8033     157F  00FD               	movwf	??_Lcd_CreateCustomChar
  8034     1580  087D               	movf	??_Lcd_CreateCustomChar,w
  8035     1581  1283               	bcf	3,5	;RP0=0, select bank0
  8036     1582  1303               	bcf	3,6	;RP1=0, select bank0
  8037     1583  07A3               	addwf	Lcd_CreateCustomChar@i,f
  8038     1584                     l2494:
  8039     1584  3008               	movlw	8
  8040     1585  0223               	subwf	Lcd_CreateCustomChar@i,w
  8041     1586  1C03               	skipc
  8042     1587  2D89               	goto	u4181
  8043     1588  2D8A               	goto	u4180
  8044     1589                     u4181:
  8045     1589  2D70               	goto	l2490
  8046     158A                     u4180:
  8047     158A                     l147:
  8048     158A  0008               	return
  8049     158B                     __end_of_Lcd_CreateCustomChar:
  8050                           
  8051                           	psect	text32
  8052     006C                     __ptext32:	
  8053 ;; *************** function _Lcd_WriteChar *****************
  8054 ;; Defined at:
  8055 ;;		line 77 in file "../../pic16flcd.c"
  8056 ;; Parameters:    Size  Location     Type
  8057 ;;  config          1    wreg     PTR struct .
  8058 ;;		 -> main@lcd(8), 
  8059 ;;  data            1    9[COMMON] unsigned char 
  8060 ;; Auto vars:     Size  Location     Type
  8061 ;;  config          1   12[COMMON] PTR struct .
  8062 ;;		 -> main@lcd(8), 
  8063 ;; Return value:  Size  Location     Type
  8064 ;;                  1    wreg      void 
  8065 ;; Registers used:
  8066 ;;		wreg, fsr0l, fsr0h, status,2, status,0, pclath, cstack
  8067 ;; Tracked objects:
  8068 ;;		On entry : 0/0
  8069 ;;		On exit  : 0/0
  8070 ;;		Unchanged: 0/0
  8071 ;; Data sizes:     COMMON   BANK0   BANK1   BANK3   BANK2
  8072 ;;      Params:         1       0       0       0       0
  8073 ;;      Locals:         1       0       0       0       0
  8074 ;;      Temps:          2       0       0       0       0
  8075 ;;      Totals:         4       0       0       0       0
  8076 ;;Total ram usage:        4 bytes
  8077 ;; Hardware stack levels used: 1
  8078 ;; Hardware stack levels required when called: 2
  8079 ;; This function calls:
  8080 ;;		_PulseEnable
  8081 ;;		_SetBit
  8082 ;; This function is called by:
  8083 ;;		_Lcd_WriteString
  8084 ;;		_Lcd_CreateCustomChar
  8085 ;;		_Lcd_WriteCustomChar
  8086 ;; This function uses a non-reentrant model
  8087 ;;
  8088                           
  8089     006C                     _Lcd_WriteChar:	
  8090                           ;psect for function _Lcd_WriteChar
  8091                           
  8092                           
  8093                           ;incstack = 0
  8094                           ; Regs used in _Lcd_WriteChar: [wreg-fsr0h+status,2+status,0+pclath+cstack]
  8095                           ;Lcd_WriteChar@config stored from wreg
  8096     006C  00FC               	movwf	Lcd_WriteChar@config
  8097     006D                     l2066:
  8098                           
  8099                           ;../../pic16flcd.c: 79:     SetBit(config->port, config->d4_pin, (data >> 4) & 0x01);
  8100     006D  087C               	movf	Lcd_WriteChar@config,w
  8101     006E  0084               	movwf	4
  8102     006F  1383               	bcf	3,7	;select IRP bank0
  8103     0070  0800               	movf	0,w
  8104     0071  00F0               	movwf	SetBit@port
  8105     0072  0A84               	incf	4,f
  8106     0073  0800               	movf	0,w
  8107     0074  0384               	decf	4,f
  8108     0075  00F1               	movwf	SetBit@port+1
  8109     0076  087C               	movf	Lcd_WriteChar@config,w
  8110     0077  3E04               	addlw	4
  8111     0078  0084               	movwf	4
  8112     0079  0800               	movf	0,w
  8113     007A  00F2               	movwf	SetBit@pin
  8114     007B  0879               	movf	Lcd_WriteChar@data,w
  8115     007C  00FB               	movwf	??_Lcd_WriteChar+1
  8116     007D  3004               	movlw	4
  8117     007E                     u3095:
  8118     007E  1003               	clrc
  8119     007F  0CFB               	rrf	??_Lcd_WriteChar+1,f
  8120     0080  3EFF               	addlw	-1
  8121     0081  1D03               	skipz
  8122     0082  287E               	goto	u3095
  8123     0083  187B               	btfsc	??_Lcd_WriteChar+1,0
  8124     0084  2886               	goto	u3101
  8125     0085  2888               	goto	u3100
  8126     0086                     u3101:
  8127     0086  3001               	movlw	1
  8128     0087  2889               	goto	u3110
  8129     0088                     u3100:
  8130     0088  3000               	movlw	0
  8131     0089                     u3110:
  8132     0089  00F3               	movwf	SetBit@value
  8133     008A  160A  118A  24F2  120A  118A  	fcall	_SetBit
  8134                           
  8135                           ;../../pic16flcd.c: 80:     SetBit(config->port, config->d5_pin, (data >> 5) & 0x01);
  8136     008F  087C               	movf	Lcd_WriteChar@config,w
  8137     0090  0084               	movwf	4
  8138     0091  1383               	bcf	3,7	;select IRP bank0
  8139     0092  0800               	movf	0,w
  8140     0093  00F0               	movwf	SetBit@port
  8141     0094  0A84               	incf	4,f
  8142     0095  0800               	movf	0,w
  8143     0096  0384               	decf	4,f
  8144     0097  00F1               	movwf	SetBit@port+1
  8145     0098  087C               	movf	Lcd_WriteChar@config,w
  8146     0099  3E05               	addlw	5
  8147     009A  0084               	movwf	4
  8148     009B  0800               	movf	0,w
  8149     009C  00F2               	movwf	SetBit@pin
  8150     009D  0879               	movf	Lcd_WriteChar@data,w
  8151     009E  00FB               	movwf	??_Lcd_WriteChar+1
  8152     009F  3005               	movlw	5
  8153     00A0                     u3125:
  8154     00A0  1003               	clrc
  8155     00A1  0CFB               	rrf	??_Lcd_WriteChar+1,f
  8156     00A2  3EFF               	addlw	-1
  8157     00A3  1D03               	skipz
  8158     00A4  28A0               	goto	u3125
  8159     00A5  187B               	btfsc	??_Lcd_WriteChar+1,0
  8160     00A6  28A8               	goto	u3131
  8161     00A7  28AA               	goto	u3130
  8162     00A8                     u3131:
  8163     00A8  3001               	movlw	1
  8164     00A9  28AB               	goto	u3140
  8165     00AA                     u3130:
  8166     00AA  3000               	movlw	0
  8167     00AB                     u3140:
  8168     00AB  00F3               	movwf	SetBit@value
  8169     00AC  160A  118A  24F2  120A  118A  	fcall	_SetBit
  8170                           
  8171                           ;../../pic16flcd.c: 81:     SetBit(config->port, config->d6_pin, (data >> 6) & 0x01);
  8172     00B1  087C               	movf	Lcd_WriteChar@config,w
  8173     00B2  0084               	movwf	4
  8174     00B3  1383               	bcf	3,7	;select IRP bank0
  8175     00B4  0800               	movf	0,w
  8176     00B5  00F0               	movwf	SetBit@port
  8177     00B6  0A84               	incf	4,f
  8178     00B7  0800               	movf	0,w
  8179     00B8  0384               	decf	4,f
  8180     00B9  00F1               	movwf	SetBit@port+1
  8181     00BA  087C               	movf	Lcd_WriteChar@config,w
  8182     00BB  3E06               	addlw	6
  8183     00BC  0084               	movwf	4
  8184     00BD  0800               	movf	0,w
  8185     00BE  00F2               	movwf	SetBit@pin
  8186     00BF  0879               	movf	Lcd_WriteChar@data,w
  8187     00C0  00FB               	movwf	??_Lcd_WriteChar+1
  8188     00C1  3006               	movlw	6
  8189     00C2                     u3155:
  8190     00C2  1003               	clrc
  8191     00C3  0CFB               	rrf	??_Lcd_WriteChar+1,f
  8192     00C4  3EFF               	addlw	-1
  8193     00C5  1D03               	skipz
  8194     00C6  28C2               	goto	u3155
  8195     00C7  187B               	btfsc	??_Lcd_WriteChar+1,0
  8196     00C8  28CA               	goto	u3161
  8197     00C9  28CC               	goto	u3160
  8198     00CA                     u3161:
  8199     00CA  3001               	movlw	1
  8200     00CB  28CD               	goto	u3170
  8201     00CC                     u3160:
  8202     00CC  3000               	movlw	0
  8203     00CD                     u3170:
  8204     00CD  00F3               	movwf	SetBit@value
  8205     00CE  160A  118A  24F2  120A  118A  	fcall	_SetBit
  8206                           
  8207                           ;../../pic16flcd.c: 82:     SetBit(config->port, config->d7_pin, (data >> 7) & 0x01);
  8208     00D3  087C               	movf	Lcd_WriteChar@config,w
  8209     00D4  0084               	movwf	4
  8210     00D5  1383               	bcf	3,7	;select IRP bank0
  8211     00D6  0800               	movf	0,w
  8212     00D7  00F0               	movwf	SetBit@port
  8213     00D8  0A84               	incf	4,f
  8214     00D9  0800               	movf	0,w
  8215     00DA  0384               	decf	4,f
  8216     00DB  00F1               	movwf	SetBit@port+1
  8217     00DC  087C               	movf	Lcd_WriteChar@config,w
  8218     00DD  3E07               	addlw	7
  8219     00DE  0084               	movwf	4
  8220     00DF  0800               	movf	0,w
  8221     00E0  00F2               	movwf	SetBit@pin
  8222     00E1  0879               	movf	Lcd_WriteChar@data,w
  8223     00E2  00FB               	movwf	??_Lcd_WriteChar+1
  8224     00E3  3007               	movlw	7
  8225     00E4                     u3185:
  8226     00E4  1003               	clrc
  8227     00E5  0CFB               	rrf	??_Lcd_WriteChar+1,f
  8228     00E6  3EFF               	addlw	-1
  8229     00E7  1D03               	skipz
  8230     00E8  28E4               	goto	u3185
  8231     00E9  187B               	btfsc	??_Lcd_WriteChar+1,0
  8232     00EA  28EC               	goto	u3191
  8233     00EB  28EE               	goto	u3190
  8234     00EC                     u3191:
  8235     00EC  3001               	movlw	1
  8236     00ED  28EF               	goto	u3200
  8237     00EE                     u3190:
  8238     00EE  3000               	movlw	0
  8239     00EF                     u3200:
  8240     00EF  00F3               	movwf	SetBit@value
  8241     00F0  160A  118A  24F2  120A  118A  	fcall	_SetBit
  8242                           
  8243                           ;../../pic16flcd.c: 84:     SetBit(config->port, config->rs_pin, 1);
  8244     00F5  087C               	movf	Lcd_WriteChar@config,w
  8245     00F6  0084               	movwf	4
  8246     00F7  1383               	bcf	3,7	;select IRP bank0
  8247     00F8  0800               	movf	0,w
  8248     00F9  00F0               	movwf	SetBit@port
  8249     00FA  0A84               	incf	4,f
  8250     00FB  0800               	movf	0,w
  8251     00FC  0384               	decf	4,f
  8252     00FD  00F1               	movwf	SetBit@port+1
  8253     00FE  087C               	movf	Lcd_WriteChar@config,w
  8254     00FF  3E02               	addlw	2
  8255     0100  0084               	movwf	4
  8256     0101  0800               	movf	0,w
  8257     0102  00F2               	movwf	SetBit@pin
  8258     0103  01F3               	clrf	SetBit@value
  8259     0104  0AF3               	incf	SetBit@value,f
  8260     0105  160A  118A  24F2  120A  118A  	fcall	_SetBit
  8261                           
  8262                           ;../../pic16flcd.c: 85:     PulseEnable(config);
  8263     010A  087C               	movf	Lcd_WriteChar@config,w
  8264     010B  160A  118A  251E  120A  118A  	fcall	_PulseEnable
  8265                           
  8266                           ;../../pic16flcd.c: 88:     SetBit(config->port, config->d4_pin, data & 0x01);
  8267     0110  087C               	movf	Lcd_WriteChar@config,w
  8268     0111  0084               	movwf	4
  8269     0112  1383               	bcf	3,7	;select IRP bank0
  8270     0113  0800               	movf	0,w
  8271     0114  00F0               	movwf	SetBit@port
  8272     0115  0A84               	incf	4,f
  8273     0116  0800               	movf	0,w
  8274     0117  0384               	decf	4,f
  8275     0118  00F1               	movwf	SetBit@port+1
  8276     0119  087C               	movf	Lcd_WriteChar@config,w
  8277     011A  3E04               	addlw	4
  8278     011B  0084               	movwf	4
  8279     011C  0800               	movf	0,w
  8280     011D  00F2               	movwf	SetBit@pin
  8281     011E  1879               	btfsc	Lcd_WriteChar@data,0
  8282     011F  2921               	goto	u3211
  8283     0120  2923               	goto	u3210
  8284     0121                     u3211:
  8285     0121  3001               	movlw	1
  8286     0122  2924               	goto	u3220
  8287     0123                     u3210:
  8288     0123  3000               	movlw	0
  8289     0124                     u3220:
  8290     0124  00F3               	movwf	SetBit@value
  8291     0125  160A  118A  24F2  120A  118A  	fcall	_SetBit
  8292                           
  8293                           ;../../pic16flcd.c: 89:     SetBit(config->port, config->d5_pin, (data >> 1) & 0x01);
  8294     012A  087C               	movf	Lcd_WriteChar@config,w
  8295     012B  0084               	movwf	4
  8296     012C  1383               	bcf	3,7	;select IRP bank0
  8297     012D  0800               	movf	0,w
  8298     012E  00F0               	movwf	SetBit@port
  8299     012F  0A84               	incf	4,f
  8300     0130  0800               	movf	0,w
  8301     0131  0384               	decf	4,f
  8302     0132  00F1               	movwf	SetBit@port+1
  8303     0133  087C               	movf	Lcd_WriteChar@config,w
  8304     0134  3E05               	addlw	5
  8305     0135  0084               	movwf	4
  8306     0136  0800               	movf	0,w
  8307     0137  00F2               	movwf	SetBit@pin
  8308     0138  0879               	movf	Lcd_WriteChar@data,w
  8309     0139  00FB               	movwf	??_Lcd_WriteChar+1
  8310     013A  3001               	movlw	1
  8311     013B                     u3235:
  8312     013B  1003               	clrc
  8313     013C  0CFB               	rrf	??_Lcd_WriteChar+1,f
  8314     013D  3EFF               	addlw	-1
  8315     013E  1D03               	skipz
  8316     013F  293B               	goto	u3235
  8317     0140  187B               	btfsc	??_Lcd_WriteChar+1,0
  8318     0141  2943               	goto	u3241
  8319     0142  2945               	goto	u3240
  8320     0143                     u3241:
  8321     0143  3001               	movlw	1
  8322     0144  2946               	goto	u3250
  8323     0145                     u3240:
  8324     0145  3000               	movlw	0
  8325     0146                     u3250:
  8326     0146  00F3               	movwf	SetBit@value
  8327     0147  160A  118A  24F2  120A  118A  	fcall	_SetBit
  8328                           
  8329                           ;../../pic16flcd.c: 90:     SetBit(config->port, config->d6_pin, (data >> 2) & 0x01);
  8330     014C  087C               	movf	Lcd_WriteChar@config,w
  8331     014D  0084               	movwf	4
  8332     014E  1383               	bcf	3,7	;select IRP bank0
  8333     014F  0800               	movf	0,w
  8334     0150  00F0               	movwf	SetBit@port
  8335     0151  0A84               	incf	4,f
  8336     0152  0800               	movf	0,w
  8337     0153  0384               	decf	4,f
  8338     0154  00F1               	movwf	SetBit@port+1
  8339     0155  087C               	movf	Lcd_WriteChar@config,w
  8340     0156  3E06               	addlw	6
  8341     0157  0084               	movwf	4
  8342     0158  0800               	movf	0,w
  8343     0159  00F2               	movwf	SetBit@pin
  8344     015A  0879               	movf	Lcd_WriteChar@data,w
  8345     015B  00FB               	movwf	??_Lcd_WriteChar+1
  8346     015C  3002               	movlw	2
  8347     015D                     u3265:
  8348     015D  1003               	clrc
  8349     015E  0CFB               	rrf	??_Lcd_WriteChar+1,f
  8350     015F  3EFF               	addlw	-1
  8351     0160  1D03               	skipz
  8352     0161  295D               	goto	u3265
  8353     0162  187B               	btfsc	??_Lcd_WriteChar+1,0
  8354     0163  2965               	goto	u3271
  8355     0164  2967               	goto	u3270
  8356     0165                     u3271:
  8357     0165  3001               	movlw	1
  8358     0166  2968               	goto	u3280
  8359     0167                     u3270:
  8360     0167  3000               	movlw	0
  8361     0168                     u3280:
  8362     0168  00F3               	movwf	SetBit@value
  8363     0169  160A  118A  24F2  120A  118A  	fcall	_SetBit
  8364                           
  8365                           ;../../pic16flcd.c: 91:     SetBit(config->port, config->d7_pin, (data >> 3) & 0x01);
  8366     016E  087C               	movf	Lcd_WriteChar@config,w
  8367     016F  0084               	movwf	4
  8368     0170  1383               	bcf	3,7	;select IRP bank0
  8369     0171  0800               	movf	0,w
  8370     0172  00F0               	movwf	SetBit@port
  8371     0173  0A84               	incf	4,f
  8372     0174  0800               	movf	0,w
  8373     0175  0384               	decf	4,f
  8374     0176  00F1               	movwf	SetBit@port+1
  8375     0177  087C               	movf	Lcd_WriteChar@config,w
  8376     0178  3E07               	addlw	7
  8377     0179  0084               	movwf	4
  8378     017A  0800               	movf	0,w
  8379     017B  00F2               	movwf	SetBit@pin
  8380     017C  0879               	movf	Lcd_WriteChar@data,w
  8381     017D  00FB               	movwf	??_Lcd_WriteChar+1
  8382     017E  3003               	movlw	3
  8383     017F                     u3295:
  8384     017F  1003               	clrc
  8385     0180  0CFB               	rrf	??_Lcd_WriteChar+1,f
  8386     0181  3EFF               	addlw	-1
  8387     0182  1D03               	skipz
  8388     0183  297F               	goto	u3295
  8389     0184  187B               	btfsc	??_Lcd_WriteChar+1,0
  8390     0185  2987               	goto	u3301
  8391     0186  2989               	goto	u3300
  8392     0187                     u3301:
  8393     0187  3001               	movlw	1
  8394     0188  298A               	goto	u3310
  8395     0189                     u3300:
  8396     0189  3000               	movlw	0
  8397     018A                     u3310:
  8398     018A  00F3               	movwf	SetBit@value
  8399     018B  160A  118A  24F2  120A  118A  	fcall	_SetBit
  8400                           
  8401                           ;../../pic16flcd.c: 93:     PulseEnable(config);
  8402     0190  087C               	movf	Lcd_WriteChar@config,w
  8403     0191  160A  118A  251E  120A  118A  	fcall	_PulseEnable
  8404     0196                     l121:
  8405     0196  0008               	return
  8406     0197                     __end_of_Lcd_WriteChar:
  8407                           
  8408                           	psect	text33
  8409     0A78                     __ptext33:	
  8410 ;; *************** function _Lcd_Command *****************
  8411 ;; Defined at:
  8412 ;;		line 51 in file "../../pic16flcd.c"
  8413 ;; Parameters:    Size  Location     Type
  8414 ;;  config          1    wreg     PTR struct .
  8415 ;;		 -> main@lcd(8), 
  8416 ;;  cmd             1    9[COMMON] unsigned char 
  8417 ;; Auto vars:     Size  Location     Type
  8418 ;;  config          1   12[COMMON] PTR struct .
  8419 ;;		 -> main@lcd(8), 
  8420 ;; Return value:  Size  Location     Type
  8421 ;;                  1    wreg      void 
  8422 ;; Registers used:
  8423 ;;		wreg, fsr0l, fsr0h, status,2, status,0, pclath, cstack
  8424 ;; Tracked objects:
  8425 ;;		On entry : 0/0
  8426 ;;		On exit  : 0/0
  8427 ;;		Unchanged: 0/0
  8428 ;; Data sizes:     COMMON   BANK0   BANK1   BANK3   BANK2
  8429 ;;      Params:         1       0       0       0       0
  8430 ;;      Locals:         1       0       0       0       0
  8431 ;;      Temps:          2       0       0       0       0
  8432 ;;      Totals:         4       0       0       0       0
  8433 ;;Total ram usage:        4 bytes
  8434 ;; Hardware stack levels used: 1
  8435 ;; Hardware stack levels required when called: 2
  8436 ;; This function calls:
  8437 ;;		_PulseEnable
  8438 ;;		_SetBit
  8439 ;; This function is called by:
  8440 ;;		_Lcd_Init
  8441 ;;		_Lcd_Clear
  8442 ;;		_Lcd_SetCursor
  8443 ;;		_Lcd_CreateCustomChar
  8444 ;; This function uses a non-reentrant model
  8445 ;;
  8446                           
  8447     0A78                     _Lcd_Command:	
  8448                           ;psect for function _Lcd_Command
  8449                           
  8450                           
  8451                           ;incstack = 0
  8452                           ; Regs used in _Lcd_Command: [wreg-fsr0h+status,2+status,0+pclath+cstack]
  8453                           ;Lcd_Command@config stored from wreg
  8454     0A78  00FC               	movwf	Lcd_Command@config
  8455     0A79                     l1996:
  8456                           
  8457                           ;../../pic16flcd.c: 53:     SetBit(config->port, config->d4_pin, (cmd >> 4) & 0x01);
  8458     0A79  087C               	movf	Lcd_Command@config,w
  8459     0A7A  0084               	movwf	4
  8460     0A7B  1383               	bcf	3,7	;select IRP bank0
  8461     0A7C  0800               	movf	0,w
  8462     0A7D  00F0               	movwf	SetBit@port
  8463     0A7E  0A84               	incf	4,f
  8464     0A7F  0800               	movf	0,w
  8465     0A80  0384               	decf	4,f
  8466     0A81  00F1               	movwf	SetBit@port+1
  8467     0A82  087C               	movf	Lcd_Command@config,w
  8468     0A83  3E04               	addlw	4
  8469     0A84  0084               	movwf	4
  8470     0A85  0800               	movf	0,w
  8471     0A86  00F2               	movwf	SetBit@pin
  8472     0A87  0879               	movf	Lcd_Command@cmd,w
  8473     0A88  00FB               	movwf	??_Lcd_Command+1
  8474     0A89  3004               	movlw	4
  8475     0A8A                     u2795:
  8476     0A8A  1003               	clrc
  8477     0A8B  0CFB               	rrf	??_Lcd_Command+1,f
  8478     0A8C  3EFF               	addlw	-1
  8479     0A8D  1D03               	skipz
  8480     0A8E  2A8A               	goto	u2795
  8481     0A8F  187B               	btfsc	??_Lcd_Command+1,0
  8482     0A90  2A92               	goto	u2801
  8483     0A91  2A94               	goto	u2800
  8484     0A92                     u2801:
  8485     0A92  3001               	movlw	1
  8486     0A93  2A95               	goto	u2810
  8487     0A94                     u2800:
  8488     0A94  3000               	movlw	0
  8489     0A95                     u2810:
  8490     0A95  00F3               	movwf	SetBit@value
  8491     0A96  160A  118A  24F2  120A  158A  	fcall	_SetBit
  8492                           
  8493                           ;../../pic16flcd.c: 54:     SetBit(config->port, config->d5_pin, (cmd >> 5) & 0x01);
  8494     0A9B  087C               	movf	Lcd_Command@config,w
  8495     0A9C  0084               	movwf	4
  8496     0A9D  1383               	bcf	3,7	;select IRP bank0
  8497     0A9E  0800               	movf	0,w
  8498     0A9F  00F0               	movwf	SetBit@port
  8499     0AA0  0A84               	incf	4,f
  8500     0AA1  0800               	movf	0,w
  8501     0AA2  0384               	decf	4,f
  8502     0AA3  00F1               	movwf	SetBit@port+1
  8503     0AA4  087C               	movf	Lcd_Command@config,w
  8504     0AA5  3E05               	addlw	5
  8505     0AA6  0084               	movwf	4
  8506     0AA7  0800               	movf	0,w
  8507     0AA8  00F2               	movwf	SetBit@pin
  8508     0AA9  0879               	movf	Lcd_Command@cmd,w
  8509     0AAA  00FB               	movwf	??_Lcd_Command+1
  8510     0AAB  3005               	movlw	5
  8511     0AAC                     u2825:
  8512     0AAC  1003               	clrc
  8513     0AAD  0CFB               	rrf	??_Lcd_Command+1,f
  8514     0AAE  3EFF               	addlw	-1
  8515     0AAF  1D03               	skipz
  8516     0AB0  2AAC               	goto	u2825
  8517     0AB1  187B               	btfsc	??_Lcd_Command+1,0
  8518     0AB2  2AB4               	goto	u2831
  8519     0AB3  2AB6               	goto	u2830
  8520     0AB4                     u2831:
  8521     0AB4  3001               	movlw	1
  8522     0AB5  2AB7               	goto	u2840
  8523     0AB6                     u2830:
  8524     0AB6  3000               	movlw	0
  8525     0AB7                     u2840:
  8526     0AB7  00F3               	movwf	SetBit@value
  8527     0AB8  160A  118A  24F2  120A  158A  	fcall	_SetBit
  8528                           
  8529                           ;../../pic16flcd.c: 55:     SetBit(config->port, config->d6_pin, (cmd >> 6) & 0x01);
  8530     0ABD  087C               	movf	Lcd_Command@config,w
  8531     0ABE  0084               	movwf	4
  8532     0ABF  1383               	bcf	3,7	;select IRP bank0
  8533     0AC0  0800               	movf	0,w
  8534     0AC1  00F0               	movwf	SetBit@port
  8535     0AC2  0A84               	incf	4,f
  8536     0AC3  0800               	movf	0,w
  8537     0AC4  0384               	decf	4,f
  8538     0AC5  00F1               	movwf	SetBit@port+1
  8539     0AC6  087C               	movf	Lcd_Command@config,w
  8540     0AC7  3E06               	addlw	6
  8541     0AC8  0084               	movwf	4
  8542     0AC9  0800               	movf	0,w
  8543     0ACA  00F2               	movwf	SetBit@pin
  8544     0ACB  0879               	movf	Lcd_Command@cmd,w
  8545     0ACC  00FB               	movwf	??_Lcd_Command+1
  8546     0ACD  3006               	movlw	6
  8547     0ACE                     u2855:
  8548     0ACE  1003               	clrc
  8549     0ACF  0CFB               	rrf	??_Lcd_Command+1,f
  8550     0AD0  3EFF               	addlw	-1
  8551     0AD1  1D03               	skipz
  8552     0AD2  2ACE               	goto	u2855
  8553     0AD3  187B               	btfsc	??_Lcd_Command+1,0
  8554     0AD4  2AD6               	goto	u2861
  8555     0AD5  2AD8               	goto	u2860
  8556     0AD6                     u2861:
  8557     0AD6  3001               	movlw	1
  8558     0AD7  2AD9               	goto	u2870
  8559     0AD8                     u2860:
  8560     0AD8  3000               	movlw	0
  8561     0AD9                     u2870:
  8562     0AD9  00F3               	movwf	SetBit@value
  8563     0ADA  160A  118A  24F2  120A  158A  	fcall	_SetBit
  8564                           
  8565                           ;../../pic16flcd.c: 56:     SetBit(config->port, config->d7_pin, (cmd >> 7) & 0x01);
  8566     0ADF  087C               	movf	Lcd_Command@config,w
  8567     0AE0  0084               	movwf	4
  8568     0AE1  1383               	bcf	3,7	;select IRP bank0
  8569     0AE2  0800               	movf	0,w
  8570     0AE3  00F0               	movwf	SetBit@port
  8571     0AE4  0A84               	incf	4,f
  8572     0AE5  0800               	movf	0,w
  8573     0AE6  0384               	decf	4,f
  8574     0AE7  00F1               	movwf	SetBit@port+1
  8575     0AE8  087C               	movf	Lcd_Command@config,w
  8576     0AE9  3E07               	addlw	7
  8577     0AEA  0084               	movwf	4
  8578     0AEB  0800               	movf	0,w
  8579     0AEC  00F2               	movwf	SetBit@pin
  8580     0AED  0879               	movf	Lcd_Command@cmd,w
  8581     0AEE  00FB               	movwf	??_Lcd_Command+1
  8582     0AEF  3007               	movlw	7
  8583     0AF0                     u2885:
  8584     0AF0  1003               	clrc
  8585     0AF1  0CFB               	rrf	??_Lcd_Command+1,f
  8586     0AF2  3EFF               	addlw	-1
  8587     0AF3  1D03               	skipz
  8588     0AF4  2AF0               	goto	u2885
  8589     0AF5  187B               	btfsc	??_Lcd_Command+1,0
  8590     0AF6  2AF8               	goto	u2891
  8591     0AF7  2AFA               	goto	u2890
  8592     0AF8                     u2891:
  8593     0AF8  3001               	movlw	1
  8594     0AF9  2AFB               	goto	u2900
  8595     0AFA                     u2890:
  8596     0AFA  3000               	movlw	0
  8597     0AFB                     u2900:
  8598     0AFB  00F3               	movwf	SetBit@value
  8599     0AFC  160A  118A  24F2  120A  158A  	fcall	_SetBit
  8600                           
  8601                           ;../../pic16flcd.c: 58:     SetBit(config->port, config->rs_pin, 0);
  8602     0B01  087C               	movf	Lcd_Command@config,w
  8603     0B02  0084               	movwf	4
  8604     0B03  1383               	bcf	3,7	;select IRP bank0
  8605     0B04  0800               	movf	0,w
  8606     0B05  00F0               	movwf	SetBit@port
  8607     0B06  0A84               	incf	4,f
  8608     0B07  0800               	movf	0,w
  8609     0B08  0384               	decf	4,f
  8610     0B09  00F1               	movwf	SetBit@port+1
  8611     0B0A  087C               	movf	Lcd_Command@config,w
  8612     0B0B  3E02               	addlw	2
  8613     0B0C  0084               	movwf	4
  8614     0B0D  0800               	movf	0,w
  8615     0B0E  00F2               	movwf	SetBit@pin
  8616     0B0F  01F3               	clrf	SetBit@value
  8617     0B10  160A  118A  24F2  120A  158A  	fcall	_SetBit
  8618                           
  8619                           ;../../pic16flcd.c: 59:     PulseEnable(config);
  8620     0B15  087C               	movf	Lcd_Command@config,w
  8621     0B16  160A  118A  251E  120A  158A  	fcall	_PulseEnable
  8622                           
  8623                           ;../../pic16flcd.c: 62:     SetBit(config->port, config->d4_pin, cmd & 0x01);
  8624     0B1B  087C               	movf	Lcd_Command@config,w
  8625     0B1C  0084               	movwf	4
  8626     0B1D  1383               	bcf	3,7	;select IRP bank0
  8627     0B1E  0800               	movf	0,w
  8628     0B1F  00F0               	movwf	SetBit@port
  8629     0B20  0A84               	incf	4,f
  8630     0B21  0800               	movf	0,w
  8631     0B22  0384               	decf	4,f
  8632     0B23  00F1               	movwf	SetBit@port+1
  8633     0B24  087C               	movf	Lcd_Command@config,w
  8634     0B25  3E04               	addlw	4
  8635     0B26  0084               	movwf	4
  8636     0B27  0800               	movf	0,w
  8637     0B28  00F2               	movwf	SetBit@pin
  8638     0B29  1879               	btfsc	Lcd_Command@cmd,0
  8639     0B2A  2B2C               	goto	u2911
  8640     0B2B  2B2E               	goto	u2910
  8641     0B2C                     u2911:
  8642     0B2C  3001               	movlw	1
  8643     0B2D  2B2F               	goto	u2920
  8644     0B2E                     u2910:
  8645     0B2E  3000               	movlw	0
  8646     0B2F                     u2920:
  8647     0B2F  00F3               	movwf	SetBit@value
  8648     0B30  160A  118A  24F2  120A  158A  	fcall	_SetBit
  8649                           
  8650                           ;../../pic16flcd.c: 63:     SetBit(config->port, config->d5_pin, (cmd >> 1) & 0x01);
  8651     0B35  087C               	movf	Lcd_Command@config,w
  8652     0B36  0084               	movwf	4
  8653     0B37  1383               	bcf	3,7	;select IRP bank0
  8654     0B38  0800               	movf	0,w
  8655     0B39  00F0               	movwf	SetBit@port
  8656     0B3A  0A84               	incf	4,f
  8657     0B3B  0800               	movf	0,w
  8658     0B3C  0384               	decf	4,f
  8659     0B3D  00F1               	movwf	SetBit@port+1
  8660     0B3E  087C               	movf	Lcd_Command@config,w
  8661     0B3F  3E05               	addlw	5
  8662     0B40  0084               	movwf	4
  8663     0B41  0800               	movf	0,w
  8664     0B42  00F2               	movwf	SetBit@pin
  8665     0B43  0879               	movf	Lcd_Command@cmd,w
  8666     0B44  00FB               	movwf	??_Lcd_Command+1
  8667     0B45  3001               	movlw	1
  8668     0B46                     u2935:
  8669     0B46  1003               	clrc
  8670     0B47  0CFB               	rrf	??_Lcd_Command+1,f
  8671     0B48  3EFF               	addlw	-1
  8672     0B49  1D03               	skipz
  8673     0B4A  2B46               	goto	u2935
  8674     0B4B  187B               	btfsc	??_Lcd_Command+1,0
  8675     0B4C  2B4E               	goto	u2941
  8676     0B4D  2B50               	goto	u2940
  8677     0B4E                     u2941:
  8678     0B4E  3001               	movlw	1
  8679     0B4F  2B51               	goto	u2950
  8680     0B50                     u2940:
  8681     0B50  3000               	movlw	0
  8682     0B51                     u2950:
  8683     0B51  00F3               	movwf	SetBit@value
  8684     0B52  160A  118A  24F2  120A  158A  	fcall	_SetBit
  8685                           
  8686                           ;../../pic16flcd.c: 64:     SetBit(config->port, config->d6_pin, (cmd >> 2) & 0x01);
  8687     0B57  087C               	movf	Lcd_Command@config,w
  8688     0B58  0084               	movwf	4
  8689     0B59  1383               	bcf	3,7	;select IRP bank0
  8690     0B5A  0800               	movf	0,w
  8691     0B5B  00F0               	movwf	SetBit@port
  8692     0B5C  0A84               	incf	4,f
  8693     0B5D  0800               	movf	0,w
  8694     0B5E  0384               	decf	4,f
  8695     0B5F  00F1               	movwf	SetBit@port+1
  8696     0B60  087C               	movf	Lcd_Command@config,w
  8697     0B61  3E06               	addlw	6
  8698     0B62  0084               	movwf	4
  8699     0B63  0800               	movf	0,w
  8700     0B64  00F2               	movwf	SetBit@pin
  8701     0B65  0879               	movf	Lcd_Command@cmd,w
  8702     0B66  00FB               	movwf	??_Lcd_Command+1
  8703     0B67  3002               	movlw	2
  8704     0B68                     u2965:
  8705     0B68  1003               	clrc
  8706     0B69  0CFB               	rrf	??_Lcd_Command+1,f
  8707     0B6A  3EFF               	addlw	-1
  8708     0B6B  1D03               	skipz
  8709     0B6C  2B68               	goto	u2965
  8710     0B6D  187B               	btfsc	??_Lcd_Command+1,0
  8711     0B6E  2B70               	goto	u2971
  8712     0B6F  2B72               	goto	u2970
  8713     0B70                     u2971:
  8714     0B70  3001               	movlw	1
  8715     0B71  2B73               	goto	u2980
  8716     0B72                     u2970:
  8717     0B72  3000               	movlw	0
  8718     0B73                     u2980:
  8719     0B73  00F3               	movwf	SetBit@value
  8720     0B74  160A  118A  24F2  120A  158A  	fcall	_SetBit
  8721                           
  8722                           ;../../pic16flcd.c: 65:     SetBit(config->port, config->d7_pin, (cmd >> 3) & 0x01);
  8723     0B79  087C               	movf	Lcd_Command@config,w
  8724     0B7A  0084               	movwf	4
  8725     0B7B  1383               	bcf	3,7	;select IRP bank0
  8726     0B7C  0800               	movf	0,w
  8727     0B7D  00F0               	movwf	SetBit@port
  8728     0B7E  0A84               	incf	4,f
  8729     0B7F  0800               	movf	0,w
  8730     0B80  0384               	decf	4,f
  8731     0B81  00F1               	movwf	SetBit@port+1
  8732     0B82  087C               	movf	Lcd_Command@config,w
  8733     0B83  3E07               	addlw	7
  8734     0B84  0084               	movwf	4
  8735     0B85  0800               	movf	0,w
  8736     0B86  00F2               	movwf	SetBit@pin
  8737     0B87  0879               	movf	Lcd_Command@cmd,w
  8738     0B88  00FB               	movwf	??_Lcd_Command+1
  8739     0B89  3003               	movlw	3
  8740     0B8A                     u2995:
  8741     0B8A  1003               	clrc
  8742     0B8B  0CFB               	rrf	??_Lcd_Command+1,f
  8743     0B8C  3EFF               	addlw	-1
  8744     0B8D  1D03               	skipz
  8745     0B8E  2B8A               	goto	u2995
  8746     0B8F  187B               	btfsc	??_Lcd_Command+1,0
  8747     0B90  2B92               	goto	u3001
  8748     0B91  2B94               	goto	u3000
  8749     0B92                     u3001:
  8750     0B92  3001               	movlw	1
  8751     0B93  2B95               	goto	u3010
  8752     0B94                     u3000:
  8753     0B94  3000               	movlw	0
  8754     0B95                     u3010:
  8755     0B95  00F3               	movwf	SetBit@value
  8756     0B96  160A  118A  24F2  120A  158A  	fcall	_SetBit
  8757                           
  8758                           ;../../pic16flcd.c: 67:     PulseEnable(config);
  8759     0B9B  087C               	movf	Lcd_Command@config,w
  8760     0B9C  160A  118A  251E  120A  158A  	fcall	_PulseEnable
  8761     0BA1                     l118:
  8762     0BA1  0008               	return
  8763     0BA2                     __end_of_Lcd_Command:
  8764                           
  8765                           	psect	text34
  8766     151E                     __ptext34:	
  8767 ;; *************** function _PulseEnable *****************
  8768 ;; Defined at:
  8769 ;;		line 37 in file "../../pic16flcd.c"
  8770 ;; Parameters:    Size  Location     Type
  8771 ;;  config          1    wreg     PTR struct .
  8772 ;;		 -> main@lcd(8), 
  8773 ;; Auto vars:     Size  Location     Type
  8774 ;;  config          1    8[COMMON] PTR struct .
  8775 ;;		 -> main@lcd(8), 
  8776 ;; Return value:  Size  Location     Type
  8777 ;;                  1    wreg      void 
  8778 ;; Registers used:
  8779 ;;		wreg, fsr0l, fsr0h, status,2, status,0, pclath, cstack
  8780 ;; Tracked objects:
  8781 ;;		On entry : 0/0
  8782 ;;		On exit  : 0/0
  8783 ;;		Unchanged: 0/0
  8784 ;; Data sizes:     COMMON   BANK0   BANK1   BANK3   BANK2
  8785 ;;      Params:         0       0       0       0       0
  8786 ;;      Locals:         1       0       0       0       0
  8787 ;;      Temps:          2       0       0       0       0
  8788 ;;      Totals:         3       0       0       0       0
  8789 ;;Total ram usage:        3 bytes
  8790 ;; Hardware stack levels used: 1
  8791 ;; Hardware stack levels required when called: 1
  8792 ;; This function calls:
  8793 ;;		_SetBit
  8794 ;; This function is called by:
  8795 ;;		_Lcd_Command
  8796 ;;		_Lcd_WriteChar
  8797 ;; This function uses a non-reentrant model
  8798 ;;
  8799                           
  8800     151E                     _PulseEnable:	
  8801                           ;psect for function _PulseEnable
  8802                           
  8803                           
  8804                           ;incstack = 0
  8805                           ; Regs used in _PulseEnable: [wreg-fsr0h+status,2+status,0+pclath+cstack]
  8806                           ;PulseEnable@config stored from wreg
  8807     151E  00F8               	movwf	PulseEnable@config
  8808     151F                     l1948:
  8809                           
  8810                           ;../../pic16flcd.c: 38:     SetBit(config->port, config->en_pin, 1);
  8811     151F  0878               	movf	PulseEnable@config,w
  8812     1520  0084               	movwf	4
  8813     1521  1383               	bcf	3,7	;select IRP bank0
  8814     1522  0800               	movf	0,w
  8815     1523  00F0               	movwf	SetBit@port
  8816     1524  0A84               	incf	4,f
  8817     1525  0800               	movf	0,w
  8818     1526  0384               	decf	4,f
  8819     1527  00F1               	movwf	SetBit@port+1
  8820     1528  0878               	movf	PulseEnable@config,w
  8821     1529  3E03               	addlw	3
  8822     152A  0084               	movwf	4
  8823     152B  0800               	movf	0,w
  8824     152C  00F2               	movwf	SetBit@pin
  8825     152D  01F3               	clrf	SetBit@value
  8826     152E  0AF3               	incf	SetBit@value,f
  8827     152F  160A  118A  24F2  160A  118A  	fcall	_SetBit
  8828     1534                     l1950:
  8829                           
  8830                           ;../../pic16flcd.c: 39:     _delay((unsigned long)((2)*(4000000/4000.0)));
  8831     1534  3003               	movlw	3
  8832     1535  00F7               	movwf	??_PulseEnable+1
  8833     1536  3097               	movlw	151
  8834     1537  00F6               	movwf	??_PulseEnable
  8835     1538                     u4957:
  8836     1538  0BF6               	decfsz	??_PulseEnable,f
  8837     1539  2D38               	goto	u4957
  8838     153A  0BF7               	decfsz	??_PulseEnable+1,f
  8839     153B  2D38               	goto	u4957
  8840     153C  2D3D               	nop2
  8841     153D                     l1952:
  8842                           
  8843                           ;../../pic16flcd.c: 40:     SetBit(config->port, config->en_pin, 0);
  8844     153D  0878               	movf	PulseEnable@config,w
  8845     153E  0084               	movwf	4
  8846     153F  1383               	bcf	3,7	;select IRP bank0
  8847     1540  0800               	movf	0,w
  8848     1541  00F0               	movwf	SetBit@port
  8849     1542  0A84               	incf	4,f
  8850     1543  0800               	movf	0,w
  8851     1544  0384               	decf	4,f
  8852     1545  00F1               	movwf	SetBit@port+1
  8853     1546  0878               	movf	PulseEnable@config,w
  8854     1547  3E03               	addlw	3
  8855     1548  0084               	movwf	4
  8856     1549  0800               	movf	0,w
  8857     154A  00F2               	movwf	SetBit@pin
  8858     154B  01F3               	clrf	SetBit@value
  8859     154C  160A  118A  24F2  160A  118A  	fcall	_SetBit
  8860     1551                     l115:
  8861     1551  0008               	return
  8862     1552                     __end_of_PulseEnable:
  8863                           
  8864                           	psect	text35
  8865     14F2                     __ptext35:	
  8866 ;; *************** function _SetBit *****************
  8867 ;; Defined at:
  8868 ;;		line 23 in file "../../pic16flcd.c"
  8869 ;; Parameters:    Size  Location     Type
  8870 ;;  port            2    0[COMMON] PTR volatile unsigned ch
  8871 ;;		 -> PORTD(1), 
  8872 ;;  pin             1    2[COMMON] unsigned char 
  8873 ;;  value           1    3[COMMON] _Bool 
  8874 ;; Auto vars:     Size  Location     Type
  8875 ;;		None
  8876 ;; Return value:  Size  Location     Type
  8877 ;;                  1    wreg      void 
  8878 ;; Registers used:
  8879 ;;		wreg, fsr0l, fsr0h, status,2, status,0
  8880 ;; Tracked objects:
  8881 ;;		On entry : 0/0
  8882 ;;		On exit  : 0/0
  8883 ;;		Unchanged: 0/0
  8884 ;; Data sizes:     COMMON   BANK0   BANK1   BANK3   BANK2
  8885 ;;      Params:         4       0       0       0       0
  8886 ;;      Locals:         0       0       0       0       0
  8887 ;;      Temps:          2       0       0       0       0
  8888 ;;      Totals:         6       0       0       0       0
  8889 ;;Total ram usage:        6 bytes
  8890 ;; Hardware stack levels used: 1
  8891 ;; This function calls:
  8892 ;;		Nothing
  8893 ;; This function is called by:
  8894 ;;		_PulseEnable
  8895 ;;		_Lcd_Command
  8896 ;;		_Lcd_WriteChar
  8897 ;; This function uses a non-reentrant model
  8898 ;;
  8899                           
  8900     14F2                     _SetBit:	
  8901                           ;psect for function _SetBit
  8902                           
  8903     14F2                     l1864:	
  8904                           ;incstack = 0
  8905                           ; Regs used in _SetBit: [wreg-fsr0h+status,2+status,0]
  8906                           
  8907                           
  8908                           ;../../pic16flcd.c: 24:     if (value) {
  8909     14F2  0873               	movf	SetBit@value,w
  8910     14F3  1903               	btfsc	3,2
  8911     14F4  2CF6               	goto	u2501
  8912     14F5  2CF7               	goto	u2500
  8913     14F6                     u2501:
  8914     14F6  2D0A               	goto	l1868
  8915     14F7                     u2500:
  8916     14F7                     l1866:
  8917                           
  8918                           ;../../pic16flcd.c: 25:         *port |= (1 << pin);
  8919     14F7  3001               	movlw	1
  8920     14F8  00F4               	movwf	??_SetBit
  8921     14F9  0A72               	incf	SetBit@pin,w
  8922     14FA  2CFD               	goto	u2514
  8923     14FB                     u2515:
  8924     14FB  1003               	clrc
  8925     14FC  0DF4               	rlf	??_SetBit,f
  8926     14FD                     u2514:
  8927     14FD  3EFF               	addlw	-1
  8928     14FE  1D03               	skipz
  8929     14FF  2CFB               	goto	u2515
  8930     1500  0874               	movf	??_SetBit,w
  8931     1501  00F5               	movwf	??_SetBit+1
  8932     1502  0870               	movf	SetBit@port,w
  8933     1503  0084               	movwf	4
  8934     1504  1783               	bsf	3,7
  8935     1505  1C71               	btfss	SetBit@port+1,0
  8936     1506  1383               	bcf	3,7
  8937     1507  0875               	movf	??_SetBit+1,w
  8938     1508  0480               	iorwf	0,f
  8939                           
  8940                           ;../../pic16flcd.c: 26:     } else {
  8941     1509  2D1D               	goto	l112
  8942     150A                     l1868:
  8943                           
  8944                           ;../../pic16flcd.c: 27:         *port &= ~(1 << pin);
  8945     150A  3001               	movlw	1
  8946     150B  00F4               	movwf	??_SetBit
  8947     150C  0A72               	incf	SetBit@pin,w
  8948     150D  2D10               	goto	u2524
  8949     150E                     u2525:
  8950     150E  1003               	clrc
  8951     150F  0DF4               	rlf	??_SetBit,f
  8952     1510                     u2524:
  8953     1510  3EFF               	addlw	-1
  8954     1511  1D03               	skipz
  8955     1512  2D0E               	goto	u2525
  8956     1513  0874               	movf	??_SetBit,w
  8957     1514  3AFF               	xorlw	255
  8958     1515  00F5               	movwf	??_SetBit+1
  8959     1516  0870               	movf	SetBit@port,w
  8960     1517  0084               	movwf	4
  8961     1518  1783               	bsf	3,7
  8962     1519  1C71               	btfss	SetBit@port+1,0
  8963     151A  1383               	bcf	3,7
  8964     151B  0875               	movf	??_SetBit+1,w
  8965     151C  0580               	andwf	0,f
  8966     151D                     l112:
  8967     151D  0008               	return
  8968     151E                     __end_of_SetBit:
  8969     007E                     btemp	set	126	;btemp
  8970     007E                     wtemp0	set	126
  8971                           
  8972                           	psect	config
  8973                           
  8974                           ;Config register CONFIG1 @ 0x2007
  8975                           ;	Oscillator Selection bits
  8976                           ;	FOSC = INTRC_NOCLKOUT, INTOSCIO oscillator: I/O function on RA6/OSC2/CLKOUT pin, I/O f
      +                          unction on RA7/OSC1/CLKIN
  8977                           ;	Watchdog Timer Enable bit
  8978                           ;	WDTE = OFF, WDT disabled and can be enabled by SWDTEN bit of the WDTCON register
  8979                           ;	Power-up Timer Enable bit
  8980                           ;	PWRTE = OFF, PWRT disabled
  8981                           ;	RE3/MCLR pin function select bit
  8982                           ;	MCLRE = ON, RE3/MCLR pin function is MCLR
  8983                           ;	Code Protection bit
  8984                           ;	CP = OFF, Program memory code protection is disabled
  8985                           ;	Data Code Protection bit
  8986                           ;	CPD = OFF, Data memory code protection is disabled
  8987                           ;	Brown Out Reset Selection bits
  8988                           ;	BOREN = ON, BOR enabled
  8989                           ;	Internal External Switchover bit
  8990                           ;	IESO = 0x1, unprogrammed default
  8991                           ;	Fail-Safe Clock Monitor Enabled bit
  8992                           ;	FCMEN = 0x1, unprogrammed default
  8993                           ;	Low Voltage Programming Enable bit
  8994                           ;	LVP = OFF, RB3 pin has digital I/O, HV on MCLR must be used for programming
  8995                           ;	In-Circuit Debugger Mode bit
  8996                           ;	DEBUG = 0x1, unprogrammed default
  8997     2007                     	org	8199
  8998     2007  2FF4               	dw	12276

Data Sizes:
    Strings     27
    Constant    0
    Data        16
    BSS         37
    Persistent  0
    Stack       0

Auto Spaces:
    Space          Size  Autos    Used
    COMMON           14     14      14
    BANK0            80     79      80
    BANK1            80     41      61
    BANK3            96      0      32
    BANK2            96      0       0

Pointer List with Targets:

    f$.$buffer	PTR unsigned char  size(1) Largest target is 0

    f$.$source	PTR const unsigned char  size(1) Largest target is 0

    F1788$port	PTR volatile unsigned char  size(2) Largest target is 1
		 -> PORTD(SFR0[1]), 

    fputc@fp	PTR struct _IO_FILE size(1) Largest target is 11
		 -> sprintf@f(BANK0[11]), 

    fputc@fp$.$buffer	PTR unsigned char  size(1) Largest target is 0

    fputc@fp$.$source	PTR const unsigned char  size(1) Largest target is 0

    fputs@fp	PTR struct _IO_FILE size(1) Largest target is 11
		 -> sprintf@f(BANK0[11]), 

    fputs@s	PTR const unsigned char  size(1) Largest target is 32
		 -> dbuf(BANK3[32]), 

    lcd$port	PTR volatile unsigned char  size(2) Largest target is 1
		 -> PORTD(SFR0[1]), 

    Lcd_Clear@config	PTR struct . size(1) Largest target is 8
		 -> main@lcd(BANK1[8]), 

    Lcd_Clear@config$port	PTR volatile unsigned char  size(2) Largest target is 1
		 -> PORTD(SFR0[1]), 

    Lcd_Command@config	PTR struct . size(1) Largest target is 8
		 -> main@lcd(BANK1[8]), 

    Lcd_Command@config$port	PTR volatile unsigned char  size(2) Largest target is 1
		 -> PORTD(SFR0[1]), 

    Lcd_CreateCustomChar@charmap	PTR unsigned char  size(1) Largest target is 8
		 -> celsiusChar(BANK1[8]), 

    Lcd_CreateCustomChar@config	PTR struct . size(1) Largest target is 8
		 -> main@lcd(BANK1[8]), 

    Lcd_CreateCustomChar@config$port	PTR volatile unsigned char  size(2) Largest target is 1
		 -> PORTD(SFR0[1]), 

    Lcd_Init@config	PTR struct . size(1) Largest target is 8
		 -> main@lcd(BANK1[8]), 

    Lcd_Init@config$port	PTR volatile unsigned char  size(2) Largest target is 1
		 -> PORTD(SFR0[1]), 

    Lcd_SetCursor@config	PTR struct . size(1) Largest target is 8
		 -> main@lcd(BANK1[8]), 

    Lcd_SetCursor@config$port	PTR volatile unsigned char  size(2) Largest target is 1
		 -> PORTD(SFR0[1]), 

    Lcd_WriteChar@config	PTR struct . size(1) Largest target is 8
		 -> main@lcd(BANK1[8]), 

    Lcd_WriteChar@config$port	PTR volatile unsigned char  size(2) Largest target is 1
		 -> PORTD(SFR0[1]), 

    Lcd_WriteCustomChar@config	PTR struct . size(1) Largest target is 8
		 -> main@lcd(BANK1[8]), 

    Lcd_WriteCustomChar@config$port	PTR volatile unsigned char  size(2) Largest target is 1
		 -> PORTD(SFR0[1]), 

    Lcd_WriteString@config	PTR struct . size(1) Largest target is 8
		 -> main@lcd(BANK1[8]), 

    Lcd_WriteString@config$port	PTR volatile unsigned char  size(2) Largest target is 1
		 -> PORTD(SFR0[1]), 

    Lcd_WriteString@str	PTR unsigned char  size(2) Largest target is 14
		 -> main@strRPM(BANK1[6]), main@strTemp(BANK1[6]), STR_1(CODE[14]), STR_2(CODE[5]), 

    pad@buf	PTR unsigned char  size(1) Largest target is 32
		 -> dbuf(BANK3[32]), 

    pad@fp	PTR struct _IO_FILE size(1) Largest target is 11
		 -> sprintf@f(BANK0[11]), 

    PulseEnable@config	PTR struct . size(1) Largest target is 8
		 -> main@lcd(BANK1[8]), 

    PulseEnable@config$port	PTR volatile unsigned char  size(2) Largest target is 1
		 -> PORTD(SFR0[1]), 

    read_prec_or_width@ap	PTR PTR void [1] size(1) Largest target is 1
		 -> sprintf@ap(BANK0[1]), 

    read_prec_or_width@fmt	PTR PTR const unsigned char  size(1) Largest target is 1
		 -> vfprintf@cfmt(BANK0[1]), 

    S181$port	PTR volatile unsigned char  size(2) Largest target is 1
		 -> PORTD(SFR0[1]), 

    S824$buffer	PTR unsigned char  size(1) Largest target is 0

    S824$source	PTR const unsigned char  size(1) Largest target is 0

    SetBit@port	PTR volatile unsigned char  size(2) Largest target is 1
		 -> PORTD(SFR0[1]), 

    sprintf@ap	PTR void [1] size(1) Largest target is 2
		 -> ?_sprintf(BANK0[2]), 

    sprintf@fmt	PTR const unsigned char  size(1) Largest target is 4
		 -> STR_3(CODE[4]), STR_4(CODE[4]), 

    sprintf@s	PTR unsigned char  size(1) Largest target is 6
		 -> main@strRPM(BANK1[6]), main@strTemp(BANK1[6]), 

    utoa@fp	PTR struct _IO_FILE size(1) Largest target is 11
		 -> sprintf@f(BANK0[11]), 

    vfpfcnvrt@ap	PTR PTR void  size(1) Largest target is 1
		 -> sprintf@ap(BANK0[1]), 

    vfpfcnvrt@cp	PTR unsigned char  size(1) Largest target is 4
		 -> STR_3(CODE[4]), STR_4(CODE[4]), 

    vfpfcnvrt@fmt	PTR PTR unsigned char  size(1) Largest target is 1
		 -> vfprintf@cfmt(BANK0[1]), 

    vfpfcnvrt@fp	PTR struct _IO_FILE size(1) Largest target is 11
		 -> sprintf@f(BANK0[11]), 

    vfprintf@ap	PTR PTR void  size(1) Largest target is 1
		 -> sprintf@ap(BANK0[1]), 

    vfprintf@cfmt	PTR unsigned char  size(1) Largest target is 4
		 -> STR_3(CODE[4]), STR_4(CODE[4]), 

    vfprintf@fmt	PTR const unsigned char  size(1) Largest target is 4
		 -> STR_3(CODE[4]), STR_4(CODE[4]), 

    vfprintf@fp	PTR struct _IO_FILE size(1) Largest target is 11
		 -> sprintf@f(BANK0[11]), 


Critical Paths under _main in COMMON

    _main->_Lcd_Clear
    _main->_Lcd_CreateCustomChar
    _main->_Lcd_WriteCustomChar
    _main->_Lcd_WriteString
    _main->___xxtofl
    _utoa->_pad
    _pad->_fputs
    _fputs->_fputc
    _read_prec_or_width->___wmul
    _readTemperature->___xxtofl
    ___flmul->___xxtofl
    ___fldiv->___xxtofl
    ___fltol->___xxtofl
    _Lcd_WriteString->_Lcd_WriteChar
    _Lcd_WriteCustomChar->_Lcd_WriteChar
    _Lcd_SetCursor->_Lcd_Command
    _Lcd_Init->_Lcd_Clear
    _Lcd_Clear->_Lcd_Command
    _Lcd_CreateCustomChar->_Lcd_Command
    _Lcd_CreateCustomChar->_Lcd_WriteChar
    _Lcd_WriteChar->_PulseEnable
    _Lcd_Command->_PulseEnable
    _PulseEnable->_SetBit

Critical Paths under _main in BANK0

    _main->_sprintf
    _sprintf->___fltol
    _vfprintf->_vfpfcnvrt
    _vfpfcnvrt->_utoa
    _utoa->_pad
    _pad->_fputs
    _readTemperature->___flmul
    ___flmul->___fldiv
    ___fltol->___flmul
    ___fladd->_readTemperature
    _Lcd_Init->_Lcd_Clear

Critical Paths under _main in BANK1

    _main->___fladd

Critical Paths under _main in BANK3

    None.

Critical Paths under _main in BANK2

    None.

Call Graph Tables:

 ---------------------------------------------------------------------------------
 (Depth) Function   	        Calls       Base Space   Used Autos Params    Refs
 ---------------------------------------------------------------------------------
 (0) _main                                                37    37      0  109467
                                              4 BANK1     37    37      0
                          _Lcd_Clear
               _Lcd_CreateCustomChar
                           _Lcd_Init
                      _Lcd_SetCursor
                _Lcd_WriteCustomChar
                    _Lcd_WriteString
                            ___fladd
                            ___fldiv
                             ___flge
                            ___flmul
                            ___fltol
                           ___xxtofl
                        _countPulses
                            _initADC
                            _initPWM
                            _initRPM
                    _readTemperature
                            _sprintf
 ---------------------------------------------------------------------------------
 (1) _sprintf                                             19    16      3    5490
                                             62 BANK0     17    14      3
                            ___fltol (ARG)
                           _vfprintf
 ---------------------------------------------------------------------------------
 (2) _vfprintf                                             4     2      2    5071
                                             26 BANK0      4     2      2
                          _vfpfcnvrt
 ---------------------------------------------------------------------------------
 (3) _vfpfcnvrt                                           12    10      2    4758
                                             16 BANK0     10     8      2
                              _fputc
                 _read_prec_or_width
                               _utoa
 ---------------------------------------------------------------------------------
 (4) _utoa                                                 8     6      2    3004
                                              8 BANK0      8     6      2
                            ___lwdiv
                            ___lwmod
                                _pad
 ---------------------------------------------------------------------------------
 (5) _pad                                                  7     4      3    2043
                                             11 COMMON     3     0      3
                                              4 BANK0      4     4      0
                              _fputc
                              _fputs
 ---------------------------------------------------------------------------------
 (6) _fputs                                                7     6      1     997
                                              8 COMMON     3     2      1
                                              0 BANK0      4     4      0
                              _fputc
 ---------------------------------------------------------------------------------
 (7) _fputc                                                8     5      3     682
                                              0 COMMON     8     5      3
                              _putch
 ---------------------------------------------------------------------------------
 (8) _putch                                                1     1      0       0
 ---------------------------------------------------------------------------------
 (5) ___lwmod                                              6     2      4     311
                                              0 COMMON     6     2      4
 ---------------------------------------------------------------------------------
 (5) ___lwdiv                                              8     4      4     314
                                              0 COMMON     8     4      4
 ---------------------------------------------------------------------------------
 (4) _read_prec_or_width                                   7     5      2     533
                                              6 COMMON     7     5      2
                             ___wmul
 ---------------------------------------------------------------------------------
 (5) ___wmul                                               6     2      4     244
                                              0 COMMON     6     2      4
 ---------------------------------------------------------------------------------
 (1) _readTemperature                                     10     6      4    4666
                                             52 BANK0     10     6      4
                            ___fldiv
                            ___flmul
                           ___xxtofl
                            _readADC
 ---------------------------------------------------------------------------------
 (2) _readADC                                              2     0      2       0
                                              0 COMMON     2     0      2
 ---------------------------------------------------------------------------------
 (2) ___xxtofl                                            14    10      4     474
                                              0 COMMON    14    10      4
 ---------------------------------------------------------------------------------
 (2) ___flmul                                             26    18      8    2569
                                             26 BANK0     26    18      8
                          __Umul8_16
                            ___fldiv (ARG)
                           ___xxtofl (ARG)
 ---------------------------------------------------------------------------------
 (3) __Umul8_16                                            9     7      2     799
                                              0 COMMON     9     7      2
 ---------------------------------------------------------------------------------
 (2) ___fldiv                                             26    18      8    1577
                                              0 BANK0     26    18      8
                           ___xxtofl (ARG)
 ---------------------------------------------------------------------------------
 (1) _initRPM                                              0     0      0       0
 ---------------------------------------------------------------------------------
 (1) _initPWM                                              0     0      0       0
 ---------------------------------------------------------------------------------
 (1) _initADC                                              0     0      0       0
 ---------------------------------------------------------------------------------
 (1) _countPulses                                          6     4      2     115
                                              0 COMMON     6     4      2
 ---------------------------------------------------------------------------------
 (1) ___fltol                                             10     6      4     381
                                             52 BANK0     10     6      4
                            ___flmul (ARG)
                           ___xxtofl (ARG)
 ---------------------------------------------------------------------------------
 (1) ___flge                                              12     4      8     790
                                              0 COMMON    12     4      8
 ---------------------------------------------------------------------------------
 (1) ___fladd                                             20    12      8    2262
                                             62 BANK0     16     8      8
                                              0 BANK1      4     4      0
                    _readTemperature (ARG)
 ---------------------------------------------------------------------------------
 (1) _Lcd_WriteString                                      3     1      2   11006
                                             13 COMMON     1     1      0
                                              0 BANK0      2     0      2
                      _Lcd_WriteChar
 ---------------------------------------------------------------------------------
 (1) _Lcd_WriteCustomChar                                  2     1      1   10656
                                             13 COMMON     1     0      1
                                              0 BANK0      1     1      0
                      _Lcd_WriteChar
 ---------------------------------------------------------------------------------
 (1) _Lcd_SetCursor                                        6     4      2   12468
                                              0 BANK0      6     4      2
                        _Lcd_Command
 ---------------------------------------------------------------------------------
 (1) _Lcd_Init                                             3     3      0   22829
                                              2 BANK0      3     3      0
                          _Lcd_Clear
                        _Lcd_Command
 ---------------------------------------------------------------------------------
 (2) _Lcd_Clear                                            3     3      0   11354
                                             13 COMMON     1     1      0
                                              0 BANK0      2     2      0
                        _Lcd_Command
 ---------------------------------------------------------------------------------
 (1) _Lcd_CreateCustomChar                                 5     3      2   22132
                                             13 COMMON     1     1      0
                                              0 BANK0      4     2      2
                        _Lcd_Command
                      _Lcd_WriteChar
 ---------------------------------------------------------------------------------
 (2) _Lcd_WriteChar                                        4     3      1   10503
                                              9 COMMON     4     3      1
                        _PulseEnable
                             _SetBit
 ---------------------------------------------------------------------------------
 (2) _Lcd_Command                                          4     3      1   11266
                                              9 COMMON     4     3      1
                        _PulseEnable
                             _SetBit
 ---------------------------------------------------------------------------------
 (3) _PulseEnable                                          3     3      0    4890
                                              6 COMMON     3     3      0
                             _SetBit
 ---------------------------------------------------------------------------------
 (3) _SetBit                                               6     2      4    4670
                                              0 COMMON     6     2      4
 ---------------------------------------------------------------------------------
 Estimated maximum stack depth 8
 ---------------------------------------------------------------------------------

 Call Graph Graphs:

 _main (ROOT)
   _Lcd_Clear
     _Lcd_Command
       _PulseEnable
         _SetBit
       _SetBit
   _Lcd_CreateCustomChar
     _Lcd_Command
     _Lcd_WriteChar
       _PulseEnable
       _SetBit
   _Lcd_Init
     _Lcd_Clear
     _Lcd_Command
   _Lcd_SetCursor
     _Lcd_Command
   _Lcd_WriteCustomChar
     _Lcd_WriteChar
   _Lcd_WriteString
     _Lcd_WriteChar
   ___fladd
     _readTemperature (ARG)
       ___fldiv
         ___xxtofl (ARG)
       ___flmul
         __Umul8_16
         ___fldiv (ARG)
         ___xxtofl (ARG)
       ___xxtofl
       _readADC
   ___fldiv
   ___flge
   ___flmul
   ___fltol
     ___flmul (ARG)
     ___xxtofl (ARG)
   ___xxtofl
   _countPulses
   _initADC
   _initPWM
   _initRPM
   _readTemperature
   _sprintf
     ___fltol (ARG)
     _vfprintf (ARG)
       _vfpfcnvrt
         _fputc
           _putch
         _read_prec_or_width
           ___wmul
         _utoa
           ___lwdiv
           ___lwmod
           _pad
             _fputc
             _fputs
               _fputc

 Address spaces:
Name               Size   Autos  Total    Cost      Usage
BANK3               60      0      20       9       33.3%
BITBANK3            60      0       0       8        0.0%
SFR3                 0      0       0       4        0.0%
BITSFR3              0      0       0       4        0.0%
BANK2               60      0       0      11        0.0%
BITBANK2            60      0       0      10        0.0%
SFR2                 0      0       0       5        0.0%
BITSFR2              0      0       0       5        0.0%
BANK1               50     29      3D       7       76.2%
BITBANK1            50      0       0       6        0.0%
SFR1                 0      0       0       2        0.0%
BITSFR1              0      0       0       2        0.0%
BANK0               50     4F      50       5      100.0%
BITBANK0            50      0       0       4        0.0%
SFR0                 0      0       0       1        0.0%
BITSFR0              0      0       0       1        0.0%
COMMON               E      E       E       1      100.0%
BITCOMMON            E      0       0       0        0.0%
CODE                 0      0       0       0        0.0%
DATA                 0      0      BB      12        0.0%
ABS                  0      0      BB       3        0.0%
NULL                 0      0       0       0        0.0%
STACK                0      0       0       2        0.0%
EEDATA             100      0       0       0        0.0%


Microchip Technology PIC Macro Assembler V2.45 build 20230818022343 
Symbol Table                                                                                   Sat Jan  6 21:04:08 2024

                ___fldiv@aexp 0039                  ___fldiv@bexp 0038                             pc 0002  
                ___fldiv@sign 0031                            l61 13BD                            l70 1367  
                          l64 1381                            l81 14E7                            l73 1371  
                          l83 14F1                            l67 1363                            l76 1787  
              Lcd_Init@config 0024                            fsr 0004           ___wmul@multiplicand 0072  
         __Umul8_16@word_mpld 0076                           l112 151D                           l121 0196  
                         l130 1718                           l115 1551                           l133 13A8  
                         l141 1471                           l118 0BA1                           l150 1356  
                         l127 14C6                           l147 158A                           l236 140A  
                         l422 0912                           l414 088D                           l430 17FF  
                         l238 1422                           l440 17FF                           l417 08F9  
                         l516 1608                           l541 02D8                           l437 17EA  
                         l550 0496                           l526 15C4                           l543 02A6  
                         l615 0D5C                           l720 1646                           l537 0214  
                         l617 0D6A                           l609 0CEA                           l633 07DB  
                         l562 03E5                           l722 1654                           l730 0870  
                         l571 0458                           l580 0496                           l652 1437  
                         l645 07CF                           l717 161E                           l558 03B8  
                         l654 1449                           l639 074B                           l568 040E  
                         l593 0BF8                           l690 0A41                           l738 006B  
                         l579 0484                           l595 0D74                           l691 0A4D  
                         l683 0A25                           l755 13FD                           l748 09BF  
                         l677 09E2                           l679 0A77                           l767 16AA  
                         l775 149B                           l778 0003                           l699 13DC  
                         _PR2 0092                           _pad 1609                           fsr0 0004  
            ?_Lcd_WriteString 0020                           indf 0000                  ___flmul@aexp 004C  
                ___flmul@bexp 004D           __end_of_Lcd_Command 0BA2                  ___flmul@sign 0047  
                ___flmul@temp 0052                  ___flmul@prod 004E                  ___fltol@exp1 005D  
                        l2000 1426                          l2002 142D                          l2100 0BE5  
                        l2004 1431                          l2020 093C                          l2012 0916  
                        l2110 0C0C                          l2102 0BED                          l2006 1440  
                        l2030 0961                          l2022 094C                          l2014 0925  
                        l2200 0D60                          l2112 0C10                          l2104 0BEE  
                        l2008 1445                          l2040 098B                          l2032 096D  
                        l2024 0950                          l2016 092B                          l2202 0D64  
                        l2130 0C51                          l2122 0C27                          l2106 0BF0  
                        l2210 0497                          l2034 0980                          l2042 099E  
                        l2026 0953                          l2018 0936                          l2204 0D66  
                        l2140 0C6F                          l2132 0C53                          l2124 0C39  
                        l2108 0C00                          l2116 0C19                          l2300 071B  
                        l2220 04AA                          l2212 049C                          l2028 095A  
                        l2062 1396                          l2134 0C58                          l2142 0C78  
                        l2150 0C9D                          l2126 0C41                          l2118 0C1E  
                        l2070 0BA7                          l2310 0730                          l2302 071C  
                        l2230 04C6                          l2222 04AF                          l2214 04A0  
                        l2046 09A8                          l2064 139E                          l2160 0CBA  
                        l2152 0CA3                          l2144 0C8A                          l2136 0C6A  
                        l2128 0C49                          l2080 0BBA                          l2072 0BAB  
                        l2320 0755                          l2312 0734                          l2304 0725  
                        l2240 04D9                          l2232 04CA                          l2224 04B7  
                        l2216 04A4                          l2056 1364                          l2400 13FB  
                        l2066 006D                          l2410 13B2                          l2170 0CCF  
                        l2162 0CBB                          l2154 0CAB                          l2146 0C8B  
                        l2138 0C6E                          l2090 0BD2                          l2082 0BC2  
                        l2074 0BAF                          l2330 0793                          l2322 0763  
                        l2314 0748                          l2306 072B                          l2250 04F5  
                        l2242 04E1                          l2234 04CE                          l2226 04B9  
                        l2218 04A5                          l2058 136B                          l2500 1451  
                        l2412 13B6                          l2404 13A9                          l2420 1378  
                        l2180 0CF4                          l2172 0CD3                          l2164 0CC4  
                        l2156 0CAD                          l2148 0C99                          l2092 0BD6  
                        l2084 0BC3                          l2076 0BB0                          l2068 0BA2  
                        l2340 07C5                          l2332 079E                          l2324 0767  
                        l2308 072F                          l2260 0534                          l2244 04E3  
                        l2236 04CF                          l2228 04C1                          l2414 13BB  
                        l2406 13AD                          l2422 137B                          l2190 0D32  
                        l2182 0D02                          l2174 0CE7                          l2158 0CB6  
                        l2166 0CCA                          l2094 0BDA                          l2078 0BB5  
                        l2086 0BC5                          l2342 07C9                          l2334 07AD  
                        l2326 0780                          l2318 0750                          l2270 05BB  
                        l2262 0550                          l2254 04FE                          l2246 04EB  
                        l2238 04D4                          l2350 09C1                          l2430 1719  
                        l2504 1454                          l2520 14AE                          l2600 01AC  
                        l2440 14C9                          l2408 13AE                          l2424 137C  
                        l2416 1372                          l2192 0D40                          l2184 0D06  
                        l2168 0CCE                          l2096 0BDB                          l2088 0BCD  
                        l2344 07CA                          l2336 07B7                          l2328 0786  
                        l2280 0628                          l2272 05C9                          l2264 057A  
                        l2256 050C                          l2248 04F0                          l2352 09C6  
                        l2432 1724                          l2506 1464                          l2522 14B6  
                        l2610 01C7                          l2602 01AF                          l2450 14DC  
                        l2442 14CF                          l2426 137E                          l2418 1375  
                        l2194 0D4F                          l2186 0D1F                          l2178 0CEF  
                        l2098 0BE0                          l2346 07D3                          l2338 07B9  
                        l2290 06CF                          l2282 0645                          l2274 05E6  
                        l2266 0596                          l2258 0519                          l2370 0A0E  
                        l2362 09F3                          l2354 09CA                          l2434 1768  
                        l2530 13C9                          l2460 16AE                          l2508 1469  
                        l2516 149D                          l2700 0305                          l2620 01DF  
                        l2604 01B6                          l2612 01C9                          l2540 0885  
                        l2452 14E1                          l2444 14D0                          l2428 1357  
                        l2196 0D53                          l2188 0D25                          l2292 06F7  
                        l2284 0670                          l2276 05F4                          l2268 05B2  
                        l2380 0A45                          l2372 0A1C                          l2364 09F6  
                        l2356 09DA                          l1900 15F6                          l2532 13D3  
                        l2524 13C1                          l2470 16E8                          l2462 16B8  
                        l2518 149E                          l2710 0322                          l2702 0309  
                        l2630 01FC                          l2622 01E7                          l2614 01D3  
                        l2606 01BB                          l2550 08D5                          l2542 08A1  
                        l2446 14D2                          l2454 14E9                          l2438 14C7  
                        l2198 0D5B                          l2294 0700                          l2286 067E  
                        l2278 0611                          l2390 0A6F                          l2382 0A4F  
                        l2374 0A2C                          l2366 0A03                          l2358 09EA  
                        l1902 15F7                          l1910 158B                          l2526 13C5  
                        l2480 1555                          l2472 16F2                          l2464 16C2  
                        l2536 134E                          l2720 038C                          l2712 0325  
                        l2704 030F                          l2640 0220                          l2632 0206  
                        l2624 01ED                          l2616 01D8                          l2608 01C5  
                        l2552 090F                          l2544 08A9                          l2560 1793  
                        l2456 14ED                          l2448 14D6                          l2296 070E  
                        l2288 06A9                          l2384 0A65                          l2376 0A37  
                        l2368 0A0A                          l1904 15FE                          l1920 15A3  
                        l1912 1591                          l2528 13C7                          l2800 0DB3  
                        l2490 1570                          l2482 155B                          l2474 16FC  
                        l2466 16D7                          l2730 03C8                          l2722 0394  
                        l2714 032F                          l2706 031A                          l2650 0234  
                        l2642 0228                          l2634 0208                          l2626 01F0  
                        l2618 01DE                          l2554 0911                          l2546 08AD  
                        l2538 0871                          l2570 17B8                          l2298 0717  
                        l2386 0A6A                          l2378 0A3B                          l1906 1604  
                        l1922 15AD                          l1914 1594                          l1850 1675  
                        l1842 1655                          l2394 13E0                          l2810 0DEF  
                        l2802 0DBF                          l2492 157E                          l2484 156D  
                        l2476 1706                          l2468 16DE                          l2740 03EB  
                        l2724 0399                          l2708 031C                          l2716 0336  
                        l2660 024C                          l2652 0238                          l2644 022A  
                        l2628 01F7                          l2636 020A                          l2548 08D1  
                        l2580 17C6                          l2572 17BA                          l2564 179C  
                        l2388 0A6E                          l1924 15B3                          l1916 159B  
                        l1852 1693                          l1844 165A                          l1860 1486  
                        l1940 1623                          l1932 160C                          l2396 13E3  
                        l2820 0E6B                          l2812 0DF9                          l2804 0DCB  
                        l1950 1534                          l2494 1584                          l2478 1710  
                        l2742 03EE                          l2734 03D3                          l2718 034E  
                        l2726 03AA                          l2750 03FC                          l2670 0262  
                        l2662 0250                          l2654 023E                          l2646 022C  
                        l2638 021C                          l2590 17EF                          l2574 17BE  
                        l2582 17D8                          l2566 17AF                          l2558 1788  
                        l1870 13FE                          l1926 15BA                          l1918 159F  
                        l1846 165F                          l1862 148E                          l1942 1630  
                        l1934 1610                          l2398 13ED                          l2830 0EC8  
                        l2814 0E04                          l2806 0DD7                          l1864 14F2  
                        l1952 153D                          l2496 144D                          l2760 0415  
                        l2752 03FF                          l2744 03F0                          l2736 03DC  
                        l2728 03C1                          l2680 02B5                          l2664 0254  
                        l2656 0242                          l2648 022E                          l2672 0268  
                        l2592 17F4                          l2568 17B0                          l1880 141E  
                        l1872 1400                          l1928 15C0                          l1848 1666  
                        l1856 1475                          l1944 1638                          l1936 1618  
                        l1960 081A                          l2840 0F4C                          l2832 0ECE  
                        l2816 0E49                          l2808 0DE3                          l1866 14F7  
                        l2498 144E                          l2770 045F                          l2762 041C  
                        l2754 0403                          l2746 03F5                          l2738 03E2  
                        l2682 02B7                          l2690 02D0                          l2674 026B  
                        l2666 025A                          l2658 0246                          l2594 0197  
                        l1874 1404                          l1890 15D0                          l1858 1478  
                        l1946 164C                          l1938 161C                          l1962 0820  
                        l1970 0850                          l1954 0804                          l2850 0F8B  
                        l2842 0F58                          l2834 0ED4                          l2826 0E7A  
                        l2818 0E5F                          l1868 150A                          l1948 151F  
                        l2780 047A                          l2772 0464                          l2764 042C  
                        l2756 0409                          l2748 03F7                          l2692 02DC  
                        l2684 02BD                          l2676 0288                          l2668 025E  
                        l2596 019E                          l2588 17DF                          l1876 1411  
                        l1980 0015                          l1892 15D7                          l1884 15C5  
                        l1972 0858                          l1964 0834                          l1956 0806  
                        l2916 0999                          l2860 0FE6                          l2852 0FA6  
                        l2844 0F64                          l2836 0F13                          l2828 0EBE  
                        l2918 145C                          l2782 047E                          l2774 046E  
                        l2766 0430                          l2694 02E1                          l2686 02C0  
                        l2678 02AA                          l2598 01A6                          l1878 1418  
                        l1990 0056                          l1982 0017                          l1894 15DB  
                        l1886 15C7                          l1974 085E                          l1966 0837  
                        l1958 0816                          l2862 0FEB                          l2854 0FAB  
                        l2846 0F6B                          l2838 0F40                          l2790 0D84  
                        ?_pad 007B                          l2784 048D                          l2776 0475  
                        l2768 0450                          l2688 02CA                          l1992 0067  
                        l1984 0026                          l1896 15DF                          l1888 15CD  
                        l1976 0863                          l1968 083D                          l2856 0FC6  
                        l2864 0FEE                          l2848 0F86                          l2792 0D9B  
                        l2786 0493                          l2778 0476                          l2698 02EC  
                        l1986 003A                          l1898 15F0                          l2858 0FCB  
                        l2794 0D9C                          l1996 0A79                          l1988 004F  
                        l2796 0DA2                          l2788 0D75                          l1998 1424  
                        l2798 0DA8                          STR_1 1010                          STR_2 101E  
                        STR_3 1027                          STR_4 1023                          u3000 0B94  
                        u3001 0B92                          u3010 0B95                          u3100 0088  
                        u3020 1431                          u3101 0086                          u3021 1430  
                        u3110 0089                          u3200 00EF                          u3040 1445  
                        u4000 09EA                          u3041 1444                          u4001 09E9  
                        u3210 0123                          u3130 00AA                          u3050 0925  
                        u3211 0121                          u3131 00A8                          u3035 1438  
                        u3051 0924                          u2500 14F7                          u3300 0189  
                        u3220 0124                          u3140 00AB                          u4100 0A6A  
                        u4020 0A09                          u3060 0950                          u2501 14F6  
                        u3301 0187                          u3125 00A0                          u4101 0A69  
                        u4021 0A08                          u3061 094F                          u3310 018A  
                        u4110 0A6E                          u3070 096D                          u4111 0A6D  
                        u4015 09FB                          u3071 096C                          u3240 0145  
                        u3160 00CC                          u4200 0885                          u3400 0C58  
                        u3320 0BAF                          u4040 0A2B                          u3080 136B  
                        u4120 13FB                          u3241 0143                          u3161 00CA  
                        u4201 0884                          u3401 0C57                          u3321 0BAE  
                        u4041 0A2A                          u3081 136A                          u4121 13FA  
                        u2514 14FD                          u3250 0146                          u3170 00CD  
                        u4210 08A1                          u4130 14DC                          u3330 0BB5  
                        u2530 1404                          u2610 15F0                          u2450 165A  
                        u2515 14FB                          u3235 013B                          u3155 00C2  
                        u4211 08A0                          u4131 14DB                          u3331 0BB4  
                        u4035 0A1D                          u2531 1403                          u2611 15EF  
                        u2451 1659                          u2524 1510                          u4220 08AD  
                        u4300 17C5                          u4140 14E1                          u3340 0BBA  
                        u4060 0A3B                          u2460 165F                          u2700 1610  
                        u2525 150E                          u4221 08AC                          u4301 17C4  
                        u4141 14E0                          u3341 0BB9                          u4061 0A3A  
                        u2605 15E0                          u2461 165E                          u2701 160F  
                        u3270 0167                          u3190 00EE                          u4150 14ED  
                        u3510 0CCE                          u3430 0C6E                          u3350 0BDA  
                        u4070 0A41                          u2630 1604                          u2470 1675  
                        u2710 161C                          u3271 0165                          u3191 00EC  
                        u3095 007E                          u4231 08BC                          u4151 14EC  
                        u3511 0CCD                          u3431 0C6D                          u3415 0C5A  
                        u3351 0BD9                          u4071 0A40                          u4055 0A30  
                        u2631 1603                          u2615 15EC                          u2471 1674  
                        u2711 161B                          u2800 0A94                          u3280 0168  
                        u4160 155B                          u4400 01DE                          u4240 08D5  
                        u4232 08BD                          u4320 17D7                          u3600 0D64  
                        u3520 0CD3                          u3360 0BE0                          u4080 0A45  
                        u2560 141E                          u2640 1591                          u2480 1693  
                        u2720 1646                          u2801 0A92                          u3265 015D  
                        u3185 00E4                          u4161 155A                          u4401 01DD  
                        u4241 08D4                          u4233 08C2                          u4321 17D6  
                        u3601 0D63                          u3521 0CD2                          u3505 0CBD  
                        u3425 0C63                          u3361 0BDF                          u4081 0A44  
                        u2561 141D                          u2545 140B                          u2625 15F8  
                        u2641 1590                          u2481 1692                          u2721 1645  
                        u2810 0A95                          u4410 01ED                          u4234 08C3  
                        u4330 17DE                          u3530 0CE7                          u3450 0C8A  
                        u3370 0BE5                          u3610 04A4                          u4090 0A5A  
                        u2570 15CD                          u2490 149B                          u2730 164C  
                        u4411 01EC                          u4251 08E4                          u4235 08C8  
                        u4331 17DD                          u4315 17C7                          u3531 0CE6  
                        u3451 0C89                          u3371 0BE4                          u3611 04A3  
                        u2555 1412                          u2571 15CC                          u2491 149A  
                        u2731 164B                          u2900 0AFB                          u4180 158A  
                        u4500 02BD                          u4420 01F7                          u4260 090F  
                        u4252 08E5                          u4236 08C9                          u3540 0CEE  
                        u3460 0CA3                          u3380 0C00                          u3620 04AA  
                        u2660 15A3                          u2740 0858                          u4181 1589  
                        u4501 02BC                          u4421 01F6                          u4261 090E  
                        u4253 08EA                          u3541 0CED                          u3461 0CA2  
                        u3445 0C71                          u3381 0BFF                          u3701 055E  
                        u3621 04A9                          u2661 15A2                          u2485 168F  
                        u2725 1642                          u2741 0857                          u2910 0B2E  
                        u2830 0AB6                          u4190 14C6                          u4430 01FC  
                        u4254 08EB                          u4350 17EF                          u4270 1793  
                        u3550 0CF4                          u3470 0CAB                          u3390 0C1E  
                        u3702 0565                          u3630 04AF                          u2590 15DF  
                        u2670 15AD                          u2750 085E                          u2911 0B2C  
                        u2831 0AB4                          u3295 017F                          u4175 155E  
                        u4191 14C5                          u4431 01FB                          u4255 08F0  
                        u4351 17EE                          u4271 1792                          u3551 0CF3  
                        u3471 0CAA                          u3455 0C86                          u3391 0C1D  
                        u3711 0588                          u3703 056C                          u3631 04AE  
                        u4095 0A55                          u2591 15DE                          u2671 15AC  
                        u2655 1595                          u2751 085D                          u2920 0B2F  
                        u2840 0AB7                          u4600 034E                          u4520 02D8  
                        u4440 021C                          u4256 08F1                          u4360 17F4  
                        u4280 17AA                          u3560 0D06                          u3800 06B5  
                        u3712 058F                          u3640 04CE                          u2760 0863  
                        u2825 0AAC                          u4601 034D                          u4521 02D7  
                        u4441 021B                          u4265 090B                          u4361 17F3  
                        u4345 17E1                          u3561 0D05                          u3721 05A4  
                        u3713 0596                          u3641 04CD                          u2585 15D1  
                        u2761 0862                          u4530 02DC                          u4450 0220  
                        u4370 01AC                          u4290 17BE                          u3570 0D15  
                        u3490 0CBA                          u3722 05AB                          u3650 04D4  
                        u2770 0026                          u2690 15C0                          u4611 0365  
                        u4603 034A                          u4531 02DB                          u4515 02C3  
                        u4451 021F                          u4371 01AB                          u4291 17BD  
                        u3491 0CB9                          u3811 06C1                          u3723 05B2  
                        u3651 04D3                          u2771 0025                          u2691 15BF  
                        u2675 15A9                          u2940 0B50                          u2860 0AD8  
                        u4700 03FC                          u4620 0379                          u4612 0366  
                        u4540 02E1                          u4460 0288                          u4380 01B6  
                        u3580 0D32                          u3900 0748                          u3820 06DD  
                        u3812 06C8                          u3660 04D9                          u2780 0067  
                        u2941 0B4E                          u2861 0AD6                          u4701 03FB  
                        u4621 037A                          u4613 036B                          u4541 02E0  
                        u4461 0287                          u4381 01B5                          u4285 17A5  
                        u3581 0D31                          u3485 0CAF                          u3901 0747  
                        u3813 06CF                          u3805 06B0                          u3741 05D8  
                        u3661 04D8                          u2781 0066                          u2685 15B4  
                        u2950 0B51                          u2870 0AD9                          u4710 0403  
                        u4630 0399                          u4622 037F                          u4614 036C  
                        u4470 0293                          u4390 01BB                          u3590 0D4F  
                        u3910 074F                          u3742 05DF                          u3670 04F0  
                        u2935 0B46                          u2855 0ACE                          u4711 0402  
                        u4631 0398                          u4623 0380                          u4615 0371  
                        u4551 02F7                          u4471 0291                          u4391 01BA  
                        u3591 0D4E                          u3575 0D10                          u3911 074E  
                        u3831 06E9                          u3751 0603                          u3743 05E6  
                        u3735 05B4                          u3671 04EF                          u4800 0475  
                        u4720 0409                          u4640 03C1                          u4616 0372  
                        u4560 0309                          u4552 02FE                          u4480 0294  
                        u3920 0755                          u3832 06F0                          u3752 060A  
                        u3680 04F5                          u4801 0474                          u4721 0408  
                        u4641 03C0                          u4561 0308                          u4553 0305  
                        u4465 0284                          u3585 0D2E                          u3921 0754  
                        u3833 06F7                          u3825 06D8                          u3753 0611  
                        u3681 04F4                          u2970 0B72                          u2890 0AFA  
                        u4810 047A                          u4730 0414                          u4650 03C8  
                        u4570 030F                          u4490 02AA                          u3930 0767  
                        u2971 0B70                          u2891 0AF8                          u2795 0A8A  
                        u4811 0479                          u4731 0413                          u4651 03C7  
                        u4571 030E                          u4491 02A9                          u3595 0D4B  
                        u3931 0766                          u3771 0637                          u3691 0542  
                        u2980 0B73                          u4820 0493                          u4740 041C  
                        u4580 0322                          u3940 0776                          u3860 071B  
                        u3772 063E                          u3692 0549                          u2965 0B68  
                        u2885 0AF0                          u4821 0492                          u4741 041B  
                        u4581 0321                          u3861 071A                          u3845 06F9  
                        u3781 0662                          u3773 0645                          u3765 0613  
                        u3693 0550                          u4750 0430                          u4670 03E2  
                        u3950 0793                          u3782 0669                          u4830 0D8E  
                        u4751 042F                          u4671 03E1                          u3951 0792  
                        u3855 0710                          u3791 068D                          u3783 0670  
                        u4760 043F                          u4680 03EB                          u3960 07AD  
                        u3880 072F                          u3792 0694                          u4840 0ED4  
                        u4681 03EA                          u4665 03D5                          u3961 07AC  
                        u3945 0771                          u3881 072E                          u3793 069B  
                        u4841 0ED3                          u4770 0450                          u4690 03F5  
                        u3970 07C9                          u3890 0734                          u4850 0F86  
                        u2995 0B8A                          u4771 044F                          u4691 03F4  
                        u4595 0328                          u3971 07C8                          u3955 078F  
                        u3891 0733                          u3875 071E                          u4907 0FF6  
                        u4851 0F85                          u4780 045F                          u3980 09C6  
                        u4860 0FA6                          u4917 16B4                          u4781 045E  
                        u4765 043A                          u3965 07A9                          u3981 09C5  
                        u4861 0FA5                          u4790 0464                          u3990 09CA  
                        u4870 0FC6                          u4927 16C8                          u4791 0463  
                        u3991 09C9                          u4871 0FC5                          u4880 0FE6  
                        u4937 16DB                          u4881 0FE5                          u4947 13A4  
                        u4957 1538                          u4897 0EC4                          _TMR0 0001  
          Lcd_WriteString@str 0020                  ?_countPulses 0070                          _dbuf 0190  
                        _main 0D75                          _prec 00DB                          pad@i 0025  
                        pad@p 007C                          btemp 007E                          _utoa 0801  
                        start 0000                   main@strTemp 00A8               ___fldiv@new_exp 0032  
                       ??_pad 0024                 ___fltol@sign1 005C               __end_of___fladd 0497  
                       ?_main 0070               __end_of___fldiv 0D75               __end_of___flmul 07DC  
             __end_of___fltol 1800                         _ANSEL 0188                         ?_utoa 0028  
                       _T2CON 0012               __end_of___lwdiv 1609               __end_of___lwmod 15C5  
                vfpfcnvrt@fmt 0030                         _PORTD 0008                         _TRISC 0087  
                       _TRISD 0088               __end_of_initADC 1364               __end_of_readADC 1372  
             __end_of_initRPM 1382               __end_of_initPWM 13BE                         _flags 006F  
         read_prec_or_width@c 0079           read_prec_or_width@n 007A                         _fputc 1655  
                       _fputs 1472                         pad@fp 0027                    SetBit@port 0070  
                       _width 00D9                         _putch 0003                         main@i 00BC  
                       pclath 000A                         utoa@d 0028                         utoa@i 002E  
                       utoa@p 002D                         utoa@w 002A                         status 0003  
                       wtemp0 007E               __end_of_sprintf 13DD              __end_of_Lcd_Init 1719  
           PulseEnable@config 0078               __initialization 07DC                  __end_of_main 1000  
                __end_of_utoa 0871                   _Lcd_Command 0A78                        ??_main 00A4  
                      ??_utoa 007E    __end_of_read_prec_or_width 006C               _readTemperature 1719  
                      _ADCON0 001F                        _ADCON1 009F         __end_of_Lcd_SetCursor 1472  
                      ?_fputc 0070                        ?_fputs 0078                        _ADRESH 001E  
                      _ADRESL 009E                        _CCPR1L 0015                        ?_putch 0070  
                      _ANSELH 0189                        _OSCCON 008F              __end_of___xxtofl 0A78  
                      _SetBit 14F2          Lcd_SetCursor@address 0024                  vfprintf@cfmt 003D  
                      ___flge 0871                     ??___fladd 0066                        ___wmul 13FE  
                   ??___fldiv 0028                     ??___flmul 0042                     ??___fltol 0058  
                   ??___lwdiv 0074                     ??___lwmod 0074          read_prec_or_width@ap 0076  
                 SetBit@value 0073                        pad@buf 007B         __end_of_Lcd_WriteChar 0197  
                   ??_initADC 0070                     ??_readADC 0072                     ??_initRPM 0070  
                   ??_initPWM 0070                        fputc@c 0070                        fputs@c 0020  
                      fputs@i 0021                        fputs@s 0023                        putch@c 0070  
            __end_of_vfprintf 13FE                        utoa@fp 002C                     ??_sprintf 0061  
                  ___flge@ff1 0070                    ___flge@ff2 0074   Lcd_CreateCustomChar@charmap 0021  
                ___xxtofl@arg 007A                  ___xxtofl@exp 0079                  ___xxtofl@val 0070  
     __end_of__initialization 07FC                 ??_PulseEnable 0076             __end_of_Lcd_Clear 13A9  
                  ___fltol@f1 0054                __pcstackCOMMON 0070                  __pidataBANK1 0004  
               __end_of_fputc 16AB                 __end_of_fputs 149C                 __end_of_putch 0004  
     __end_of_readTemperature 1788           _Lcd_WriteCustomChar 134B                _OPTION_REGbits 0081  
                   ?_Lcd_Init 0070                       ??_fputc 0073                       ??_fputs 0079  
                     ??_putch 0070                    __pbssBANK0 006F                    __pbssBANK1 00D9  
                  __pbssBANK3 0190          ?_Lcd_WriteCustomChar 007D             __end_of__Umul8_16 144A  
                     ?_SetBit 0070                    __pmaintext 0D75                       ?___flge 0070  
                     ?___wmul 0070           __end_of_PulseEnable 1552          countPulses@lastState 0074  
                     _CCP1CON 0017                     ?___xxtofl 0070                    ??_Lcd_Init 0022  
       Lcd_WriteString@config 007D                    __stringtab 1000        readTemperature@voltage 0058  
       ??_Lcd_WriteCustomChar 007E                       ___fladd 0197                       ___fldiv 0BA2  
           Lcd_WriteChar@data 0079                       ___flmul 0497                       ___fltol 1788  
                     ___lwdiv 15C5                       ___lwmod 158B                     ?_vfprintf 003A  
            ?_readTemperature 0054                  ?_Lcd_Command 0079                       __ptext1 13BE  
                     __ptext2 13DD                       __ptext3 0913                       __ptext4 0801  
                     __ptext5 1609                       __ptext6 1472                       __ptext7 1655  
                     __ptext8 0003                       __ptext9 158B                       _initADC 1357  
                     _readADC 1364  __end_of_Lcd_CreateCustomChar 158B                       _initRPM 1372  
                     _initPWM 13A9         read_prec_or_width@fmt 007C                    ??___xxtofl 0074  
                     main@lcd 00C1                       _sprintf 13BE                       clrloop0 1344  
                     main@sum 00B8          end_of_initialization 07FC                       fputc@fp 0072  
            Lcd_SetCursor@row 0020                       fputs@fp 0078            _read_prec_or_width 0014  
                 _PulseEnable 151E             __end_of_vfpfcnvrt 09C0           ?_read_prec_or_width 0076  
            vfpfcnvrt@convarg 0034                    ??_vfprintf 007E                     _PORTBbits 0006  
                 ___fladd@grs 00A3                 ___xxtofl@sign 0078                     _TRISBbits 0086  
        ??_read_prec_or_width 0078                   ___fldiv@grs 0034                   ___fldiv@rem 002D  
                  main@fanRPM 00B6                   ___flmul@grs 0048  Lcd_CreateCustomChar@location 0020  
       Lcd_CreateCustomChar@i 0023                    main@strRPM 00AE                    main@pulses 00B4  
           ??_Lcd_WriteString 007D                     _Lcd_Clear 1395                __end_of_SetBit 151E  
              __end_of___flge 0913                   vfpfcnvrt@ap 0031                   vfpfcnvrt@cp 0039  
                 vfpfcnvrt@fp 0038                __end_of___wmul 1423                     SetBit@pin 0072  
         start_initialization 07DC                   __end_of_pad 1655                 ??_countPulses 0072  
        _Lcd_CreateCustomChar 1552                      ??_SetBit 0074                   vfprintf@fmt 003A  
                  ?_Lcd_Clear 0070                      ??___flge 0078           Lcd_SetCursor@config 0025  
         Lcd_SetCursor@column 0021                      ??___wmul 0074                    init_fetch0 1382  
                   __Umul8_16 1423                   __pdataBANK1 00C9             Lcd_Command@config 007C  
                   ___fladd@a 0062                     ___fladd@b 005E                     ___fldiv@a 0020  
                   ___fldiv@b 0024                     ___flmul@a 003E                     ___flmul@b 003A  
         Lcd_WriteChar@config 007C                     ___latbits 0002                 __pcstackBANK0 0020  
               __pcstackBANK1 00A0                 _Lcd_SetCursor 144A         ?_Lcd_CreateCustomChar 0020  
            ___lwdiv@dividend 0072           __end_of_countPulses 14F2                      ?___fladd 005E  
                 _celsiusChar 00D1                      ?___fldiv 0020                      ?___flmul 003A  
                    ?___fltol 0054                    ?__Umul8_16 0070                      ?___lwdiv 0070  
                    ?___lwmod 0070                     __pstrings 1000                      ?_initADC 0070  
                    ?_readADC 0070                 _Lcd_WriteChar 006C                      ?_initRPM 0070  
                    ?_initPWM 0070       readTemperature@adcValue 005C   __end_of_Lcd_WriteCustomChar 1357  
            ___lwdiv@quotient 0075                ?_Lcd_SetCursor 0020                      ?_sprintf 005E  
              ___wmul@product 0074                     clear_ram0 1343                  ?_PulseEnable 0070  
                 ??_Lcd_Clear 0020               Lcd_Clear@config 007D                     main@F1788 00C9  
 Lcd_WriteCustomChar@location 007D                     _vfpfcnvrt 0913                    _ADCON0bits 001F  
                 __stringbase 100F                ?_Lcd_WriteChar 0079             ___wmul@multiplier 0070  
                    _Lcd_Init 16AB               _Lcd_WriteString 149C                   _countPulses 14C7  
   Lcd_WriteCustomChar@config 0020        ??_Lcd_CreateCustomChar 007D         countPulses@pulseCount 0072  
     countPulses@currentState 0075                    vfprintf@ap 003B                    vfprintf@fp 003C  
                 ??__Umul8_16 0072                    ?_vfpfcnvrt 0030            __end_of__stringtab 1010  
                  sprintf@fmt 005E                      ___xxtofl 09C0    Lcd_CreateCustomChar@config 0022  
             ??_Lcd_SetCursor 0022               ___lwdiv@divisor 0070               ___lwdiv@counter 0077  
                    __ptext10 15C5                      __ptext11 0014                      __ptext20 13A9  
                    __ptext12 13FE                      __ptext21 1357                      __ptext13 1719  
                    __ptext30 1395                      __ptext22 14C7                      __ptext14 1364  
                    __ptext31 1552                      __ptext23 1788                      __ptext15 09C0  
                    __ptext32 006C                      __ptext24 0871                      __ptext16 0497  
                    __ptext33 0A78                      __ptext25 0197                      __ptext17 1423  
                    __ptext34 151E                      __ptext26 149C                      __ptext18 0BA2  
                    __ptext35 14F2                      __ptext27 134B                      __ptext19 1372  
                    __ptext28 144A                      __ptext29 16AB                      _vfprintf 13DD  
             ??_Lcd_WriteChar 007A               main@temperature 00BD       __end_of_Lcd_WriteString 14C7  
                  _INTCONbits 000B                      init_ram0 1386                     sprintf@ap 0062  
            ___lwmod@dividend 0072             ??_readTemperature 007E                     stringcode 100A  
                 ??_vfpfcnvrt 0032                 ??_Lcd_Command 007A                Lcd_Command@cmd 0079  
      __Umul8_16@multiplicand 0070                      sprintf@f 0064                      sprintf@s 0063  
             ___lwmod@divisor 0070               ___lwmod@counter 0075                      stringdir 100A  
                    stringtab 1000                 ___fladd@signs 00A0                  ___fladd@aexp 00A1  
                ___fladd@bexp 00A2          __Umul8_16@multiplier 0078             __Umul8_16@product 0074  
