

Microchip MPLAB XC8 Assembler V2.45 build 20230818022343 
                                                                                               Sat Jan  6 12:24:05 2024

Microchip MPLAB XC8 C Compiler v2.45 (Free license) build 20230818022343 Og1 
     1                           	processor	16F887
     2                           	pagewidth 120
     3                           	opt	flic
     4                           	psect	cinit,global,class=CODE,merge=1,delta=2
     5                           	psect	cstackCOMMON,global,class=COMMON,space=1,delta=1,noexec
     6                           	psect	cstackBANK0,global,class=BANK0,space=1,delta=1,noexec
     7                           	psect	maintext,global,class=CODE,split=1,delta=2
     8                           	psect	text1,local,class=CODE,merge=1,delta=2
     9                           	psect	text2,local,class=CODE,merge=1,delta=2
    10                           	psect	text3,local,class=CODE,merge=1,delta=2,group=1
    11                           	psect	text4,local,class=CODE,merge=1,delta=2,group=1
    12                           	psect	text5,local,class=CODE,merge=1,delta=2,group=1
    13                           	psect	text6,local,class=CODE,merge=1,delta=2,group=1
    14                           	psect	text7,local,class=CODE,merge=1,delta=2
    15                           	psect	text8,local,class=CODE,merge=1,delta=2
    16                           	psect	text9,local,class=CODE,merge=1,delta=2,group=1
    17                           	psect	config,global,abs,ovrld,class=CONFIG,space=4,delta=2,noexec
    18                           	dabs	1,0x7E,2
    19     0000                     
    20                           ; Generated 12/10/2023 GMT
    21                           ; 
    22                           ; Copyright © 2023, Microchip Technology Inc. and its subsidiaries ("Microchip")
    23                           ; All rights reserved.
    24                           ; 
    25                           ; This software is developed by Microchip Technology Inc. and its subsidiaries ("Microch
      +                          ip").
    26                           ; 
    27                           ; Redistribution and use in source and binary forms, with or without modification, are
    28                           ; permitted provided that the following conditions are met:
    29                           ; 
    30                           ;     1. Redistributions of source code must retain the above copyright notice, this lis
      +                          t of
    31                           ;        conditions and the following disclaimer.
    32                           ; 
    33                           ;     2. Redistributions in binary form must reproduce the above copyright notice, this 
      +                          list
    34                           ;        of conditions and the following disclaimer in the documentation and/or other
    35                           ;        materials provided with the distribution. Publication is not required when
    36                           ;        this file is used in an embedded application.
    37                           ; 
    38                           ;     3. Microchip's name may not be used to endorse or promote products derived from th
      +                          is
    39                           ;        software without specific prior written permission.
    40                           ; 
    41                           ; THIS SOFTWARE IS PROVIDED BY MICROCHIP "AS IS" AND ANY EXPRESS OR IMPLIED WARRANTIES,
    42                           ; INCLUDING, BUT NOT LIMITED TO, THE IMPLIED WARRANTIES OF MERCHANTABILITY AND FITNESS F
      +                          OR
    43                           ; PURPOSE ARE DISCLAIMED.  IN NO EVENT SHALL MICROCHIP BE LIABLE FOR ANY DIRECT, INDIREC
      +                          T,
    44                           ; INCIDENTAL, SPECIAL, EXEMPLARY, OR CONSEQUENTIAL DAMAGES (INCLUDING BUT NOT LIMITED TO
    45                           ; PROCUREMENT OF SUBSTITUTE GOODS OR SERVICES; LOSS OF USE, DATA OR PROFITS; OR BUSINESS
    46                           ; INTERRUPTION) HOWSOEVER CAUSED AND ON ANY THEORY OF LIABILITY, WHETHER IN CONTRACT, ST
      +                          RICT
    47                           ; LIABILITY, OR TORT (INCLUDING NEGLIGENCE OR OTHERWISE) ARISING IN ANY WAY OUT OF THE U
      +                          SE OF
    48                           ; THIS SOFTWARE, EVEN IF ADVISED OF THE POSSIBILITY OF SUCH DAMAGE.
    49                           ; 
    50                           ; 
    51                           ; Code-generator required, PIC16F887 Definitions
    52                           ; 
    53                           ; SFR Addresses
    54     0000                     	;# 
    55     0001                     	;# 
    56     0002                     	;# 
    57     0003                     	;# 
    58     0004                     	;# 
    59     0005                     	;# 
    60     0006                     	;# 
    61     0007                     	;# 
    62     0008                     	;# 
    63     0009                     	;# 
    64     000A                     	;# 
    65     000B                     	;# 
    66     000C                     	;# 
    67     000D                     	;# 
    68     000E                     	;# 
    69     000E                     	;# 
    70     000F                     	;# 
    71     0010                     	;# 
    72     0011                     	;# 
    73     0012                     	;# 
    74     0013                     	;# 
    75     0014                     	;# 
    76     0015                     	;# 
    77     0015                     	;# 
    78     0016                     	;# 
    79     0017                     	;# 
    80     0018                     	;# 
    81     0019                     	;# 
    82     001A                     	;# 
    83     001B                     	;# 
    84     001B                     	;# 
    85     001C                     	;# 
    86     001D                     	;# 
    87     001E                     	;# 
    88     001F                     	;# 
    89     0081                     	;# 
    90     0085                     	;# 
    91     0086                     	;# 
    92     0087                     	;# 
    93     0088                     	;# 
    94     0089                     	;# 
    95     008C                     	;# 
    96     008D                     	;# 
    97     008E                     	;# 
    98     008F                     	;# 
    99     0090                     	;# 
   100     0091                     	;# 
   101     0092                     	;# 
   102     0093                     	;# 
   103     0093                     	;# 
   104     0093                     	;# 
   105     0094                     	;# 
   106     0095                     	;# 
   107     0096                     	;# 
   108     0097                     	;# 
   109     0098                     	;# 
   110     0099                     	;# 
   111     009A                     	;# 
   112     009B                     	;# 
   113     009C                     	;# 
   114     009D                     	;# 
   115     009E                     	;# 
   116     009F                     	;# 
   117     0105                     	;# 
   118     0107                     	;# 
   119     0108                     	;# 
   120     0109                     	;# 
   121     010C                     	;# 
   122     010C                     	;# 
   123     010D                     	;# 
   124     010E                     	;# 
   125     010F                     	;# 
   126     0185                     	;# 
   127     0187                     	;# 
   128     0188                     	;# 
   129     0189                     	;# 
   130     018C                     	;# 
   131     018D                     	;# 
   132     0000                     	;# 
   133     0001                     	;# 
   134     0002                     	;# 
   135     0003                     	;# 
   136     0004                     	;# 
   137     0005                     	;# 
   138     0006                     	;# 
   139     0007                     	;# 
   140     0008                     	;# 
   141     0009                     	;# 
   142     000A                     	;# 
   143     000B                     	;# 
   144     000C                     	;# 
   145     000D                     	;# 
   146     000E                     	;# 
   147     000E                     	;# 
   148     000F                     	;# 
   149     0010                     	;# 
   150     0011                     	;# 
   151     0012                     	;# 
   152     0013                     	;# 
   153     0014                     	;# 
   154     0015                     	;# 
   155     0015                     	;# 
   156     0016                     	;# 
   157     0017                     	;# 
   158     0018                     	;# 
   159     0019                     	;# 
   160     001A                     	;# 
   161     001B                     	;# 
   162     001B                     	;# 
   163     001C                     	;# 
   164     001D                     	;# 
   165     001E                     	;# 
   166     001F                     	;# 
   167     0081                     	;# 
   168     0085                     	;# 
   169     0086                     	;# 
   170     0087                     	;# 
   171     0088                     	;# 
   172     0089                     	;# 
   173     008C                     	;# 
   174     008D                     	;# 
   175     008E                     	;# 
   176     008F                     	;# 
   177     0090                     	;# 
   178     0091                     	;# 
   179     0092                     	;# 
   180     0093                     	;# 
   181     0093                     	;# 
   182     0093                     	;# 
   183     0094                     	;# 
   184     0095                     	;# 
   185     0096                     	;# 
   186     0097                     	;# 
   187     0098                     	;# 
   188     0099                     	;# 
   189     009A                     	;# 
   190     009B                     	;# 
   191     009C                     	;# 
   192     009D                     	;# 
   193     009E                     	;# 
   194     009F                     	;# 
   195     0105                     	;# 
   196     0107                     	;# 
   197     0108                     	;# 
   198     0109                     	;# 
   199     010C                     	;# 
   200     010C                     	;# 
   201     010D                     	;# 
   202     010E                     	;# 
   203     010F                     	;# 
   204     0185                     	;# 
   205     0187                     	;# 
   206     0188                     	;# 
   207     0189                     	;# 
   208     018C                     	;# 
   209     018D                     	;# 
   210     001E                     _ADRESH	set	30
   211     001F                     _ADCON0bits	set	31
   212     001F                     _ADCON0	set	31
   213     0015                     _CCPR1L	set	21
   214     0017                     _CCP1CON	set	23
   215     0012                     _T2CON	set	18
   216     009E                     _ADRESL	set	158
   217     009F                     _ADCON1	set	159
   218     0092                     _PR2	set	146
   219     0087                     _TRISC	set	135
   220     008F                     _OSCCON	set	143
   221     0188                     _ANSEL	set	392
   222                           
   223                           	psect	cinit
   224     07FC                     start_initialization:	
   225                           ; #config settings
   226                           
   227     07FC                     __initialization:
   228     07FC                     end_of_initialization:	
   229                           ;End of C runtime variable initialization code
   230                           
   231     07FC                     __end_of__initialization:
   232     07FC  0183               	clrf	3
   233     07FD  120A  118A  28EC   	ljmp	_main	;jump to C main() function
   234                           
   235                           	psect	cstackCOMMON
   236     0070                     __pcstackCOMMON:
   237     0070                     ?___flge:
   238     0070                     ?_initPWM:	
   239                           ; 1 bit 
   240                           
   241     0070                     ??_initPWM:	
   242                           ; 1 bytes @ 0x0
   243                           
   244     0070                     ?_initADC:	
   245                           ; 1 bytes @ 0x0
   246                           
   247     0070                     ??_initADC:	
   248                           ; 1 bytes @ 0x0
   249                           
   250     0070                     ?_main:	
   251                           ; 1 bytes @ 0x0
   252                           
   253     0070                     ?__Umul8_16:	
   254                           ; 1 bytes @ 0x0
   255                           
   256     0070                     ?_readADC:	
   257                           ; 2 bytes @ 0x0
   258                           
   259     0070                     ?___xxtofl:	
   260                           ; 2 bytes @ 0x0
   261                           
   262     0070                     __Umul8_16@multiplicand:	
   263                           ; 4 bytes @ 0x0
   264                           
   265     0070                     ___flge@ff1:	
   266                           ; 1 bytes @ 0x0
   267                           
   268     0070                     ___xxtofl@val:	
   269                           ; 4 bytes @ 0x0
   270                           
   271                           
   272                           ; 4 bytes @ 0x0
   273     0070                     	ds	2
   274     0072                     ??__Umul8_16:
   275     0072                     ??_readADC:	
   276                           ; 1 bytes @ 0x2
   277                           
   278                           
   279                           ; 1 bytes @ 0x2
   280     0072                     	ds	2
   281     0074                     ??___xxtofl:
   282     0074                     __Umul8_16@product:	
   283                           ; 1 bytes @ 0x4
   284                           
   285     0074                     ___flge@ff2:	
   286                           ; 2 bytes @ 0x4
   287                           
   288                           
   289                           ; 4 bytes @ 0x4
   290     0074                     	ds	2
   291     0076                     __Umul8_16@word_mpld:
   292                           
   293                           ; 2 bytes @ 0x6
   294     0076                     	ds	2
   295     0078                     ??___flge:
   296     0078                     __Umul8_16@multiplier:	
   297                           ; 1 bytes @ 0x8
   298                           
   299     0078                     ___xxtofl@sign:	
   300                           ; 1 bytes @ 0x8
   301                           
   302                           
   303                           ; 1 bytes @ 0x8
   304     0078                     	ds	1
   305     0079                     ___xxtofl@exp:
   306                           
   307                           ; 1 bytes @ 0x9
   308     0079                     	ds	1
   309     007A                     ___xxtofl@arg:
   310                           
   311                           ; 4 bytes @ 0xA
   312     007A                     	ds	4
   313     007E                     ??_readTemperature:
   314                           
   315                           	psect	cstackBANK0
   316     0020                     __pcstackBANK0:	
   317                           ; 1 bytes @ 0xE
   318                           
   319     0020                     ?___fldiv:
   320     0020                     ___fldiv@a:	
   321                           ; 4 bytes @ 0x0
   322                           
   323                           
   324                           ; 4 bytes @ 0x0
   325     0020                     	ds	4
   326     0024                     ___fldiv@b:
   327                           
   328                           ; 4 bytes @ 0x4
   329     0024                     	ds	4
   330     0028                     ??___fldiv:
   331                           
   332                           ; 1 bytes @ 0x8
   333     0028                     	ds	5
   334     002D                     ___fldiv@rem:
   335                           
   336                           ; 4 bytes @ 0xD
   337     002D                     	ds	4
   338     0031                     ___fldiv@sign:
   339                           
   340                           ; 1 bytes @ 0x11
   341     0031                     	ds	1
   342     0032                     ___fldiv@new_exp:
   343                           
   344                           ; 2 bytes @ 0x12
   345     0032                     	ds	2
   346     0034                     ___fldiv@grs:
   347                           
   348                           ; 4 bytes @ 0x14
   349     0034                     	ds	4
   350     0038                     ___fldiv@bexp:
   351                           
   352                           ; 1 bytes @ 0x18
   353     0038                     	ds	1
   354     0039                     ___fldiv@aexp:
   355                           
   356                           ; 1 bytes @ 0x19
   357     0039                     	ds	1
   358     003A                     ?___flmul:
   359     003A                     ___flmul@b:	
   360                           ; 4 bytes @ 0x1A
   361                           
   362                           
   363                           ; 4 bytes @ 0x1A
   364     003A                     	ds	4
   365     003E                     ___flmul@a:
   366                           
   367                           ; 4 bytes @ 0x1E
   368     003E                     	ds	4
   369     0042                     ??___flmul:
   370                           
   371                           ; 1 bytes @ 0x22
   372     0042                     	ds	5
   373     0047                     ___flmul@sign:
   374                           
   375                           ; 1 bytes @ 0x27
   376     0047                     	ds	1
   377     0048                     ___flmul@grs:
   378                           
   379                           ; 4 bytes @ 0x28
   380     0048                     	ds	4
   381     004C                     ___flmul@aexp:
   382                           
   383                           ; 1 bytes @ 0x2C
   384     004C                     	ds	1
   385     004D                     ___flmul@bexp:
   386                           
   387                           ; 1 bytes @ 0x2D
   388     004D                     	ds	1
   389     004E                     ___flmul@prod:
   390                           
   391                           ; 4 bytes @ 0x2E
   392     004E                     	ds	4
   393     0052                     ___flmul@temp:
   394                           
   395                           ; 2 bytes @ 0x32
   396     0052                     	ds	2
   397     0054                     ?_readTemperature:
   398                           
   399                           ; 4 bytes @ 0x34
   400     0054                     	ds	4
   401     0058                     readTemperature@voltage:
   402                           
   403                           ; 4 bytes @ 0x38
   404     0058                     	ds	4
   405     005C                     readTemperature@adcValue:
   406                           
   407                           ; 2 bytes @ 0x3C
   408     005C                     	ds	2
   409     005E                     ??_main:
   410                           
   411                           ; 1 bytes @ 0x3E
   412     005E                     	ds	3
   413     0061                     main@temperature:
   414                           
   415                           ; 4 bytes @ 0x41
   416     0061                     	ds	4
   417                           
   418                           	psect	maintext
   419     00EC                     __pmaintext:	
   420 ;;
   421 ;;Main: autosize = 0, tempsize = 3, incstack = 0, save=0
   422 ;;
   423 ;; *************** function _main *****************
   424 ;; Defined at:
   425 ;;		line 43 in file "pic16f887_4_wires_cooler_control.c"
   426 ;; Parameters:    Size  Location     Type
   427 ;;		None
   428 ;; Auto vars:     Size  Location     Type
   429 ;;  temperature     4   65[BANK0 ] float 
   430 ;; Return value:  Size  Location     Type
   431 ;;                  1    wreg      void 
   432 ;; Registers used:
   433 ;;		wreg, status,2, status,0, btemp+1, pclath, cstack
   434 ;; Tracked objects:
   435 ;;		On entry : B00/0
   436 ;;		On exit  : 0/0
   437 ;;		Unchanged: 0/0
   438 ;; Data sizes:     COMMON   BANK0   BANK1   BANK3   BANK2
   439 ;;      Params:         0       0       0       0       0
   440 ;;      Locals:         0       4       0       0       0
   441 ;;      Temps:          0       3       0       0       0
   442 ;;      Totals:         0       7       0       0       0
   443 ;;Total ram usage:        7 bytes
   444 ;; Hardware stack levels required when called: 3
   445 ;; This function calls:
   446 ;;		___flge
   447 ;;		_initADC
   448 ;;		_initPWM
   449 ;;		_readTemperature
   450 ;; This function is called by:
   451 ;;		Startup code after reset
   452 ;; This function uses a non-reentrant model
   453 ;;
   454                           
   455     00EC                     _main:	
   456                           ;psect for function _main
   457                           
   458     00EC                     l1396:	
   459                           ;incstack = 0
   460                           ; Regs used in _main: [wreg+status,2+status,0+btemp+1+pclath+cstack]
   461                           
   462                           
   463                           ;pic16f887_4_wires_cooler_control.c: 44:         else if (temperature > 20.0)
   464     00EC  120A  118A  2041  120A  118A  	fcall	_initPWM
   465                           
   466                           ;pic16f887_4_wires_cooler_control.c: 45:             CCPR1L = 9;
   467     00F1  120A  118A  2026  120A  118A  	fcall	_initADC
   468     00F6                     l1398:
   469                           
   470                           ;pic16f887_4_wires_cooler_control.c: 47:     }
   471     00F6  3064               	movlw	100
   472     00F7  1283               	bcf	3,5	;RP0=0, select bank0
   473     00F8  1303               	bcf	3,6	;RP1=0, select bank0
   474     00F9  0095               	movwf	21	;volatile
   475     00FA                     l1400:
   476                           
   477                           ;pic16f887_4_wires_cooler_control.c: 48: }
   478     00FA  301A               	movlw	26
   479     00FB  1283               	bcf	3,5	;RP0=0, select bank0
   480     00FC  1303               	bcf	3,6	;RP1=0, select bank0
   481     00FD  00E0               	movwf	??_main+2
   482     00FE  305E               	movlw	94
   483     00FF  00DF               	movwf	??_main+1
   484     0100  306D               	movlw	109
   485     0101  00DE               	movwf	??_main
   486     0102                     u1897:
   487     0102  0BDE               	decfsz	??_main,f
   488     0103  2902               	goto	u1897
   489     0104  0BDF               	decfsz	??_main+1,f
   490     0105  2902               	goto	u1897
   491     0106  0BE0               	decfsz	??_main+2,f
   492     0107  2902               	goto	u1897
   493     0108  2909               	nop2
   494     0109                     l1402:
   495     0109  1283               	bcf	3,5	;RP0=0, select bank0
   496     010A  1303               	bcf	3,6	;RP1=0, select bank0
   497     010B  0195               	clrf	21	;volatile
   498     010C                     l1404:
   499     010C  120A  118A  207D  120A  118A  	fcall	_readTemperature
   500     0111  1283               	bcf	3,5	;RP0=0, select bank0
   501     0112  1303               	bcf	3,6	;RP1=0, select bank0
   502     0113  0857               	movf	?_readTemperature+3,w
   503     0114  00E4               	movwf	main@temperature+3
   504     0115  0856               	movf	?_readTemperature+2,w
   505     0116  00E3               	movwf	main@temperature+2
   506     0117  0855               	movf	?_readTemperature+1,w
   507     0118  00E2               	movwf	main@temperature+1
   508     0119  0854               	movf	?_readTemperature,w
   509     011A  00E1               	movwf	main@temperature
   510     011B                     l1406:
   511     011B  3042               	movlw	66
   512     011C  00F3               	movwf	___flge@ff1+3
   513     011D  3004               	movlw	4
   514     011E  00F2               	movwf	___flge@ff1+2
   515     011F  3000               	movlw	0
   516     0120  00F1               	movwf	___flge@ff1+1
   517     0121  3000               	movlw	0
   518     0122  00F0               	movwf	___flge@ff1
   519     0123  0864               	movf	main@temperature+3,w
   520     0124  00F7               	movwf	___flge@ff2+3
   521     0125  0863               	movf	main@temperature+2,w
   522     0126  00F6               	movwf	___flge@ff2+2
   523     0127  0862               	movf	main@temperature+1,w
   524     0128  00F5               	movwf	___flge@ff2+1
   525     0129  0861               	movf	main@temperature,w
   526     012A  00F4               	movwf	___flge@ff2
   527     012B  120A  118A  218A  120A  118A  	fcall	___flge
   528     0130  1803               	btfsc	3,0
   529     0131  2933               	goto	u1861
   530     0132  2934               	goto	u1860
   531     0133                     u1861:
   532     0133  2939               	goto	l1410
   533     0134                     u1860:
   534     0134                     l1408:
   535     0134  30C8               	movlw	200
   536     0135  1283               	bcf	3,5	;RP0=0, select bank0
   537     0136  1303               	bcf	3,6	;RP1=0, select bank0
   538     0137  0095               	movwf	21	;volatile
   539     0138  2978               	goto	l48
   540     0139                     l1410:
   541     0139  3041               	movlw	65
   542     013A  00F3               	movwf	___flge@ff1+3
   543     013B  30F0               	movlw	240
   544     013C  00F2               	movwf	___flge@ff1+2
   545     013D  3000               	movlw	0
   546     013E  00F1               	movwf	___flge@ff1+1
   547     013F  3000               	movlw	0
   548     0140  00F0               	movwf	___flge@ff1
   549     0141  1283               	bcf	3,5	;RP0=0, select bank0
   550     0142  1303               	bcf	3,6	;RP1=0, select bank0
   551     0143  0864               	movf	main@temperature+3,w
   552     0144  00F7               	movwf	___flge@ff2+3
   553     0145  0863               	movf	main@temperature+2,w
   554     0146  00F6               	movwf	___flge@ff2+2
   555     0147  0862               	movf	main@temperature+1,w
   556     0148  00F5               	movwf	___flge@ff2+1
   557     0149  0861               	movf	main@temperature,w
   558     014A  00F4               	movwf	___flge@ff2
   559     014B  120A  118A  218A  120A  118A  	fcall	___flge
   560     0150  1803               	btfsc	3,0
   561     0151  2953               	goto	u1871
   562     0152  2954               	goto	u1870
   563     0153                     u1871:
   564     0153  2959               	goto	l1414
   565     0154                     u1870:
   566     0154                     l1412:
   567     0154  3012               	movlw	18
   568     0155  1283               	bcf	3,5	;RP0=0, select bank0
   569     0156  1303               	bcf	3,6	;RP1=0, select bank0
   570     0157  0095               	movwf	21	;volatile
   571     0158  2978               	goto	l48
   572     0159                     l1414:
   573     0159  3041               	movlw	65
   574     015A  00F3               	movwf	___flge@ff1+3
   575     015B  30A0               	movlw	160
   576     015C  00F2               	movwf	___flge@ff1+2
   577     015D  3000               	movlw	0
   578     015E  00F1               	movwf	___flge@ff1+1
   579     015F  3000               	movlw	0
   580     0160  00F0               	movwf	___flge@ff1
   581     0161  1283               	bcf	3,5	;RP0=0, select bank0
   582     0162  1303               	bcf	3,6	;RP1=0, select bank0
   583     0163  0864               	movf	main@temperature+3,w
   584     0164  00F7               	movwf	___flge@ff2+3
   585     0165  0863               	movf	main@temperature+2,w
   586     0166  00F6               	movwf	___flge@ff2+2
   587     0167  0862               	movf	main@temperature+1,w
   588     0168  00F5               	movwf	___flge@ff2+1
   589     0169  0861               	movf	main@temperature,w
   590     016A  00F4               	movwf	___flge@ff2
   591     016B  120A  118A  218A  120A  118A  	fcall	___flge
   592     0170  1803               	btfsc	3,0
   593     0171  2973               	goto	u1881
   594     0172  2974               	goto	u1880
   595     0173                     u1881:
   596     0173  2978               	goto	l48
   597     0174                     u1880:
   598     0174                     l1416:
   599     0174  3009               	movlw	9
   600     0175  1283               	bcf	3,5	;RP0=0, select bank0
   601     0176  1303               	bcf	3,6	;RP1=0, select bank0
   602     0177  0095               	movwf	21	;volatile
   603     0178                     l48:
   604     0178  300B               	movlw	11
   605     0179  1283               	bcf	3,5	;RP0=0, select bank0
   606     017A  1303               	bcf	3,6	;RP1=0, select bank0
   607     017B  00E0               	movwf	??_main+2
   608     017C  3026               	movlw	38
   609     017D  00DF               	movwf	??_main+1
   610     017E  305D               	movlw	93
   611     017F  00DE               	movwf	??_main
   612     0180                     u1907:
   613     0180  0BDE               	decfsz	??_main,f
   614     0181  2980               	goto	u1907
   615     0182  0BDF               	decfsz	??_main+1,f
   616     0183  2980               	goto	u1907
   617     0184  0BE0               	decfsz	??_main+2,f
   618     0185  2980               	goto	u1907
   619     0186  290C               	goto	l1404
   620     0187  120A  118A  2800   	ljmp	start
   621     018A                     __end_of_main:
   622                           
   623                           	psect	text1
   624     007D                     __ptext1:	
   625 ;; *************** function _readTemperature *****************
   626 ;; Defined at:
   627 ;;		line 37 in file "pic16f887_4_wires_cooler_control.c"
   628 ;; Parameters:    Size  Location     Type
   629 ;;		None
   630 ;; Auto vars:     Size  Location     Type
   631 ;;  voltage         4   56[BANK0 ] float 
   632 ;;  adcValue        2   60[BANK0 ] unsigned int 
   633 ;; Return value:  Size  Location     Type
   634 ;;                  4   52[BANK0 ] float 
   635 ;; Registers used:
   636 ;;		wreg, status,2, status,0, btemp+1, pclath, cstack
   637 ;; Tracked objects:
   638 ;;		On entry : 0/0
   639 ;;		On exit  : 0/0
   640 ;;		Unchanged: 0/0
   641 ;; Data sizes:     COMMON   BANK0   BANK1   BANK3   BANK2
   642 ;;      Params:         0       4       0       0       0
   643 ;;      Locals:         0       6       0       0       0
   644 ;;      Temps:          0       0       0       0       0
   645 ;;      Totals:         0      10       0       0       0
   646 ;;Total ram usage:       10 bytes
   647 ;; Hardware stack levels used: 1
   648 ;; Hardware stack levels required when called: 2
   649 ;; This function calls:
   650 ;;		___fldiv
   651 ;;		___flmul
   652 ;;		___xxtofl
   653 ;;		_readADC
   654 ;; This function is called by:
   655 ;;		_main
   656 ;; This function uses a non-reentrant model
   657 ;;
   658                           
   659     007D                     _readTemperature:	
   660                           ;psect for function _readTemperature
   661                           
   662     007D                     l1368:	
   663                           ;incstack = 0
   664                           ; Regs used in _readTemperature: [wreg+status,2+status,0+btemp+1+pclath+cstack]
   665                           
   666                           
   667                           ;pic16f887_4_wires_cooler_control.c: 38:     while(1) {
   668     007D  120A  118A  2033  120A  118A  	fcall	_readADC
   669     0082  0871               	movf	?_readADC+1,w
   670     0083  1283               	bcf	3,5	;RP0=0, select bank0
   671     0084  1303               	bcf	3,6	;RP1=0, select bank0
   672     0085  00DD               	movwf	readTemperature@adcValue+1
   673     0086  0870               	movf	?_readADC,w
   674     0087  00DC               	movwf	readTemperature@adcValue
   675     0088                     l1370:
   676                           
   677                           ;pic16f887_4_wires_cooler_control.c: 39:         float temperature = readTemperature();
   678     0088  3040               	movlw	64
   679     0089  00BD               	movwf	___flmul@b+3
   680     008A  30A0               	movlw	160
   681     008B  00BC               	movwf	___flmul@b+2
   682     008C  3000               	movlw	0
   683     008D  00BB               	movwf	___flmul@b+1
   684     008E  3000               	movlw	0
   685     008F  00BA               	movwf	___flmul@b
   686     0090  3044               	movlw	68
   687     0091  00A3               	movwf	___fldiv@a+3
   688     0092  3080               	movlw	128
   689     0093  00A2               	movwf	___fldiv@a+2
   690     0094  3000               	movlw	0
   691     0095  00A1               	movwf	___fldiv@a+1
   692     0096  3000               	movlw	0
   693     0097  00A0               	movwf	___fldiv@a
   694     0098  085C               	movf	readTemperature@adcValue,w
   695     0099  00F0               	movwf	___xxtofl@val
   696     009A  085D               	movf	readTemperature@adcValue+1,w
   697     009B  00F1               	movwf	___xxtofl@val+1
   698     009C  01F2               	clrf	___xxtofl@val+2
   699     009D  01F3               	clrf	___xxtofl@val+3
   700     009E  3000               	movlw	0
   701     009F  120A  118A  222C  120A  118A  	fcall	___xxtofl
   702     00A4  0873               	movf	?___xxtofl+3,w
   703     00A5  1283               	bcf	3,5	;RP0=0, select bank0
   704     00A6  1303               	bcf	3,6	;RP1=0, select bank0
   705     00A7  00A7               	movwf	___fldiv@b+3
   706     00A8  0872               	movf	?___xxtofl+2,w
   707     00A9  00A6               	movwf	___fldiv@b+2
   708     00AA  0871               	movf	?___xxtofl+1,w
   709     00AB  00A5               	movwf	___fldiv@b+1
   710     00AC  0870               	movf	?___xxtofl,w
   711     00AD  00A4               	movwf	___fldiv@b
   712     00AE  120A  118A  22E4  120A  118A  	fcall	___fldiv
   713     00B3  1283               	bcf	3,5	;RP0=0, select bank0
   714     00B4  1303               	bcf	3,6	;RP1=0, select bank0
   715     00B5  0823               	movf	?___fldiv+3,w
   716     00B6  00C1               	movwf	___flmul@a+3
   717     00B7  0822               	movf	?___fldiv+2,w
   718     00B8  00C0               	movwf	___flmul@a+2
   719     00B9  0821               	movf	?___fldiv+1,w
   720     00BA  00BF               	movwf	___flmul@a+1
   721     00BB  0820               	movf	?___fldiv,w
   722     00BC  00BE               	movwf	___flmul@a
   723     00BD  120A  118A  24B7  120A  118A  	fcall	___flmul
   724     00C2  1283               	bcf	3,5	;RP0=0, select bank0
   725     00C3  1303               	bcf	3,6	;RP1=0, select bank0
   726     00C4  083D               	movf	?___flmul+3,w
   727     00C5  00DB               	movwf	readTemperature@voltage+3
   728     00C6  083C               	movf	?___flmul+2,w
   729     00C7  00DA               	movwf	readTemperature@voltage+2
   730     00C8  083B               	movf	?___flmul+1,w
   731     00C9  00D9               	movwf	readTemperature@voltage+1
   732     00CA  083A               	movf	?___flmul,w
   733     00CB  00D8               	movwf	readTemperature@voltage
   734     00CC                     l1372:
   735                           
   736                           ;pic16f887_4_wires_cooler_control.c: 40:         if (temperature > 33.0)
   737     00CC  303C               	movlw	60
   738     00CD  00A3               	movwf	___fldiv@a+3
   739     00CE  3023               	movlw	35
   740     00CF  00A2               	movwf	___fldiv@a+2
   741     00D0  30D7               	movlw	215
   742     00D1  00A1               	movwf	___fldiv@a+1
   743     00D2  300A               	movlw	10
   744     00D3  00A0               	movwf	___fldiv@a
   745     00D4  085B               	movf	readTemperature@voltage+3,w
   746     00D5  00A7               	movwf	___fldiv@b+3
   747     00D6  085A               	movf	readTemperature@voltage+2,w
   748     00D7  00A6               	movwf	___fldiv@b+2
   749     00D8  0859               	movf	readTemperature@voltage+1,w
   750     00D9  00A5               	movwf	___fldiv@b+1
   751     00DA  0858               	movf	readTemperature@voltage,w
   752     00DB  00A4               	movwf	___fldiv@b
   753     00DC  120A  118A  22E4  120A  118A  	fcall	___fldiv
   754     00E1  1283               	bcf	3,5	;RP0=0, select bank0
   755     00E2  1303               	bcf	3,6	;RP1=0, select bank0
   756     00E3  0823               	movf	?___fldiv+3,w
   757     00E4  00D7               	movwf	?_readTemperature+3
   758     00E5  0822               	movf	?___fldiv+2,w
   759     00E6  00D6               	movwf	?_readTemperature+2
   760     00E7  0821               	movf	?___fldiv+1,w
   761     00E8  00D5               	movwf	?_readTemperature+1
   762     00E9  0820               	movf	?___fldiv,w
   763     00EA  00D4               	movwf	?_readTemperature
   764     00EB                     l41:
   765     00EB  0008               	return
   766     00EC                     __end_of_readTemperature:
   767                           
   768                           	psect	text2
   769     0033                     __ptext2:	
   770 ;; *************** function _readADC *****************
   771 ;; Defined at:
   772 ;;		line 31 in file "pic16f887_4_wires_cooler_control.c"
   773 ;; Parameters:    Size  Location     Type
   774 ;;		None
   775 ;; Auto vars:     Size  Location     Type
   776 ;;		None
   777 ;; Return value:  Size  Location     Type
   778 ;;                  2    0[COMMON] unsigned int 
   779 ;; Registers used:
   780 ;;		wreg
   781 ;; Tracked objects:
   782 ;;		On entry : 0/0
   783 ;;		On exit  : 0/0
   784 ;;		Unchanged: 0/0
   785 ;; Data sizes:     COMMON   BANK0   BANK1   BANK3   BANK2
   786 ;;      Params:         2       0       0       0       0
   787 ;;      Locals:         0       0       0       0       0
   788 ;;      Temps:          0       0       0       0       0
   789 ;;      Totals:         2       0       0       0       0
   790 ;;Total ram usage:        2 bytes
   791 ;; Hardware stack levels used: 1
   792 ;; This function calls:
   793 ;;		Nothing
   794 ;; This function is called by:
   795 ;;		_readTemperature
   796 ;; This function uses a non-reentrant model
   797 ;;
   798                           
   799     0033                     _readADC:	
   800                           ;psect for function _readADC
   801                           
   802     0033                     l1022:	
   803                           ;incstack = 0
   804                           ; Regs used in _readADC: [wreg]
   805                           
   806                           
   807                           ;pic16f887_4_wires_cooler_control.c: 32:     initADC();
   808     0033  1283               	bcf	3,5	;RP0=0, select bank0
   809     0034  1303               	bcf	3,6	;RP1=0, select bank0
   810     0035  149F               	bsf	31,1	;volatile
   811     0036                     l35:	
   812                           ;pic16f887_4_wires_cooler_control.c: 33: 
   813                           
   814     0036  189F               	btfsc	31,1	;volatile
   815     0037  2839               	goto	u981
   816     0038  283A               	goto	u980
   817     0039                     u981:
   818     0039  2836               	goto	l35
   819     003A                     u980:
   820     003A                     l1024:
   821                           
   822                           ;pic16f887_4_wires_cooler_control.c: 34:     CCPR1L = 100;
   823     003A  081E               	movf	30,w	;volatile
   824     003B  00F1               	movwf	?_readADC+1
   825     003C  1683               	bsf	3,5	;RP0=1, select bank1
   826     003D  1303               	bcf	3,6	;RP1=0, select bank1
   827     003E  081E               	movf	30,w	;volatile
   828     003F  00F0               	movwf	?_readADC
   829     0040                     l38:
   830     0040  0008               	return
   831     0041                     __end_of_readADC:
   832                           
   833                           	psect	text3
   834     022C                     __ptext3:	
   835 ;; *************** function ___xxtofl *****************
   836 ;; Defined at:
   837 ;;		line 10 in file "/Applications/microchip/xc8/v2.45/pic/sources/c99/common/xxtofl.c"
   838 ;; Parameters:    Size  Location     Type
   839 ;;  sign            1    wreg     unsigned char 
   840 ;;  val             4    0[COMMON] long 
   841 ;; Auto vars:     Size  Location     Type
   842 ;;  sign            1    8[COMMON] unsigned char 
   843 ;;  arg             4   10[COMMON] unsigned long 
   844 ;;  exp             1    9[COMMON] unsigned char 
   845 ;; Return value:  Size  Location     Type
   846 ;;                  4    0[COMMON] unsigned char 
   847 ;; Registers used:
   848 ;;		wreg, status,2, status,0
   849 ;; Tracked objects:
   850 ;;		On entry : 0/0
   851 ;;		On exit  : 0/0
   852 ;;		Unchanged: 0/0
   853 ;; Data sizes:     COMMON   BANK0   BANK1   BANK3   BANK2
   854 ;;      Params:         4       0       0       0       0
   855 ;;      Locals:         6       0       0       0       0
   856 ;;      Temps:          4       0       0       0       0
   857 ;;      Totals:        14       0       0       0       0
   858 ;;Total ram usage:       14 bytes
   859 ;; Hardware stack levels used: 1
   860 ;; This function calls:
   861 ;;		Nothing
   862 ;; This function is called by:
   863 ;;		_readTemperature
   864 ;; This function uses a non-reentrant model
   865 ;;
   866                           
   867     022C                     ___xxtofl:	
   868                           ;psect for function ___xxtofl
   869                           
   870                           
   871                           ;incstack = 0
   872                           ; Regs used in ___xxtofl: [wreg+status,2+status,0]
   873                           ;___xxtofl@sign stored from wreg
   874     022C  00F8               	movwf	___xxtofl@sign
   875     022D                     l1310:
   876     022D  0878               	movf	___xxtofl@sign,w
   877     022E  1903               	btfsc	3,2
   878     022F  2A31               	goto	u1651
   879     0230  2A32               	goto	u1650
   880     0231                     u1651:
   881     0231  2A46               	goto	l1316
   882     0232                     u1650:
   883     0232                     l1312:
   884     0232  1FF3               	btfss	___xxtofl@val+3,7
   885     0233  2A35               	goto	u1661
   886     0234  2A36               	goto	u1660
   887     0235                     u1661:
   888     0235  2A46               	goto	l1316
   889     0236                     u1660:
   890     0236                     l1314:
   891     0236  0970               	comf	___xxtofl@val,w
   892     0237  00FA               	movwf	___xxtofl@arg
   893     0238  0971               	comf	___xxtofl@val+1,w
   894     0239  00FB               	movwf	___xxtofl@arg+1
   895     023A  0972               	comf	___xxtofl@val+2,w
   896     023B  00FC               	movwf	___xxtofl@arg+2
   897     023C  0973               	comf	___xxtofl@val+3,w
   898     023D  00FD               	movwf	___xxtofl@arg+3
   899     023E  0AFA               	incf	___xxtofl@arg,f
   900     023F  1903               	skipnz
   901     0240  0AFB               	incf	___xxtofl@arg+1,f
   902     0241  1903               	skipnz
   903     0242  0AFC               	incf	___xxtofl@arg+2,f
   904     0243  1903               	skipnz
   905     0244  0AFD               	incf	___xxtofl@arg+3,f
   906     0245  2A4E               	goto	l581
   907     0246                     l1316:
   908     0246  0873               	movf	___xxtofl@val+3,w
   909     0247  00FD               	movwf	___xxtofl@arg+3
   910     0248  0872               	movf	___xxtofl@val+2,w
   911     0249  00FC               	movwf	___xxtofl@arg+2
   912     024A  0871               	movf	___xxtofl@val+1,w
   913     024B  00FB               	movwf	___xxtofl@arg+1
   914     024C  0870               	movf	___xxtofl@val,w
   915     024D  00FA               	movwf	___xxtofl@arg
   916     024E                     l581:
   917     024E  0873               	movf	___xxtofl@val+3,w
   918     024F  0472               	iorwf	___xxtofl@val+2,w
   919     0250  0471               	iorwf	___xxtofl@val+1,w
   920     0251  0470               	iorwf	___xxtofl@val,w
   921     0252  1D03               	skipz
   922     0253  2A55               	goto	u1671
   923     0254  2A56               	goto	u1670
   924     0255                     u1671:
   925     0255  2A5F               	goto	l1322
   926     0256                     u1670:
   927     0256                     l1318:
   928     0256  3000               	movlw	0
   929     0257  00F3               	movwf	?___xxtofl+3
   930     0258  3000               	movlw	0
   931     0259  00F2               	movwf	?___xxtofl+2
   932     025A  3000               	movlw	0
   933     025B  00F1               	movwf	?___xxtofl+1
   934     025C  3000               	movlw	0
   935     025D  00F0               	movwf	?___xxtofl
   936     025E  2AE3               	goto	l583
   937     025F                     l1322:
   938     025F  3096               	movlw	150
   939     0260  00F9               	movwf	___xxtofl@exp
   940     0261  2A6F               	goto	l1326
   941     0262                     l1324:
   942     0262  3001               	movlw	1
   943     0263  00F4               	movwf	??___xxtofl
   944     0264  0874               	movf	??___xxtofl,w
   945     0265  07F9               	addwf	___xxtofl@exp,f
   946     0266  3001               	movlw	1
   947     0267                     u1685:
   948     0267  1003               	clrc
   949     0268  0CFD               	rrf	___xxtofl@arg+3,f
   950     0269  0CFC               	rrf	___xxtofl@arg+2,f
   951     026A  0CFB               	rrf	___xxtofl@arg+1,f
   952     026B  0CFA               	rrf	___xxtofl@arg,f
   953     026C  3EFF               	addlw	-1
   954     026D  1D03               	skipz
   955     026E  2A67               	goto	u1685
   956     026F                     l1326:
   957     026F  30FE               	movlw	254
   958     0270  057D               	andwf	___xxtofl@arg+3,w
   959     0271  1D03               	btfss	3,2
   960     0272  2A74               	goto	u1691
   961     0273  2A75               	goto	u1690
   962     0274                     u1691:
   963     0274  2A62               	goto	l1324
   964     0275                     u1690:
   965     0275  2A91               	goto	l587
   966     0276                     l1328:
   967     0276  3001               	movlw	1
   968     0277  00F4               	movwf	??___xxtofl
   969     0278  0874               	movf	??___xxtofl,w
   970     0279  07F9               	addwf	___xxtofl@exp,f
   971     027A                     l1330:
   972     027A  3001               	movlw	1
   973     027B  07FA               	addwf	___xxtofl@arg,f
   974     027C  3000               	movlw	0
   975     027D  1803               	skipnc
   976     027E  3001               	movlw	1
   977     027F  07FB               	addwf	___xxtofl@arg+1,f
   978     0280  3000               	movlw	0
   979     0281  1803               	skipnc
   980     0282  3001               	movlw	1
   981     0283  07FC               	addwf	___xxtofl@arg+2,f
   982     0284  3000               	movlw	0
   983     0285  1803               	skipnc
   984     0286  3001               	movlw	1
   985     0287  07FD               	addwf	___xxtofl@arg+3,f
   986     0288                     l1332:
   987     0288  3001               	movlw	1
   988     0289                     u1705:
   989     0289  1003               	clrc
   990     028A  0CFD               	rrf	___xxtofl@arg+3,f
   991     028B  0CFC               	rrf	___xxtofl@arg+2,f
   992     028C  0CFB               	rrf	___xxtofl@arg+1,f
   993     028D  0CFA               	rrf	___xxtofl@arg,f
   994     028E  3EFF               	addlw	-1
   995     028F  1D03               	skipz
   996     0290  2A89               	goto	u1705
   997     0291                     l587:
   998     0291  30FF               	movlw	255
   999     0292  057D               	andwf	___xxtofl@arg+3,w
  1000     0293  1D03               	btfss	3,2
  1001     0294  2A96               	goto	u1711
  1002     0295  2A97               	goto	u1710
  1003     0296                     u1711:
  1004     0296  2A76               	goto	l1328
  1005     0297                     u1710:
  1006     0297  2AA3               	goto	l1336
  1007     0298                     l1334:
  1008     0298  3001               	movlw	1
  1009     0299  02F9               	subwf	___xxtofl@exp,f
  1010     029A  3001               	movlw	1
  1011     029B  00F4               	movwf	??___xxtofl
  1012     029C                     u1725:
  1013     029C  1003               	clrc
  1014     029D  0DFA               	rlf	___xxtofl@arg,f
  1015     029E  0DFB               	rlf	___xxtofl@arg+1,f
  1016     029F  0DFC               	rlf	___xxtofl@arg+2,f
  1017     02A0  0DFD               	rlf	___xxtofl@arg+3,f
  1018     02A1  0BF4               	decfsz	??___xxtofl,f
  1019     02A2  2A9C               	goto	u1725
  1020     02A3                     l1336:
  1021     02A3  1BFC               	btfsc	___xxtofl@arg+2,7
  1022     02A4  2AA6               	goto	u1731
  1023     02A5  2AA7               	goto	u1730
  1024     02A6                     u1731:
  1025     02A6  2AAD               	goto	l594
  1026     02A7                     u1730:
  1027     02A7                     l1338:
  1028     02A7  3002               	movlw	2
  1029     02A8  0279               	subwf	___xxtofl@exp,w
  1030     02A9  1803               	skipnc
  1031     02AA  2AAC               	goto	u1741
  1032     02AB  2AAD               	goto	u1740
  1033     02AC                     u1741:
  1034     02AC  2A98               	goto	l1334
  1035     02AD                     u1740:
  1036     02AD                     l594:
  1037     02AD  1879               	btfsc	___xxtofl@exp,0
  1038     02AE  2AB0               	goto	u1751
  1039     02AF  2AB1               	goto	u1750
  1040     02B0                     u1751:
  1041     02B0  2AB9               	goto	l595
  1042     02B1                     u1750:
  1043     02B1                     l1340:
  1044     02B1  30FF               	movlw	255
  1045     02B2  05FA               	andwf	___xxtofl@arg,f
  1046     02B3  30FF               	movlw	255
  1047     02B4  05FB               	andwf	___xxtofl@arg+1,f
  1048     02B5  307F               	movlw	127
  1049     02B6  05FC               	andwf	___xxtofl@arg+2,f
  1050     02B7  30FF               	movlw	255
  1051     02B8  05FD               	andwf	___xxtofl@arg+3,f
  1052     02B9                     l595:
  1053     02B9  1003               	clrc
  1054     02BA  0CF9               	rrf	___xxtofl@exp,f
  1055     02BB                     l1342:
  1056     02BB  0879               	movf	___xxtofl@exp,w
  1057     02BC  00F4               	movwf	??___xxtofl
  1058     02BD  01F5               	clrf	??___xxtofl+1
  1059     02BE  01F6               	clrf	??___xxtofl+2
  1060     02BF  01F7               	clrf	??___xxtofl+3
  1061     02C0  3018               	movlw	24
  1062     02C1                     u1765:
  1063     02C1  1003               	clrc
  1064     02C2  0DF4               	rlf	??___xxtofl,f
  1065     02C3  0DF5               	rlf	??___xxtofl+1,f
  1066     02C4  0DF6               	rlf	??___xxtofl+2,f
  1067     02C5  0DF7               	rlf	??___xxtofl+3,f
  1068     02C6                     u1760:
  1069     02C6  3EFF               	addlw	-1
  1070     02C7  1D03               	skipz
  1071     02C8  2AC1               	goto	u1765
  1072     02C9  0874               	movf	??___xxtofl,w
  1073     02CA  04FA               	iorwf	___xxtofl@arg,f
  1074     02CB  0875               	movf	??___xxtofl+1,w
  1075     02CC  04FB               	iorwf	___xxtofl@arg+1,f
  1076     02CD  0876               	movf	??___xxtofl+2,w
  1077     02CE  04FC               	iorwf	___xxtofl@arg+2,f
  1078     02CF  0877               	movf	??___xxtofl+3,w
  1079     02D0  04FD               	iorwf	___xxtofl@arg+3,f
  1080     02D1                     l1344:
  1081     02D1  0878               	movf	___xxtofl@sign,w
  1082     02D2  1903               	btfsc	3,2
  1083     02D3  2AD5               	goto	u1771
  1084     02D4  2AD6               	goto	u1770
  1085     02D5                     u1771:
  1086     02D5  2ADB               	goto	l1350
  1087     02D6                     u1770:
  1088     02D6                     l1346:
  1089     02D6  1FF3               	btfss	___xxtofl@val+3,7
  1090     02D7  2AD9               	goto	u1781
  1091     02D8  2ADA               	goto	u1780
  1092     02D9                     u1781:
  1093     02D9  2ADB               	goto	l1350
  1094     02DA                     u1780:
  1095     02DA                     l1348:
  1096     02DA  17FD               	bsf	___xxtofl@arg+3,7
  1097     02DB                     l1350:
  1098     02DB  087D               	movf	___xxtofl@arg+3,w
  1099     02DC  00F3               	movwf	?___xxtofl+3
  1100     02DD  087C               	movf	___xxtofl@arg+2,w
  1101     02DE  00F2               	movwf	?___xxtofl+2
  1102     02DF  087B               	movf	___xxtofl@arg+1,w
  1103     02E0  00F1               	movwf	?___xxtofl+1
  1104     02E1  087A               	movf	___xxtofl@arg,w
  1105     02E2  00F0               	movwf	?___xxtofl
  1106     02E3                     l583:
  1107     02E3  0008               	return
  1108     02E4                     __end_of___xxtofl:
  1109                           
  1110                           	psect	text4
  1111     04B7                     __ptext4:	
  1112 ;; *************** function ___flmul *****************
  1113 ;; Defined at:
  1114 ;;		line 8 in file "/Applications/microchip/xc8/v2.45/pic/sources/c99/common/sprcmul.c"
  1115 ;; Parameters:    Size  Location     Type
  1116 ;;  b               4   26[BANK0 ] unsigned char 
  1117 ;;  a               4   30[BANK0 ] unsigned char 
  1118 ;; Auto vars:     Size  Location     Type
  1119 ;;  prod            4   46[BANK0 ] struct .
  1120 ;;  grs             4   40[BANK0 ] unsigned long 
  1121 ;;  temp            2   50[BANK0 ] struct .
  1122 ;;  bexp            1   45[BANK0 ] unsigned char 
  1123 ;;  aexp            1   44[BANK0 ] unsigned char 
  1124 ;;  sign            1   39[BANK0 ] unsigned char 
  1125 ;; Return value:  Size  Location     Type
  1126 ;;                  4   26[BANK0 ] unsigned char 
  1127 ;; Registers used:
  1128 ;;		wreg, status,2, status,0, btemp+1, pclath, cstack
  1129 ;; Tracked objects:
  1130 ;;		On entry : 0/0
  1131 ;;		On exit  : 0/0
  1132 ;;		Unchanged: 0/0
  1133 ;; Data sizes:     COMMON   BANK0   BANK1   BANK3   BANK2
  1134 ;;      Params:         0       8       0       0       0
  1135 ;;      Locals:         0      13       0       0       0
  1136 ;;      Temps:          0       5       0       0       0
  1137 ;;      Totals:         0      26       0       0       0
  1138 ;;Total ram usage:       26 bytes
  1139 ;; Hardware stack levels used: 1
  1140 ;; Hardware stack levels required when called: 1
  1141 ;; This function calls:
  1142 ;;		__Umul8_16
  1143 ;; This function is called by:
  1144 ;;		_readTemperature
  1145 ;; This function uses a non-reentrant model
  1146 ;;
  1147                           
  1148     04B7                     ___flmul:	
  1149                           ;psect for function ___flmul
  1150                           
  1151     04B7                     l1170:	
  1152                           ;incstack = 0
  1153                           ; Regs used in ___flmul: [wreg+status,2+status,0+btemp+1+pclath+cstack]
  1154                           
  1155     04B7  1283               	bcf	3,5	;RP0=0, select bank0
  1156     04B8  1303               	bcf	3,6	;RP1=0, select bank0
  1157     04B9  083D               	movf	___flmul@b+3,w
  1158     04BA  3980               	andlw	128
  1159     04BB  00C7               	movwf	___flmul@sign
  1160     04BC                     l1172:
  1161     04BC  083D               	movf	___flmul@b+3,w
  1162     04BD  00C2               	movwf	??___flmul
  1163     04BE  0742               	addwf	??___flmul,w
  1164     04BF  00CD               	movwf	___flmul@bexp
  1165     04C0                     l1174:
  1166     04C0  1FBC               	btfss	___flmul@b+2,7
  1167     04C1  2CC3               	goto	u1281
  1168     04C2  2CC4               	goto	u1280
  1169     04C3                     u1281:
  1170     04C3  2CC5               	goto	l1178
  1171     04C4                     u1280:
  1172     04C4                     l1176:
  1173     04C4  144D               	bsf	___flmul@bexp,0
  1174     04C5                     l1178:
  1175     04C5  084D               	movf	___flmul@bexp,w
  1176     04C6  1903               	btfsc	3,2
  1177     04C7  2CC9               	goto	u1291
  1178     04C8  2CCA               	goto	u1290
  1179     04C9                     u1291:
  1180     04C9  2CD9               	goto	l1186
  1181     04CA                     u1290:
  1182     04CA                     l1180:
  1183     04CA  0A4D               	incf	___flmul@bexp,w
  1184     04CB  1D03               	btfss	3,2
  1185     04CC  2CCE               	goto	u1301
  1186     04CD  2CCF               	goto	u1300
  1187     04CE                     u1301:
  1188     04CE  2CD7               	goto	l1184
  1189     04CF                     u1300:
  1190     04CF                     l1182:
  1191     04CF  3000               	movlw	0
  1192     04D0  00BD               	movwf	___flmul@b+3
  1193     04D1  3000               	movlw	0
  1194     04D2  00BC               	movwf	___flmul@b+2
  1195     04D3  3000               	movlw	0
  1196     04D4  00BB               	movwf	___flmul@b+1
  1197     04D5  3000               	movlw	0
  1198     04D6  00BA               	movwf	___flmul@b
  1199     04D7                     l1184:
  1200     04D7  17BC               	bsf	___flmul@b+2,7
  1201     04D8  2CE1               	goto	l1188
  1202     04D9                     l1186:
  1203     04D9  3000               	movlw	0
  1204     04DA  00BD               	movwf	___flmul@b+3
  1205     04DB  3000               	movlw	0
  1206     04DC  00BC               	movwf	___flmul@b+2
  1207     04DD  3000               	movlw	0
  1208     04DE  00BB               	movwf	___flmul@b+1
  1209     04DF  3000               	movlw	0
  1210     04E0  00BA               	movwf	___flmul@b
  1211     04E1                     l1188:
  1212     04E1  0841               	movf	___flmul@a+3,w
  1213     04E2  3980               	andlw	128
  1214     04E3  00C2               	movwf	??___flmul
  1215     04E4  0842               	movf	??___flmul,w
  1216     04E5  06C7               	xorwf	___flmul@sign,f
  1217     04E6                     l1190:
  1218     04E6  0841               	movf	___flmul@a+3,w
  1219     04E7  00C2               	movwf	??___flmul
  1220     04E8  0742               	addwf	??___flmul,w
  1221     04E9  00CC               	movwf	___flmul@aexp
  1222     04EA                     l1192:
  1223     04EA  1FC0               	btfss	___flmul@a+2,7
  1224     04EB  2CED               	goto	u1311
  1225     04EC  2CEE               	goto	u1310
  1226     04ED                     u1311:
  1227     04ED  2CEF               	goto	l1196
  1228     04EE                     u1310:
  1229     04EE                     l1194:
  1230     04EE  144C               	bsf	___flmul@aexp,0
  1231     04EF                     l1196:
  1232     04EF  084C               	movf	___flmul@aexp,w
  1233     04F0  1903               	btfsc	3,2
  1234     04F1  2CF3               	goto	u1321
  1235     04F2  2CF4               	goto	u1320
  1236     04F3                     u1321:
  1237     04F3  2D03               	goto	l1204
  1238     04F4                     u1320:
  1239     04F4                     l1198:
  1240     04F4  0A4C               	incf	___flmul@aexp,w
  1241     04F5  1D03               	btfss	3,2
  1242     04F6  2CF8               	goto	u1331
  1243     04F7  2CF9               	goto	u1330
  1244     04F8                     u1331:
  1245     04F8  2D01               	goto	l1202
  1246     04F9                     u1330:
  1247     04F9                     l1200:
  1248     04F9  3000               	movlw	0
  1249     04FA  00C1               	movwf	___flmul@a+3
  1250     04FB  3000               	movlw	0
  1251     04FC  00C0               	movwf	___flmul@a+2
  1252     04FD  3000               	movlw	0
  1253     04FE  00BF               	movwf	___flmul@a+1
  1254     04FF  3000               	movlw	0
  1255     0500  00BE               	movwf	___flmul@a
  1256     0501                     l1202:
  1257     0501  17C0               	bsf	___flmul@a+2,7
  1258     0502  2D0B               	goto	l1206
  1259     0503                     l1204:
  1260     0503  3000               	movlw	0
  1261     0504  00C1               	movwf	___flmul@a+3
  1262     0505  3000               	movlw	0
  1263     0506  00C0               	movwf	___flmul@a+2
  1264     0507  3000               	movlw	0
  1265     0508  00BF               	movwf	___flmul@a+1
  1266     0509  3000               	movlw	0
  1267     050A  00BE               	movwf	___flmul@a
  1268     050B                     l1206:
  1269     050B  084C               	movf	___flmul@aexp,w
  1270     050C  1903               	btfsc	3,2
  1271     050D  2D0F               	goto	u1341
  1272     050E  2D10               	goto	u1340
  1273     050F                     u1341:
  1274     050F  2D15               	goto	l1210
  1275     0510                     u1340:
  1276     0510                     l1208:
  1277     0510  084D               	movf	___flmul@bexp,w
  1278     0511  1D03               	btfss	3,2
  1279     0512  2D14               	goto	u1351
  1280     0513  2D15               	goto	u1350
  1281     0514                     u1351:
  1282     0514  2D1E               	goto	l1214
  1283     0515                     u1350:
  1284     0515                     l1210:
  1285     0515  3000               	movlw	0
  1286     0516  00BD               	movwf	?___flmul+3
  1287     0517  3000               	movlw	0
  1288     0518  00BC               	movwf	?___flmul+2
  1289     0519  3000               	movlw	0
  1290     051A  00BB               	movwf	?___flmul+1
  1291     051B  3000               	movlw	0
  1292     051C  00BA               	movwf	?___flmul
  1293     051D  2FFB               	goto	l537
  1294     051E                     l1214:
  1295     051E  083A               	movf	___flmul@b,w
  1296     051F  00F0               	movwf	__Umul8_16@multiplicand
  1297     0520  0840               	movf	___flmul@a+2,w
  1298     0521  120A  118A  2056  120A  118A  	fcall	__Umul8_16
  1299     0526  0871               	movf	?__Umul8_16+1,w
  1300     0527  1283               	bcf	3,5	;RP0=0, select bank0
  1301     0528  1303               	bcf	3,6	;RP1=0, select bank0
  1302     0529  00D3               	movwf	___flmul@temp+1
  1303     052A  0870               	movf	?__Umul8_16,w
  1304     052B  00D2               	movwf	___flmul@temp
  1305     052C                     l1216:
  1306     052C  0852               	movf	___flmul@temp,w
  1307     052D  00C2               	movwf	??___flmul
  1308     052E  01C3               	clrf	??___flmul+1
  1309     052F  01C4               	clrf	??___flmul+2
  1310     0530  01C5               	clrf	??___flmul+3
  1311     0531  0845               	movf	??___flmul+3,w
  1312     0532  00CB               	movwf	___flmul@grs+3
  1313     0533  0844               	movf	??___flmul+2,w
  1314     0534  00CA               	movwf	___flmul@grs+2
  1315     0535  0843               	movf	??___flmul+1,w
  1316     0536  00C9               	movwf	___flmul@grs+1
  1317     0537  0842               	movf	??___flmul,w
  1318     0538  00C8               	movwf	___flmul@grs
  1319     0539                     l1218:
  1320     0539  0853               	movf	___flmul@temp+1,w
  1321     053A  00C2               	movwf	??___flmul
  1322     053B  01C3               	clrf	??___flmul+1
  1323     053C  01C4               	clrf	??___flmul+2
  1324     053D  01C5               	clrf	??___flmul+3
  1325     053E  0845               	movf	??___flmul+3,w
  1326     053F  00D1               	movwf	___flmul@prod+3
  1327     0540  0844               	movf	??___flmul+2,w
  1328     0541  00D0               	movwf	___flmul@prod+2
  1329     0542  0843               	movf	??___flmul+1,w
  1330     0543  00CF               	movwf	___flmul@prod+1
  1331     0544  0842               	movf	??___flmul,w
  1332     0545  00CE               	movwf	___flmul@prod
  1333     0546  083B               	movf	___flmul@b+1,w
  1334     0547  00F0               	movwf	__Umul8_16@multiplicand
  1335     0548  083F               	movf	___flmul@a+1,w
  1336     0549  120A  118A  2056  120A  118A  	fcall	__Umul8_16
  1337     054E  0871               	movf	?__Umul8_16+1,w
  1338     054F  1283               	bcf	3,5	;RP0=0, select bank0
  1339     0550  1303               	bcf	3,6	;RP1=0, select bank0
  1340     0551  00D3               	movwf	___flmul@temp+1
  1341     0552  0870               	movf	?__Umul8_16,w
  1342     0553  00D2               	movwf	___flmul@temp
  1343     0554                     l1220:
  1344     0554  0852               	movf	___flmul@temp,w
  1345     0555  00C2               	movwf	??___flmul
  1346     0556  01C3               	clrf	??___flmul+1
  1347     0557  01C4               	clrf	??___flmul+2
  1348     0558  01C5               	clrf	??___flmul+3
  1349     0559  0842               	movf	??___flmul,w
  1350     055A  07C8               	addwf	___flmul@grs,f
  1351     055B  0843               	movf	??___flmul+1,w
  1352     055C  1103               	clrz
  1353     055D  1803               	skipnc
  1354     055E  3E01               	addlw	1
  1355     055F  1903               	skipnz
  1356     0560  2D62               	goto	u1361
  1357     0561  07C9               	addwf	___flmul@grs+1,f
  1358     0562                     u1361:
  1359     0562  0844               	movf	??___flmul+2,w
  1360     0563  1103               	clrz
  1361     0564  1803               	skipnc
  1362     0565  3E01               	addlw	1
  1363     0566  1903               	skipnz
  1364     0567  2D69               	goto	u1362
  1365     0568  07CA               	addwf	___flmul@grs+2,f
  1366     0569                     u1362:
  1367     0569  0845               	movf	??___flmul+3,w
  1368     056A  1103               	clrz
  1369     056B  1803               	skipnc
  1370     056C  3E01               	addlw	1
  1371     056D  1903               	skipnz
  1372     056E  2D70               	goto	u1363
  1373     056F  07CB               	addwf	___flmul@grs+3,f
  1374     0570                     u1363:
  1375     0570                     l1222:
  1376     0570  0853               	movf	___flmul@temp+1,w
  1377     0571  00C2               	movwf	??___flmul
  1378     0572  01C3               	clrf	??___flmul+1
  1379     0573  01C4               	clrf	??___flmul+2
  1380     0574  01C5               	clrf	??___flmul+3
  1381     0575  0842               	movf	??___flmul,w
  1382     0576  07CE               	addwf	___flmul@prod,f
  1383     0577  0843               	movf	??___flmul+1,w
  1384     0578  1103               	clrz
  1385     0579  1803               	skipnc
  1386     057A  3E01               	addlw	1
  1387     057B  1903               	skipnz
  1388     057C  2D7E               	goto	u1371
  1389     057D  07CF               	addwf	___flmul@prod+1,f
  1390     057E                     u1371:
  1391     057E  0844               	movf	??___flmul+2,w
  1392     057F  1103               	clrz
  1393     0580  1803               	skipnc
  1394     0581  3E01               	addlw	1
  1395     0582  1903               	skipnz
  1396     0583  2D85               	goto	u1372
  1397     0584  07D0               	addwf	___flmul@prod+2,f
  1398     0585                     u1372:
  1399     0585  0845               	movf	??___flmul+3,w
  1400     0586  1103               	clrz
  1401     0587  1803               	skipnc
  1402     0588  3E01               	addlw	1
  1403     0589  1903               	skipnz
  1404     058A  2D8C               	goto	u1373
  1405     058B  07D1               	addwf	___flmul@prod+3,f
  1406     058C                     u1373:
  1407     058C  083C               	movf	___flmul@b+2,w
  1408     058D  00F0               	movwf	__Umul8_16@multiplicand
  1409     058E  083E               	movf	___flmul@a,w
  1410     058F  120A  118A  2056  120A  118A  	fcall	__Umul8_16
  1411     0594  0871               	movf	?__Umul8_16+1,w
  1412     0595  1283               	bcf	3,5	;RP0=0, select bank0
  1413     0596  1303               	bcf	3,6	;RP1=0, select bank0
  1414     0597  00D3               	movwf	___flmul@temp+1
  1415     0598  0870               	movf	?__Umul8_16,w
  1416     0599  00D2               	movwf	___flmul@temp
  1417     059A                     l1224:
  1418     059A  0852               	movf	___flmul@temp,w
  1419     059B  00C2               	movwf	??___flmul
  1420     059C  01C3               	clrf	??___flmul+1
  1421     059D  01C4               	clrf	??___flmul+2
  1422     059E  01C5               	clrf	??___flmul+3
  1423     059F  0842               	movf	??___flmul,w
  1424     05A0  07C8               	addwf	___flmul@grs,f
  1425     05A1  0843               	movf	??___flmul+1,w
  1426     05A2  1103               	clrz
  1427     05A3  1803               	skipnc
  1428     05A4  3E01               	addlw	1
  1429     05A5  1903               	skipnz
  1430     05A6  2DA8               	goto	u1381
  1431     05A7  07C9               	addwf	___flmul@grs+1,f
  1432     05A8                     u1381:
  1433     05A8  0844               	movf	??___flmul+2,w
  1434     05A9  1103               	clrz
  1435     05AA  1803               	skipnc
  1436     05AB  3E01               	addlw	1
  1437     05AC  1903               	skipnz
  1438     05AD  2DAF               	goto	u1382
  1439     05AE  07CA               	addwf	___flmul@grs+2,f
  1440     05AF                     u1382:
  1441     05AF  0845               	movf	??___flmul+3,w
  1442     05B0  1103               	clrz
  1443     05B1  1803               	skipnc
  1444     05B2  3E01               	addlw	1
  1445     05B3  1903               	skipnz
  1446     05B4  2DB6               	goto	u1383
  1447     05B5  07CB               	addwf	___flmul@grs+3,f
  1448     05B6                     u1383:
  1449     05B6                     l1226:
  1450     05B6  0853               	movf	___flmul@temp+1,w
  1451     05B7  00C2               	movwf	??___flmul
  1452     05B8  01C3               	clrf	??___flmul+1
  1453     05B9  01C4               	clrf	??___flmul+2
  1454     05BA  01C5               	clrf	??___flmul+3
  1455     05BB  0842               	movf	??___flmul,w
  1456     05BC  07CE               	addwf	___flmul@prod,f
  1457     05BD  0843               	movf	??___flmul+1,w
  1458     05BE  1103               	clrz
  1459     05BF  1803               	skipnc
  1460     05C0  3E01               	addlw	1
  1461     05C1  1903               	skipnz
  1462     05C2  2DC4               	goto	u1391
  1463     05C3  07CF               	addwf	___flmul@prod+1,f
  1464     05C4                     u1391:
  1465     05C4  0844               	movf	??___flmul+2,w
  1466     05C5  1103               	clrz
  1467     05C6  1803               	skipnc
  1468     05C7  3E01               	addlw	1
  1469     05C8  1903               	skipnz
  1470     05C9  2DCB               	goto	u1392
  1471     05CA  07D0               	addwf	___flmul@prod+2,f
  1472     05CB                     u1392:
  1473     05CB  0845               	movf	??___flmul+3,w
  1474     05CC  1103               	clrz
  1475     05CD  1803               	skipnc
  1476     05CE  3E01               	addlw	1
  1477     05CF  1903               	skipnz
  1478     05D0  2DD2               	goto	u1393
  1479     05D1  07D1               	addwf	___flmul@prod+3,f
  1480     05D2                     u1393:
  1481     05D2                     l1228:
  1482     05D2  3008               	movlw	8
  1483     05D3  00C2               	movwf	??___flmul
  1484     05D4                     u1405:
  1485     05D4  1003               	clrc
  1486     05D5  0DC8               	rlf	___flmul@grs,f
  1487     05D6  0DC9               	rlf	___flmul@grs+1,f
  1488     05D7  0DCA               	rlf	___flmul@grs+2,f
  1489     05D8  0DCB               	rlf	___flmul@grs+3,f
  1490     05D9  0BC2               	decfsz	??___flmul,f
  1491     05DA  2DD4               	goto	u1405
  1492     05DB                     l1230:
  1493     05DB  083B               	movf	___flmul@b+1,w
  1494     05DC  00F0               	movwf	__Umul8_16@multiplicand
  1495     05DD  083E               	movf	___flmul@a,w
  1496     05DE  120A  118A  2056  120A  118A  	fcall	__Umul8_16
  1497     05E3  0871               	movf	?__Umul8_16+1,w
  1498     05E4  1283               	bcf	3,5	;RP0=0, select bank0
  1499     05E5  1303               	bcf	3,6	;RP1=0, select bank0
  1500     05E6  00D3               	movwf	___flmul@temp+1
  1501     05E7  0870               	movf	?__Umul8_16,w
  1502     05E8  00D2               	movwf	___flmul@temp
  1503     05E9                     l1232:
  1504     05E9  0852               	movf	___flmul@temp,w
  1505     05EA  00C2               	movwf	??___flmul
  1506     05EB  0853               	movf	___flmul@temp+1,w
  1507     05EC  00C3               	movwf	??___flmul+1
  1508     05ED  01C4               	clrf	??___flmul+2
  1509     05EE  01C5               	clrf	??___flmul+3
  1510     05EF  0842               	movf	??___flmul,w
  1511     05F0  07C8               	addwf	___flmul@grs,f
  1512     05F1  0843               	movf	??___flmul+1,w
  1513     05F2  1103               	clrz
  1514     05F3  1803               	skipnc
  1515     05F4  3E01               	addlw	1
  1516     05F5  1903               	skipnz
  1517     05F6  2DF8               	goto	u1411
  1518     05F7  07C9               	addwf	___flmul@grs+1,f
  1519     05F8                     u1411:
  1520     05F8  0844               	movf	??___flmul+2,w
  1521     05F9  1103               	clrz
  1522     05FA  1803               	skipnc
  1523     05FB  3E01               	addlw	1
  1524     05FC  1903               	skipnz
  1525     05FD  2DFF               	goto	u1412
  1526     05FE  07CA               	addwf	___flmul@grs+2,f
  1527     05FF                     u1412:
  1528     05FF  0845               	movf	??___flmul+3,w
  1529     0600  1103               	clrz
  1530     0601  1803               	skipnc
  1531     0602  3E01               	addlw	1
  1532     0603  1903               	skipnz
  1533     0604  2E06               	goto	u1413
  1534     0605  07CB               	addwf	___flmul@grs+3,f
  1535     0606                     u1413:
  1536     0606                     l1234:
  1537     0606  083A               	movf	___flmul@b,w
  1538     0607  00F0               	movwf	__Umul8_16@multiplicand
  1539     0608  083F               	movf	___flmul@a+1,w
  1540     0609  120A  118A  2056  120A  118A  	fcall	__Umul8_16
  1541     060E  0871               	movf	?__Umul8_16+1,w
  1542     060F  1283               	bcf	3,5	;RP0=0, select bank0
  1543     0610  1303               	bcf	3,6	;RP1=0, select bank0
  1544     0611  00D3               	movwf	___flmul@temp+1
  1545     0612  0870               	movf	?__Umul8_16,w
  1546     0613  00D2               	movwf	___flmul@temp
  1547     0614                     l1236:
  1548     0614  0852               	movf	___flmul@temp,w
  1549     0615  00C2               	movwf	??___flmul
  1550     0616  0853               	movf	___flmul@temp+1,w
  1551     0617  00C3               	movwf	??___flmul+1
  1552     0618  01C4               	clrf	??___flmul+2
  1553     0619  01C5               	clrf	??___flmul+3
  1554     061A  0842               	movf	??___flmul,w
  1555     061B  07C8               	addwf	___flmul@grs,f
  1556     061C  0843               	movf	??___flmul+1,w
  1557     061D  1103               	clrz
  1558     061E  1803               	skipnc
  1559     061F  3E01               	addlw	1
  1560     0620  1903               	skipnz
  1561     0621  2E23               	goto	u1421
  1562     0622  07C9               	addwf	___flmul@grs+1,f
  1563     0623                     u1421:
  1564     0623  0844               	movf	??___flmul+2,w
  1565     0624  1103               	clrz
  1566     0625  1803               	skipnc
  1567     0626  3E01               	addlw	1
  1568     0627  1903               	skipnz
  1569     0628  2E2A               	goto	u1422
  1570     0629  07CA               	addwf	___flmul@grs+2,f
  1571     062A                     u1422:
  1572     062A  0845               	movf	??___flmul+3,w
  1573     062B  1103               	clrz
  1574     062C  1803               	skipnc
  1575     062D  3E01               	addlw	1
  1576     062E  1903               	skipnz
  1577     062F  2E31               	goto	u1423
  1578     0630  07CB               	addwf	___flmul@grs+3,f
  1579     0631                     u1423:
  1580     0631                     l1238:
  1581     0631  3008               	movlw	8
  1582     0632  00C2               	movwf	??___flmul
  1583     0633                     u1435:
  1584     0633  1003               	clrc
  1585     0634  0DC8               	rlf	___flmul@grs,f
  1586     0635  0DC9               	rlf	___flmul@grs+1,f
  1587     0636  0DCA               	rlf	___flmul@grs+2,f
  1588     0637  0DCB               	rlf	___flmul@grs+3,f
  1589     0638  0BC2               	decfsz	??___flmul,f
  1590     0639  2E33               	goto	u1435
  1591     063A  083A               	movf	___flmul@b,w
  1592     063B  00F0               	movwf	__Umul8_16@multiplicand
  1593     063C  083E               	movf	___flmul@a,w
  1594     063D  120A  118A  2056  120A  118A  	fcall	__Umul8_16
  1595     0642  0871               	movf	?__Umul8_16+1,w
  1596     0643  1283               	bcf	3,5	;RP0=0, select bank0
  1597     0644  1303               	bcf	3,6	;RP1=0, select bank0
  1598     0645  00D3               	movwf	___flmul@temp+1
  1599     0646  0870               	movf	?__Umul8_16,w
  1600     0647  00D2               	movwf	___flmul@temp
  1601     0648                     l1240:
  1602     0648  0852               	movf	___flmul@temp,w
  1603     0649  00C2               	movwf	??___flmul
  1604     064A  0853               	movf	___flmul@temp+1,w
  1605     064B  00C3               	movwf	??___flmul+1
  1606     064C  01C4               	clrf	??___flmul+2
  1607     064D  01C5               	clrf	??___flmul+3
  1608     064E  0842               	movf	??___flmul,w
  1609     064F  07C8               	addwf	___flmul@grs,f
  1610     0650  0843               	movf	??___flmul+1,w
  1611     0651  1103               	clrz
  1612     0652  1803               	skipnc
  1613     0653  3E01               	addlw	1
  1614     0654  1903               	skipnz
  1615     0655  2E57               	goto	u1441
  1616     0656  07C9               	addwf	___flmul@grs+1,f
  1617     0657                     u1441:
  1618     0657  0844               	movf	??___flmul+2,w
  1619     0658  1103               	clrz
  1620     0659  1803               	skipnc
  1621     065A  3E01               	addlw	1
  1622     065B  1903               	skipnz
  1623     065C  2E5E               	goto	u1442
  1624     065D  07CA               	addwf	___flmul@grs+2,f
  1625     065E                     u1442:
  1626     065E  0845               	movf	??___flmul+3,w
  1627     065F  1103               	clrz
  1628     0660  1803               	skipnc
  1629     0661  3E01               	addlw	1
  1630     0662  1903               	skipnz
  1631     0663  2E65               	goto	u1443
  1632     0664  07CB               	addwf	___flmul@grs+3,f
  1633     0665                     u1443:
  1634     0665                     l1242:
  1635     0665  083B               	movf	___flmul@b+1,w
  1636     0666  00F0               	movwf	__Umul8_16@multiplicand
  1637     0667  0840               	movf	___flmul@a+2,w
  1638     0668  120A  118A  2056  120A  118A  	fcall	__Umul8_16
  1639     066D  0871               	movf	?__Umul8_16+1,w
  1640     066E  1283               	bcf	3,5	;RP0=0, select bank0
  1641     066F  1303               	bcf	3,6	;RP1=0, select bank0
  1642     0670  00D3               	movwf	___flmul@temp+1
  1643     0671  0870               	movf	?__Umul8_16,w
  1644     0672  00D2               	movwf	___flmul@temp
  1645     0673  0852               	movf	___flmul@temp,w
  1646     0674  00C2               	movwf	??___flmul
  1647     0675  0853               	movf	___flmul@temp+1,w
  1648     0676  00C3               	movwf	??___flmul+1
  1649     0677  01C4               	clrf	??___flmul+2
  1650     0678  01C5               	clrf	??___flmul+3
  1651     0679  0842               	movf	??___flmul,w
  1652     067A  07CE               	addwf	___flmul@prod,f
  1653     067B  0843               	movf	??___flmul+1,w
  1654     067C  1103               	clrz
  1655     067D  1803               	skipnc
  1656     067E  3E01               	addlw	1
  1657     067F  1903               	skipnz
  1658     0680  2E82               	goto	u1451
  1659     0681  07CF               	addwf	___flmul@prod+1,f
  1660     0682                     u1451:
  1661     0682  0844               	movf	??___flmul+2,w
  1662     0683  1103               	clrz
  1663     0684  1803               	skipnc
  1664     0685  3E01               	addlw	1
  1665     0686  1903               	skipnz
  1666     0687  2E89               	goto	u1452
  1667     0688  07D0               	addwf	___flmul@prod+2,f
  1668     0689                     u1452:
  1669     0689  0845               	movf	??___flmul+3,w
  1670     068A  1103               	clrz
  1671     068B  1803               	skipnc
  1672     068C  3E01               	addlw	1
  1673     068D  1903               	skipnz
  1674     068E  2E90               	goto	u1453
  1675     068F  07D1               	addwf	___flmul@prod+3,f
  1676     0690                     u1453:
  1677     0690                     l1244:
  1678     0690  083C               	movf	___flmul@b+2,w
  1679     0691  00F0               	movwf	__Umul8_16@multiplicand
  1680     0692  083F               	movf	___flmul@a+1,w
  1681     0693  120A  118A  2056  120A  118A  	fcall	__Umul8_16
  1682     0698  0871               	movf	?__Umul8_16+1,w
  1683     0699  1283               	bcf	3,5	;RP0=0, select bank0
  1684     069A  1303               	bcf	3,6	;RP1=0, select bank0
  1685     069B  00D3               	movwf	___flmul@temp+1
  1686     069C  0870               	movf	?__Umul8_16,w
  1687     069D  00D2               	movwf	___flmul@temp
  1688     069E                     l1246:
  1689     069E  0852               	movf	___flmul@temp,w
  1690     069F  00C2               	movwf	??___flmul
  1691     06A0  0853               	movf	___flmul@temp+1,w
  1692     06A1  00C3               	movwf	??___flmul+1
  1693     06A2  01C4               	clrf	??___flmul+2
  1694     06A3  01C5               	clrf	??___flmul+3
  1695     06A4  0842               	movf	??___flmul,w
  1696     06A5  07CE               	addwf	___flmul@prod,f
  1697     06A6  0843               	movf	??___flmul+1,w
  1698     06A7  1103               	clrz
  1699     06A8  1803               	skipnc
  1700     06A9  3E01               	addlw	1
  1701     06AA  1903               	skipnz
  1702     06AB  2EAD               	goto	u1461
  1703     06AC  07CF               	addwf	___flmul@prod+1,f
  1704     06AD                     u1461:
  1705     06AD  0844               	movf	??___flmul+2,w
  1706     06AE  1103               	clrz
  1707     06AF  1803               	skipnc
  1708     06B0  3E01               	addlw	1
  1709     06B1  1903               	skipnz
  1710     06B2  2EB4               	goto	u1462
  1711     06B3  07D0               	addwf	___flmul@prod+2,f
  1712     06B4                     u1462:
  1713     06B4  0845               	movf	??___flmul+3,w
  1714     06B5  1103               	clrz
  1715     06B6  1803               	skipnc
  1716     06B7  3E01               	addlw	1
  1717     06B8  1903               	skipnz
  1718     06B9  2EBB               	goto	u1463
  1719     06BA  07D1               	addwf	___flmul@prod+3,f
  1720     06BB                     u1463:
  1721     06BB  083C               	movf	___flmul@b+2,w
  1722     06BC  00F0               	movwf	__Umul8_16@multiplicand
  1723     06BD  0840               	movf	___flmul@a+2,w
  1724     06BE  120A  118A  2056  120A  118A  	fcall	__Umul8_16
  1725     06C3  0871               	movf	?__Umul8_16+1,w
  1726     06C4  1283               	bcf	3,5	;RP0=0, select bank0
  1727     06C5  1303               	bcf	3,6	;RP1=0, select bank0
  1728     06C6  00D3               	movwf	___flmul@temp+1
  1729     06C7  0870               	movf	?__Umul8_16,w
  1730     06C8  00D2               	movwf	___flmul@temp
  1731     06C9                     l1248:
  1732     06C9  0852               	movf	___flmul@temp,w
  1733     06CA  00C2               	movwf	??___flmul
  1734     06CB  0853               	movf	___flmul@temp+1,w
  1735     06CC  00C3               	movwf	??___flmul+1
  1736     06CD  01C4               	clrf	??___flmul+2
  1737     06CE  01C5               	clrf	??___flmul+3
  1738     06CF  3008               	movlw	8
  1739     06D0                     u1475:
  1740     06D0  1003               	clrc
  1741     06D1  0DC2               	rlf	??___flmul,f
  1742     06D2  0DC3               	rlf	??___flmul+1,f
  1743     06D3  0DC4               	rlf	??___flmul+2,f
  1744     06D4  0DC5               	rlf	??___flmul+3,f
  1745     06D5                     u1470:
  1746     06D5  3EFF               	addlw	-1
  1747     06D6  1D03               	skipz
  1748     06D7  2ED0               	goto	u1475
  1749     06D8  0842               	movf	??___flmul,w
  1750     06D9  07CE               	addwf	___flmul@prod,f
  1751     06DA  0843               	movf	??___flmul+1,w
  1752     06DB  1103               	clrz
  1753     06DC  1803               	skipnc
  1754     06DD  3E01               	addlw	1
  1755     06DE  1903               	skipnz
  1756     06DF  2EE1               	goto	u1481
  1757     06E0  07CF               	addwf	___flmul@prod+1,f
  1758     06E1                     u1481:
  1759     06E1  0844               	movf	??___flmul+2,w
  1760     06E2  1103               	clrz
  1761     06E3  1803               	skipnc
  1762     06E4  3E01               	addlw	1
  1763     06E5  1903               	skipnz
  1764     06E6  2EE8               	goto	u1482
  1765     06E7  07D0               	addwf	___flmul@prod+2,f
  1766     06E8                     u1482:
  1767     06E8  0845               	movf	??___flmul+3,w
  1768     06E9  1103               	clrz
  1769     06EA  1803               	skipnc
  1770     06EB  3E01               	addlw	1
  1771     06EC  1903               	skipnz
  1772     06ED  2EEF               	goto	u1483
  1773     06EE  07D1               	addwf	___flmul@prod+3,f
  1774     06EF                     u1483:
  1775     06EF                     l1250:
  1776     06EF  0848               	movf	___flmul@grs,w
  1777     06F0  00C2               	movwf	??___flmul
  1778     06F1  0849               	movf	___flmul@grs+1,w
  1779     06F2  00C3               	movwf	??___flmul+1
  1780     06F3  084A               	movf	___flmul@grs+2,w
  1781     06F4  00C4               	movwf	??___flmul+2
  1782     06F5  084B               	movf	___flmul@grs+3,w
  1783     06F6  00C5               	movwf	??___flmul+3
  1784     06F7  3018               	movlw	24
  1785     06F8                     u1495:
  1786     06F8  1003               	clrc
  1787     06F9  0CC5               	rrf	??___flmul+3,f
  1788     06FA  0CC4               	rrf	??___flmul+2,f
  1789     06FB  0CC3               	rrf	??___flmul+1,f
  1790     06FC  0CC2               	rrf	??___flmul,f
  1791     06FD                     u1490:
  1792     06FD  3EFF               	addlw	-1
  1793     06FE  1D03               	skipz
  1794     06FF  2EF8               	goto	u1495
  1795     0700  0842               	movf	??___flmul,w
  1796     0701  07CE               	addwf	___flmul@prod,f
  1797     0702  0843               	movf	??___flmul+1,w
  1798     0703  1103               	clrz
  1799     0704  1803               	skipnc
  1800     0705  3E01               	addlw	1
  1801     0706  1903               	skipnz
  1802     0707  2F09               	goto	u1501
  1803     0708  07CF               	addwf	___flmul@prod+1,f
  1804     0709                     u1501:
  1805     0709  0844               	movf	??___flmul+2,w
  1806     070A  1103               	clrz
  1807     070B  1803               	skipnc
  1808     070C  3E01               	addlw	1
  1809     070D  1903               	skipnz
  1810     070E  2F10               	goto	u1502
  1811     070F  07D0               	addwf	___flmul@prod+2,f
  1812     0710                     u1502:
  1813     0710  0845               	movf	??___flmul+3,w
  1814     0711  1103               	clrz
  1815     0712  1803               	skipnc
  1816     0713  3E01               	addlw	1
  1817     0714  1903               	skipnz
  1818     0715  2F17               	goto	u1503
  1819     0716  07D1               	addwf	___flmul@prod+3,f
  1820     0717                     u1503:
  1821     0717                     l1252:
  1822     0717  3008               	movlw	8
  1823     0718  00C2               	movwf	??___flmul
  1824     0719                     u1515:
  1825     0719  1003               	clrc
  1826     071A  0DC8               	rlf	___flmul@grs,f
  1827     071B  0DC9               	rlf	___flmul@grs+1,f
  1828     071C  0DCA               	rlf	___flmul@grs+2,f
  1829     071D  0DCB               	rlf	___flmul@grs+3,f
  1830     071E  0BC2               	decfsz	??___flmul,f
  1831     071F  2F19               	goto	u1515
  1832     0720                     l1254:
  1833     0720  084D               	movf	___flmul@bexp,w
  1834     0721  074C               	addwf	___flmul@aexp,w
  1835     0722  00C2               	movwf	??___flmul
  1836     0723  01C3               	clrf	??___flmul+1
  1837     0724  0DC3               	rlf	??___flmul+1,f
  1838     0725  0842               	movf	??___flmul,w
  1839     0726  3E82               	addlw	130
  1840     0727  00D2               	movwf	___flmul@temp
  1841     0728  0843               	movf	??___flmul+1,w
  1842     0729  1803               	skipnc
  1843     072A  3E01               	addlw	1
  1844     072B  3EFF               	addlw	255
  1845     072C  00D3               	movwf	___flmul@temp+1
  1846     072D  2F4B               	goto	l1266
  1847     072E                     l1256:
  1848     072E  3001               	movlw	1
  1849     072F  00C2               	movwf	??___flmul
  1850     0730                     u1525:
  1851     0730  1003               	clrc
  1852     0731  0DCE               	rlf	___flmul@prod,f
  1853     0732  0DCF               	rlf	___flmul@prod+1,f
  1854     0733  0DD0               	rlf	___flmul@prod+2,f
  1855     0734  0DD1               	rlf	___flmul@prod+3,f
  1856     0735  0BC2               	decfsz	??___flmul,f
  1857     0736  2F30               	goto	u1525
  1858     0737                     l1258:
  1859     0737  1FCB               	btfss	___flmul@grs+3,7
  1860     0738  2F3A               	goto	u1531
  1861     0739  2F3B               	goto	u1530
  1862     073A                     u1531:
  1863     073A  2F3C               	goto	l1262
  1864     073B                     u1530:
  1865     073B                     l1260:
  1866     073B  144E               	bsf	___flmul@prod,0
  1867     073C                     l1262:
  1868     073C  3001               	movlw	1
  1869     073D  00C2               	movwf	??___flmul
  1870     073E                     u1545:
  1871     073E  1003               	clrc
  1872     073F  0DC8               	rlf	___flmul@grs,f
  1873     0740  0DC9               	rlf	___flmul@grs+1,f
  1874     0741  0DCA               	rlf	___flmul@grs+2,f
  1875     0742  0DCB               	rlf	___flmul@grs+3,f
  1876     0743  0BC2               	decfsz	??___flmul,f
  1877     0744  2F3E               	goto	u1545
  1878     0745                     l1264:
  1879     0745  30FF               	movlw	255
  1880     0746  07D2               	addwf	___flmul@temp,f
  1881     0747  1803               	skipnc
  1882     0748  0AD3               	incf	___flmul@temp+1,f
  1883     0749  30FF               	movlw	255
  1884     074A  07D3               	addwf	___flmul@temp+1,f
  1885     074B                     l1266:
  1886     074B  1FD0               	btfss	___flmul@prod+2,7
  1887     074C  2F4E               	goto	u1551
  1888     074D  2F4F               	goto	u1550
  1889     074E                     u1551:
  1890     074E  2F2E               	goto	l1256
  1891     074F                     u1550:
  1892     074F                     l1268:
  1893     074F  01CC               	clrf	___flmul@aexp
  1894     0750                     l1270:
  1895     0750  1FCB               	btfss	___flmul@grs+3,7
  1896     0751  2F53               	goto	u1561
  1897     0752  2F54               	goto	u1560
  1898     0753                     u1561:
  1899     0753  2F70               	goto	l1278
  1900     0754                     u1560:
  1901     0754                     l1272:
  1902     0754  30FF               	movlw	255
  1903     0755  0548               	andwf	___flmul@grs,w
  1904     0756  00C2               	movwf	??___flmul
  1905     0757  30FF               	movlw	255
  1906     0758  0549               	andwf	___flmul@grs+1,w
  1907     0759  00C3               	movwf	??___flmul+1
  1908     075A  30FF               	movlw	255
  1909     075B  054A               	andwf	___flmul@grs+2,w
  1910     075C  00C4               	movwf	??___flmul+2
  1911     075D  307F               	movlw	127
  1912     075E  054B               	andwf	___flmul@grs+3,w
  1913     075F  00C5               	movwf	??___flmul+3
  1914     0760  0845               	movf	??___flmul+3,w
  1915     0761  0444               	iorwf	??___flmul+2,w
  1916     0762  0443               	iorwf	??___flmul+1,w
  1917     0763  0442               	iorwf	??___flmul,w
  1918     0764  1903               	skipnz
  1919     0765  2F67               	goto	u1571
  1920     0766  2F68               	goto	u1570
  1921     0767                     u1571:
  1922     0767  2F6B               	goto	l543
  1923     0768                     u1570:
  1924     0768                     l1274:
  1925     0768  01CC               	clrf	___flmul@aexp
  1926     0769  0ACC               	incf	___flmul@aexp,f
  1927     076A  2F70               	goto	l1278
  1928     076B                     l543:
  1929     076B  1C4E               	btfss	___flmul@prod,0
  1930     076C  2F6E               	goto	u1581
  1931     076D  2F6F               	goto	u1580
  1932     076E                     u1581:
  1933     076E  2F70               	goto	l1278
  1934     076F                     u1580:
  1935     076F  2F68               	goto	l1274
  1936     0770                     l1278:
  1937     0770  084C               	movf	___flmul@aexp,w
  1938     0771  1903               	btfsc	3,2
  1939     0772  2F74               	goto	u1591
  1940     0773  2F75               	goto	u1590
  1941     0774                     u1591:
  1942     0774  2FA6               	goto	l1288
  1943     0775                     u1590:
  1944     0775                     l1280:
  1945     0775  3001               	movlw	1
  1946     0776  07CE               	addwf	___flmul@prod,f
  1947     0777  3000               	movlw	0
  1948     0778  1803               	skipnc
  1949     0779  3001               	movlw	1
  1950     077A  07CF               	addwf	___flmul@prod+1,f
  1951     077B  3000               	movlw	0
  1952     077C  1803               	skipnc
  1953     077D  3001               	movlw	1
  1954     077E  07D0               	addwf	___flmul@prod+2,f
  1955     077F  3000               	movlw	0
  1956     0780  1803               	skipnc
  1957     0781  3001               	movlw	1
  1958     0782  07D1               	addwf	___flmul@prod+3,f
  1959     0783                     l1282:
  1960     0783  1C51               	btfss	___flmul@prod+3,0
  1961     0784  2F86               	goto	u1601
  1962     0785  2F87               	goto	u1600
  1963     0786                     u1601:
  1964     0786  2FA6               	goto	l1288
  1965     0787                     u1600:
  1966     0787                     l1284:
  1967     0787  084E               	movf	___flmul@prod,w
  1968     0788  00C2               	movwf	??___flmul
  1969     0789  084F               	movf	___flmul@prod+1,w
  1970     078A  00C3               	movwf	??___flmul+1
  1971     078B  0850               	movf	___flmul@prod+2,w
  1972     078C  00C4               	movwf	??___flmul+2
  1973     078D  0851               	movf	___flmul@prod+3,w
  1974     078E  00C5               	movwf	??___flmul+3
  1975     078F  3001               	movlw	1
  1976     0790  00C6               	movwf	??___flmul+4
  1977     0791                     u1615:
  1978     0791  0D45               	rlf	??___flmul+3,w
  1979     0792  0CC5               	rrf	??___flmul+3,f
  1980     0793  0CC4               	rrf	??___flmul+2,f
  1981     0794  0CC3               	rrf	??___flmul+1,f
  1982     0795  0CC2               	rrf	??___flmul,f
  1983     0796                     u1610:
  1984     0796  0BC6               	decfsz	??___flmul+4,f
  1985     0797  2F91               	goto	u1615
  1986     0798  0845               	movf	??___flmul+3,w
  1987     0799  00D1               	movwf	___flmul@prod+3
  1988     079A  0844               	movf	??___flmul+2,w
  1989     079B  00D0               	movwf	___flmul@prod+2
  1990     079C  0843               	movf	??___flmul+1,w
  1991     079D  00CF               	movwf	___flmul@prod+1
  1992     079E  0842               	movf	??___flmul,w
  1993     079F  00CE               	movwf	___flmul@prod
  1994     07A0                     l1286:
  1995     07A0  3001               	movlw	1
  1996     07A1  07D2               	addwf	___flmul@temp,f
  1997     07A2  1803               	skipnc
  1998     07A3  0AD3               	incf	___flmul@temp+1,f
  1999     07A4  3000               	movlw	0
  2000     07A5  07D3               	addwf	___flmul@temp+1,f
  2001     07A6                     l1288:
  2002     07A6  0853               	movf	___flmul@temp+1,w
  2003     07A7  3A80               	xorlw	128
  2004     07A8  00FF               	movwf	btemp+1
  2005     07A9  3080               	movlw	128
  2006     07AA  027F               	subwf	btemp+1,w
  2007     07AB  1D03               	skipz
  2008     07AC  2FAF               	goto	u1625
  2009     07AD  30FF               	movlw	255
  2010     07AE  0252               	subwf	___flmul@temp,w
  2011     07AF                     u1625:
  2012     07AF  1C03               	skipc
  2013     07B0  2FB2               	goto	u1621
  2014     07B1  2FB3               	goto	u1620
  2015     07B2                     u1621:
  2016     07B2  2FBE               	goto	l1292
  2017     07B3                     u1620:
  2018     07B3                     l1290:
  2019     07B3  307F               	movlw	127
  2020     07B4  1283               	bcf	3,5	;RP0=0, select bank0
  2021     07B5  1303               	bcf	3,6	;RP1=0, select bank0
  2022     07B6  00D1               	movwf	___flmul@prod+3
  2023     07B7  3080               	movlw	128
  2024     07B8  00D0               	movwf	___flmul@prod+2
  2025     07B9  3000               	movlw	0
  2026     07BA  00CF               	movwf	___flmul@prod+1
  2027     07BB  3000               	movlw	0
  2028     07BC  00CE               	movwf	___flmul@prod
  2029     07BD  2FEF               	goto	l549
  2030     07BE                     l1292:
  2031     07BE  1283               	bcf	3,5	;RP0=0, select bank0
  2032     07BF  1303               	bcf	3,6	;RP1=0, select bank0
  2033     07C0  0853               	movf	___flmul@temp+1,w
  2034     07C1  3A80               	xorlw	128
  2035     07C2  00FF               	movwf	btemp+1
  2036     07C3  3080               	movlw	128
  2037     07C4  027F               	subwf	btemp+1,w
  2038     07C5  1D03               	skipz
  2039     07C6  2FC9               	goto	u1635
  2040     07C7  3001               	movlw	1
  2041     07C8  0252               	subwf	___flmul@temp,w
  2042     07C9                     u1635:
  2043     07C9  1803               	skipnc
  2044     07CA  2FCC               	goto	u1631
  2045     07CB  2FCD               	goto	u1630
  2046     07CC                     u1631:
  2047     07CC  2FD9               	goto	l1298
  2048     07CD                     u1630:
  2049     07CD                     l1294:
  2050     07CD  3000               	movlw	0
  2051     07CE  1283               	bcf	3,5	;RP0=0, select bank0
  2052     07CF  1303               	bcf	3,6	;RP1=0, select bank0
  2053     07D0  00D1               	movwf	___flmul@prod+3
  2054     07D1  3000               	movlw	0
  2055     07D2  00D0               	movwf	___flmul@prod+2
  2056     07D3  3000               	movlw	0
  2057     07D4  00CF               	movwf	___flmul@prod+1
  2058     07D5  3000               	movlw	0
  2059     07D6  00CE               	movwf	___flmul@prod
  2060     07D7                     l1296:
  2061     07D7  01C7               	clrf	___flmul@sign
  2062     07D8  2FEF               	goto	l549
  2063     07D9                     l1298:
  2064     07D9  1283               	bcf	3,5	;RP0=0, select bank0
  2065     07DA  1303               	bcf	3,6	;RP1=0, select bank0
  2066     07DB  0852               	movf	___flmul@temp,w
  2067     07DC  00CD               	movwf	___flmul@bexp
  2068     07DD  30FF               	movlw	255
  2069     07DE  05CE               	andwf	___flmul@prod,f
  2070     07DF  30FF               	movlw	255
  2071     07E0  05CF               	andwf	___flmul@prod+1,f
  2072     07E1  307F               	movlw	127
  2073     07E2  05D0               	andwf	___flmul@prod+2,f
  2074     07E3  3000               	movlw	0
  2075     07E4  05D1               	andwf	___flmul@prod+3,f
  2076     07E5                     l1300:
  2077     07E5  1C4D               	btfss	___flmul@bexp,0
  2078     07E6  2FE8               	goto	u1641
  2079     07E7  2FE9               	goto	u1640
  2080     07E8                     u1641:
  2081     07E8  2FEA               	goto	l1304
  2082     07E9                     u1640:
  2083     07E9                     l1302:
  2084     07E9  17D0               	bsf	___flmul@prod+2,7
  2085     07EA                     l1304:
  2086     07EA  084D               	movf	___flmul@bexp,w
  2087     07EB  00C2               	movwf	??___flmul
  2088     07EC  1003               	clrc
  2089     07ED  0C42               	rrf	??___flmul,w
  2090     07EE  00D1               	movwf	___flmul@prod+3
  2091     07EF                     l549:
  2092     07EF  0847               	movf	___flmul@sign,w
  2093     07F0  00C2               	movwf	??___flmul
  2094     07F1  0842               	movf	??___flmul,w
  2095     07F2  04D1               	iorwf	___flmul@prod+3,f
  2096     07F3                     l1306:
  2097     07F3  0851               	movf	___flmul@prod+3,w
  2098     07F4  00BD               	movwf	?___flmul+3
  2099     07F5  0850               	movf	___flmul@prod+2,w
  2100     07F6  00BC               	movwf	?___flmul+2
  2101     07F7  084F               	movf	___flmul@prod+1,w
  2102     07F8  00BB               	movwf	?___flmul+1
  2103     07F9  084E               	movf	___flmul@prod,w
  2104     07FA  00BA               	movwf	?___flmul
  2105     07FB                     l537:
  2106     07FB  0008               	return
  2107     07FC                     __end_of___flmul:
  2108                           
  2109                           	psect	text5
  2110     0056                     __ptext5:	
  2111 ;; *************** function __Umul8_16 *****************
  2112 ;; Defined at:
  2113 ;;		line 4 in file "/Applications/microchip/xc8/v2.45/pic/sources/c99/common/Umul8_16.c"
  2114 ;; Parameters:    Size  Location     Type
  2115 ;;  multiplier      1    wreg     unsigned char 
  2116 ;;  multiplicand    1    0[COMMON] unsigned char 
  2117 ;; Auto vars:     Size  Location     Type
  2118 ;;  multiplier      1    8[COMMON] unsigned char 
  2119 ;;  word_mpld       2    6[COMMON] unsigned short 
  2120 ;;  product         2    4[COMMON] unsigned short 
  2121 ;; Return value:  Size  Location     Type
  2122 ;;                  2    0[COMMON] unsigned int 
  2123 ;; Registers used:
  2124 ;;		wreg, status,2, status,0
  2125 ;; Tracked objects:
  2126 ;;		On entry : 0/0
  2127 ;;		On exit  : 0/0
  2128 ;;		Unchanged: 0/0
  2129 ;; Data sizes:     COMMON   BANK0   BANK1   BANK3   BANK2
  2130 ;;      Params:         2       0       0       0       0
  2131 ;;      Locals:         5       0       0       0       0
  2132 ;;      Temps:          2       0       0       0       0
  2133 ;;      Totals:         9       0       0       0       0
  2134 ;;Total ram usage:        9 bytes
  2135 ;; Hardware stack levels used: 1
  2136 ;; This function calls:
  2137 ;;		Nothing
  2138 ;; This function is called by:
  2139 ;;		___flmul
  2140 ;; This function uses a non-reentrant model
  2141 ;;
  2142                           
  2143     0056                     __Umul8_16:	
  2144                           ;psect for function __Umul8_16
  2145                           
  2146                           
  2147                           ;incstack = 0
  2148                           ; Regs used in __Umul8_16: [wreg+status,2+status,0]
  2149                           ;__Umul8_16@multiplier stored from wreg
  2150     0056  00F8               	movwf	__Umul8_16@multiplier
  2151     0057                     l1008:
  2152     0057  01F4               	clrf	__Umul8_16@product
  2153     0058  01F5               	clrf	__Umul8_16@product+1
  2154     0059                     l1010:
  2155     0059  0870               	movf	__Umul8_16@multiplicand,w
  2156     005A  00F2               	movwf	??__Umul8_16
  2157     005B  01F3               	clrf	??__Umul8_16+1
  2158     005C  0872               	movf	??__Umul8_16,w
  2159     005D  00F6               	movwf	__Umul8_16@word_mpld
  2160     005E  0873               	movf	??__Umul8_16+1,w
  2161     005F  00F7               	movwf	__Umul8_16@word_mpld+1
  2162     0060                     l1012:
  2163     0060  1C78               	btfss	__Umul8_16@multiplier,0
  2164     0061  2863               	goto	u951
  2165     0062  2864               	goto	u950
  2166     0063                     u951:
  2167     0063  286A               	goto	l556
  2168     0064                     u950:
  2169     0064                     l1014:
  2170     0064  0876               	movf	__Umul8_16@word_mpld,w
  2171     0065  07F4               	addwf	__Umul8_16@product,f
  2172     0066  1803               	skipnc
  2173     0067  0AF5               	incf	__Umul8_16@product+1,f
  2174     0068  0877               	movf	__Umul8_16@word_mpld+1,w
  2175     0069  07F5               	addwf	__Umul8_16@product+1,f
  2176     006A                     l556:
  2177     006A  3001               	movlw	1
  2178     006B                     u965:
  2179     006B  1003               	clrc
  2180     006C  0DF6               	rlf	__Umul8_16@word_mpld,f
  2181     006D  0DF7               	rlf	__Umul8_16@word_mpld+1,f
  2182     006E  3EFF               	addlw	-1
  2183     006F  1D03               	skipz
  2184     0070  286B               	goto	u965
  2185     0071  1003               	clrc
  2186     0072  0CF8               	rrf	__Umul8_16@multiplier,f
  2187     0073                     l1016:
  2188     0073  0878               	movf	__Umul8_16@multiplier,w
  2189     0074  1D03               	btfss	3,2
  2190     0075  2877               	goto	u971
  2191     0076  2878               	goto	u970
  2192     0077                     u971:
  2193     0077  2860               	goto	l1012
  2194     0078                     u970:
  2195     0078                     l1018:
  2196     0078  0875               	movf	__Umul8_16@product+1,w
  2197     0079  00F1               	movwf	?__Umul8_16+1
  2198     007A  0874               	movf	__Umul8_16@product,w
  2199     007B  00F0               	movwf	?__Umul8_16
  2200     007C                     l558:
  2201     007C  0008               	return
  2202     007D                     __end_of__Umul8_16:
  2203                           
  2204                           	psect	text6
  2205     02E4                     __ptext6:	
  2206 ;; *************** function ___fldiv *****************
  2207 ;; Defined at:
  2208 ;;		line 8 in file "/Applications/microchip/xc8/v2.45/pic/sources/c99/common/sprcdiv.c"
  2209 ;; Parameters:    Size  Location     Type
  2210 ;;  a               4    0[BANK0 ] unsigned int 
  2211 ;;  b               4    4[BANK0 ] unsigned int 
  2212 ;; Auto vars:     Size  Location     Type
  2213 ;;  grs             4   20[BANK0 ] unsigned long 
  2214 ;;  rem             4   13[BANK0 ] unsigned long 
  2215 ;;  new_exp         2   18[BANK0 ] short 
  2216 ;;  aexp            1   25[BANK0 ] unsigned char 
  2217 ;;  bexp            1   24[BANK0 ] unsigned char 
  2218 ;;  sign            1   17[BANK0 ] unsigned char 
  2219 ;; Return value:  Size  Location     Type
  2220 ;;                  4    0[BANK0 ] unsigned char 
  2221 ;; Registers used:
  2222 ;;		wreg, status,2, status,0, btemp+1
  2223 ;; Tracked objects:
  2224 ;;		On entry : 0/0
  2225 ;;		On exit  : 0/0
  2226 ;;		Unchanged: 0/0
  2227 ;; Data sizes:     COMMON   BANK0   BANK1   BANK3   BANK2
  2228 ;;      Params:         0       8       0       0       0
  2229 ;;      Locals:         0      13       0       0       0
  2230 ;;      Temps:          0       5       0       0       0
  2231 ;;      Totals:         0      26       0       0       0
  2232 ;;Total ram usage:       26 bytes
  2233 ;; Hardware stack levels used: 1
  2234 ;; This function calls:
  2235 ;;		Nothing
  2236 ;; This function is called by:
  2237 ;;		_readTemperature
  2238 ;; This function uses a non-reentrant model
  2239 ;;
  2240                           
  2241     02E4                     ___fldiv:	
  2242                           ;psect for function ___fldiv
  2243                           
  2244     02E4                     l1028:	
  2245                           ;incstack = 0
  2246                           ; Regs used in ___fldiv: [wreg+status,2+status,0+btemp+1]
  2247                           
  2248     02E4  1283               	bcf	3,5	;RP0=0, select bank0
  2249     02E5  1303               	bcf	3,6	;RP1=0, select bank0
  2250     02E6  0827               	movf	___fldiv@b+3,w
  2251     02E7  3980               	andlw	128
  2252     02E8  00B1               	movwf	___fldiv@sign
  2253     02E9                     l1030:
  2254     02E9  0827               	movf	___fldiv@b+3,w
  2255     02EA  00A8               	movwf	??___fldiv
  2256     02EB  0728               	addwf	??___fldiv,w
  2257     02EC  00B8               	movwf	___fldiv@bexp
  2258     02ED                     l1032:
  2259     02ED  1FA6               	btfss	___fldiv@b+2,7
  2260     02EE  2AF0               	goto	u991
  2261     02EF  2AF1               	goto	u990
  2262     02F0                     u991:
  2263     02F0  2AF2               	goto	l1036
  2264     02F1                     u990:
  2265     02F1                     l1034:
  2266     02F1  1438               	bsf	___fldiv@bexp,0
  2267     02F2                     l1036:
  2268     02F2  0838               	movf	___fldiv@bexp,w
  2269     02F3  1903               	btfsc	3,2
  2270     02F4  2AF6               	goto	u1001
  2271     02F5  2AF7               	goto	u1000
  2272     02F6                     u1001:
  2273     02F6  2B07               	goto	l1046
  2274     02F7                     u1000:
  2275     02F7                     l1038:
  2276     02F7  0A38               	incf	___fldiv@bexp,w
  2277     02F8  1D03               	btfss	3,2
  2278     02F9  2AFB               	goto	u1011
  2279     02FA  2AFC               	goto	u1010
  2280     02FB                     u1011:
  2281     02FB  2B04               	goto	l1042
  2282     02FC                     u1010:
  2283     02FC                     l1040:
  2284     02FC  3000               	movlw	0
  2285     02FD  00A7               	movwf	___fldiv@b+3
  2286     02FE  3000               	movlw	0
  2287     02FF  00A6               	movwf	___fldiv@b+2
  2288     0300  3000               	movlw	0
  2289     0301  00A5               	movwf	___fldiv@b+1
  2290     0302  3000               	movlw	0
  2291     0303  00A4               	movwf	___fldiv@b
  2292     0304                     l1042:
  2293     0304  17A6               	bsf	___fldiv@b+2,7
  2294     0305                     l1044:
  2295     0305  01A7               	clrf	___fldiv@b+3
  2296     0306  2B0F               	goto	l1048
  2297     0307                     l1046:
  2298     0307  3000               	movlw	0
  2299     0308  00A7               	movwf	___fldiv@b+3
  2300     0309  3000               	movlw	0
  2301     030A  00A6               	movwf	___fldiv@b+2
  2302     030B  3000               	movlw	0
  2303     030C  00A5               	movwf	___fldiv@b+1
  2304     030D  3000               	movlw	0
  2305     030E  00A4               	movwf	___fldiv@b
  2306     030F                     l1048:
  2307     030F  0823               	movf	___fldiv@a+3,w
  2308     0310  3980               	andlw	128
  2309     0311  00A8               	movwf	??___fldiv
  2310     0312  0828               	movf	??___fldiv,w
  2311     0313  06B1               	xorwf	___fldiv@sign,f
  2312     0314                     l1050:
  2313     0314  0823               	movf	___fldiv@a+3,w
  2314     0315  00A8               	movwf	??___fldiv
  2315     0316  0728               	addwf	??___fldiv,w
  2316     0317  00B9               	movwf	___fldiv@aexp
  2317     0318                     l1052:
  2318     0318  1FA2               	btfss	___fldiv@a+2,7
  2319     0319  2B1B               	goto	u1021
  2320     031A  2B1C               	goto	u1020
  2321     031B                     u1021:
  2322     031B  2B1D               	goto	l1056
  2323     031C                     u1020:
  2324     031C                     l1054:
  2325     031C  1439               	bsf	___fldiv@aexp,0
  2326     031D                     l1056:
  2327     031D  0839               	movf	___fldiv@aexp,w
  2328     031E  1903               	btfsc	3,2
  2329     031F  2B21               	goto	u1031
  2330     0320  2B22               	goto	u1030
  2331     0321                     u1031:
  2332     0321  2B32               	goto	l1066
  2333     0322                     u1030:
  2334     0322                     l1058:
  2335     0322  0A39               	incf	___fldiv@aexp,w
  2336     0323  1D03               	btfss	3,2
  2337     0324  2B26               	goto	u1041
  2338     0325  2B27               	goto	u1040
  2339     0326                     u1041:
  2340     0326  2B2F               	goto	l1062
  2341     0327                     u1040:
  2342     0327                     l1060:
  2343     0327  3000               	movlw	0
  2344     0328  00A3               	movwf	___fldiv@a+3
  2345     0329  3000               	movlw	0
  2346     032A  00A2               	movwf	___fldiv@a+2
  2347     032B  3000               	movlw	0
  2348     032C  00A1               	movwf	___fldiv@a+1
  2349     032D  3000               	movlw	0
  2350     032E  00A0               	movwf	___fldiv@a
  2351     032F                     l1062:
  2352     032F  17A2               	bsf	___fldiv@a+2,7
  2353     0330                     l1064:
  2354     0330  01A3               	clrf	___fldiv@a+3
  2355     0331  2B3A               	goto	l497
  2356     0332                     l1066:
  2357     0332  3000               	movlw	0
  2358     0333  00A3               	movwf	___fldiv@a+3
  2359     0334  3000               	movlw	0
  2360     0335  00A2               	movwf	___fldiv@a+2
  2361     0336  3000               	movlw	0
  2362     0337  00A1               	movwf	___fldiv@a+1
  2363     0338  3000               	movlw	0
  2364     0339  00A0               	movwf	___fldiv@a
  2365     033A                     l497:
  2366     033A  0823               	movf	___fldiv@a+3,w
  2367     033B  0422               	iorwf	___fldiv@a+2,w
  2368     033C  0421               	iorwf	___fldiv@a+1,w
  2369     033D  0420               	iorwf	___fldiv@a,w
  2370     033E  1D03               	skipz
  2371     033F  2B41               	goto	u1051
  2372     0340  2B42               	goto	u1050
  2373     0341                     u1051:
  2374     0341  2B5B               	goto	l1076
  2375     0342                     u1050:
  2376     0342                     l1068:
  2377     0342  3000               	movlw	0
  2378     0343  00A7               	movwf	___fldiv@b+3
  2379     0344  3000               	movlw	0
  2380     0345  00A6               	movwf	___fldiv@b+2
  2381     0346  3000               	movlw	0
  2382     0347  00A5               	movwf	___fldiv@b+1
  2383     0348  3000               	movlw	0
  2384     0349  00A4               	movwf	___fldiv@b
  2385     034A  3080               	movlw	128
  2386     034B  04A6               	iorwf	___fldiv@b+2,f
  2387     034C  307F               	movlw	127
  2388     034D  04A7               	iorwf	___fldiv@b+3,f
  2389     034E                     l1070:
  2390     034E  0831               	movf	___fldiv@sign,w
  2391     034F  00A8               	movwf	??___fldiv
  2392     0350  0828               	movf	??___fldiv,w
  2393     0351  04A7               	iorwf	___fldiv@b+3,f
  2394     0352                     l1072:
  2395     0352  0827               	movf	___fldiv@b+3,w
  2396     0353  00A3               	movwf	?___fldiv+3
  2397     0354  0826               	movf	___fldiv@b+2,w
  2398     0355  00A2               	movwf	?___fldiv+2
  2399     0356  0825               	movf	___fldiv@b+1,w
  2400     0357  00A1               	movwf	?___fldiv+1
  2401     0358  0824               	movf	___fldiv@b,w
  2402     0359  00A0               	movwf	?___fldiv
  2403     035A  2CB6               	goto	l499
  2404     035B                     l1076:
  2405     035B  0838               	movf	___fldiv@bexp,w
  2406     035C  1D03               	btfss	3,2
  2407     035D  2B5F               	goto	u1061
  2408     035E  2B60               	goto	u1060
  2409     035F                     u1061:
  2410     035F  2B69               	goto	l1082
  2411     0360                     u1060:
  2412     0360                     l1078:
  2413     0360  3000               	movlw	0
  2414     0361  00A3               	movwf	?___fldiv+3
  2415     0362  3000               	movlw	0
  2416     0363  00A2               	movwf	?___fldiv+2
  2417     0364  3000               	movlw	0
  2418     0365  00A1               	movwf	?___fldiv+1
  2419     0366  3000               	movlw	0
  2420     0367  00A0               	movwf	?___fldiv
  2421     0368  2CB6               	goto	l499
  2422     0369                     l1082:
  2423     0369  0838               	movf	___fldiv@bexp,w
  2424     036A  00A8               	movwf	??___fldiv
  2425     036B  01A9               	clrf	??___fldiv+1
  2426     036C  0829               	movf	??___fldiv+1,w
  2427     036D  00AB               	movwf	??___fldiv+3
  2428     036E  0839               	movf	___fldiv@aexp,w
  2429     036F  0228               	subwf	??___fldiv,w
  2430     0370  00AA               	movwf	??___fldiv+2
  2431     0371  1C03               	skipc
  2432     0372  03AB               	decf	??___fldiv+3,f
  2433     0373  082A               	movf	??___fldiv+2,w
  2434     0374  3E7F               	addlw	127
  2435     0375  00B2               	movwf	___fldiv@new_exp
  2436     0376  082B               	movf	??___fldiv+3,w
  2437     0377  1803               	skipnc
  2438     0378  3E01               	addlw	1
  2439     0379  3E00               	addlw	0
  2440     037A  00B3               	movwf	___fldiv@new_exp+1
  2441     037B                     l1084:
  2442     037B  0827               	movf	___fldiv@b+3,w
  2443     037C  00B0               	movwf	___fldiv@rem+3
  2444     037D  0826               	movf	___fldiv@b+2,w
  2445     037E  00AF               	movwf	___fldiv@rem+2
  2446     037F  0825               	movf	___fldiv@b+1,w
  2447     0380  00AE               	movwf	___fldiv@rem+1
  2448     0381  0824               	movf	___fldiv@b,w
  2449     0382  00AD               	movwf	___fldiv@rem
  2450     0383                     l1086:
  2451     0383  3000               	movlw	0
  2452     0384  00A7               	movwf	___fldiv@b+3
  2453     0385  3000               	movlw	0
  2454     0386  00A6               	movwf	___fldiv@b+2
  2455     0387  3000               	movlw	0
  2456     0388  00A5               	movwf	___fldiv@b+1
  2457     0389  3000               	movlw	0
  2458     038A  00A4               	movwf	___fldiv@b
  2459     038B                     l1088:
  2460     038B  3000               	movlw	0
  2461     038C  00B7               	movwf	___fldiv@grs+3
  2462     038D  3000               	movlw	0
  2463     038E  00B6               	movwf	___fldiv@grs+2
  2464     038F  3000               	movlw	0
  2465     0390  00B5               	movwf	___fldiv@grs+1
  2466     0391  3000               	movlw	0
  2467     0392  00B4               	movwf	___fldiv@grs
  2468     0393                     l1090:
  2469     0393  01B9               	clrf	___fldiv@aexp
  2470     0394  2BDF               	goto	l1110
  2471     0395                     l1092:
  2472     0395  0839               	movf	___fldiv@aexp,w
  2473     0396  1903               	btfsc	3,2
  2474     0397  2B99               	goto	u1071
  2475     0398  2B9A               	goto	u1070
  2476     0399                     u1071:
  2477     0399  2BBA               	goto	l1102
  2478     039A                     u1070:
  2479     039A                     l1094:
  2480     039A  3001               	movlw	1
  2481     039B  00A8               	movwf	??___fldiv
  2482     039C                     u1085:
  2483     039C  1003               	clrc
  2484     039D  0DAD               	rlf	___fldiv@rem,f
  2485     039E  0DAE               	rlf	___fldiv@rem+1,f
  2486     039F  0DAF               	rlf	___fldiv@rem+2,f
  2487     03A0  0DB0               	rlf	___fldiv@rem+3,f
  2488     03A1  0BA8               	decfsz	??___fldiv,f
  2489     03A2  2B9C               	goto	u1085
  2490     03A3  3001               	movlw	1
  2491     03A4  00A8               	movwf	??___fldiv
  2492     03A5                     u1095:
  2493     03A5  1003               	clrc
  2494     03A6  0DA4               	rlf	___fldiv@b,f
  2495     03A7  0DA5               	rlf	___fldiv@b+1,f
  2496     03A8  0DA6               	rlf	___fldiv@b+2,f
  2497     03A9  0DA7               	rlf	___fldiv@b+3,f
  2498     03AA  0BA8               	decfsz	??___fldiv,f
  2499     03AB  2BA5               	goto	u1095
  2500     03AC                     l1096:
  2501     03AC  1FB7               	btfss	___fldiv@grs+3,7
  2502     03AD  2BAF               	goto	u1101
  2503     03AE  2BB0               	goto	u1100
  2504     03AF                     u1101:
  2505     03AF  2BB1               	goto	l1100
  2506     03B0                     u1100:
  2507     03B0                     l1098:
  2508     03B0  1424               	bsf	___fldiv@b,0
  2509     03B1                     l1100:
  2510     03B1  3001               	movlw	1
  2511     03B2  00A8               	movwf	??___fldiv
  2512     03B3                     u1115:
  2513     03B3  1003               	clrc
  2514     03B4  0DB4               	rlf	___fldiv@grs,f
  2515     03B5  0DB5               	rlf	___fldiv@grs+1,f
  2516     03B6  0DB6               	rlf	___fldiv@grs+2,f
  2517     03B7  0DB7               	rlf	___fldiv@grs+3,f
  2518     03B8  0BA8               	decfsz	??___fldiv,f
  2519     03B9  2BB3               	goto	u1115
  2520     03BA                     l1102:
  2521     03BA  0823               	movf	___fldiv@a+3,w
  2522     03BB  0230               	subwf	___fldiv@rem+3,w
  2523     03BC  1D03               	skipz
  2524     03BD  2BC8               	goto	u1125
  2525     03BE  0822               	movf	___fldiv@a+2,w
  2526     03BF  022F               	subwf	___fldiv@rem+2,w
  2527     03C0  1D03               	skipz
  2528     03C1  2BC8               	goto	u1125
  2529     03C2  0821               	movf	___fldiv@a+1,w
  2530     03C3  022E               	subwf	___fldiv@rem+1,w
  2531     03C4  1D03               	skipz
  2532     03C5  2BC8               	goto	u1125
  2533     03C6  0820               	movf	___fldiv@a,w
  2534     03C7  022D               	subwf	___fldiv@rem,w
  2535     03C8                     u1125:
  2536     03C8  1C03               	skipc
  2537     03C9  2BCB               	goto	u1121
  2538     03CA  2BCC               	goto	u1120
  2539     03CB                     u1121:
  2540     03CB  2BDB               	goto	l1108
  2541     03CC                     u1120:
  2542     03CC                     l1104:
  2543     03CC  1737               	bsf	___fldiv@grs+3,6
  2544     03CD                     l1106:
  2545     03CD  0820               	movf	___fldiv@a,w
  2546     03CE  02AD               	subwf	___fldiv@rem,f
  2547     03CF  0821               	movf	___fldiv@a+1,w
  2548     03D0  1C03               	skipc
  2549     03D1  0F21               	incfsz	___fldiv@a+1,w
  2550     03D2  02AE               	subwf	___fldiv@rem+1,f
  2551     03D3  0822               	movf	___fldiv@a+2,w
  2552     03D4  1C03               	skipc
  2553     03D5  0F22               	incfsz	___fldiv@a+2,w
  2554     03D6  02AF               	subwf	___fldiv@rem+2,f
  2555     03D7  0823               	movf	___fldiv@a+3,w
  2556     03D8  1C03               	skipc
  2557     03D9  0F23               	incfsz	___fldiv@a+3,w
  2558     03DA  02B0               	subwf	___fldiv@rem+3,f
  2559     03DB                     l1108:
  2560     03DB  3001               	movlw	1
  2561     03DC  00A8               	movwf	??___fldiv
  2562     03DD  0828               	movf	??___fldiv,w
  2563     03DE  07B9               	addwf	___fldiv@aexp,f
  2564     03DF                     l1110:
  2565     03DF  301A               	movlw	26
  2566     03E0  0239               	subwf	___fldiv@aexp,w
  2567     03E1  1C03               	skipc
  2568     03E2  2BE4               	goto	u1131
  2569     03E3  2BE5               	goto	u1130
  2570     03E4                     u1131:
  2571     03E4  2B95               	goto	l1092
  2572     03E5                     u1130:
  2573     03E5                     l1112:
  2574     03E5  0830               	movf	___fldiv@rem+3,w
  2575     03E6  042F               	iorwf	___fldiv@rem+2,w
  2576     03E7  042E               	iorwf	___fldiv@rem+1,w
  2577     03E8  042D               	iorwf	___fldiv@rem,w
  2578     03E9  1903               	skipnz
  2579     03EA  2BEC               	goto	u1141
  2580     03EB  2BED               	goto	u1140
  2581     03EC                     u1141:
  2582     03EC  2C0C               	goto	l1126
  2583     03ED                     u1140:
  2584     03ED                     l1114:
  2585     03ED  1434               	bsf	___fldiv@grs,0
  2586     03EE  2C0C               	goto	l1126
  2587     03EF                     l1116:
  2588     03EF  3001               	movlw	1
  2589     03F0  00A8               	movwf	??___fldiv
  2590     03F1                     u1155:
  2591     03F1  1003               	clrc
  2592     03F2  0DA4               	rlf	___fldiv@b,f
  2593     03F3  0DA5               	rlf	___fldiv@b+1,f
  2594     03F4  0DA6               	rlf	___fldiv@b+2,f
  2595     03F5  0DA7               	rlf	___fldiv@b+3,f
  2596     03F6  0BA8               	decfsz	??___fldiv,f
  2597     03F7  2BF1               	goto	u1155
  2598     03F8                     l1118:
  2599     03F8  1FB7               	btfss	___fldiv@grs+3,7
  2600     03F9  2BFB               	goto	u1161
  2601     03FA  2BFC               	goto	u1160
  2602     03FB                     u1161:
  2603     03FB  2BFD               	goto	l1122
  2604     03FC                     u1160:
  2605     03FC                     l1120:
  2606     03FC  1424               	bsf	___fldiv@b,0
  2607     03FD                     l1122:
  2608     03FD  3001               	movlw	1
  2609     03FE  00A8               	movwf	??___fldiv
  2610     03FF                     u1175:
  2611     03FF  1003               	clrc
  2612     0400  0DB4               	rlf	___fldiv@grs,f
  2613     0401  0DB5               	rlf	___fldiv@grs+1,f
  2614     0402  0DB6               	rlf	___fldiv@grs+2,f
  2615     0403  0DB7               	rlf	___fldiv@grs+3,f
  2616     0404  0BA8               	decfsz	??___fldiv,f
  2617     0405  2BFF               	goto	u1175
  2618     0406                     l1124:
  2619     0406  30FF               	movlw	255
  2620     0407  07B2               	addwf	___fldiv@new_exp,f
  2621     0408  1803               	skipnc
  2622     0409  0AB3               	incf	___fldiv@new_exp+1,f
  2623     040A  30FF               	movlw	255
  2624     040B  07B3               	addwf	___fldiv@new_exp+1,f
  2625     040C                     l1126:
  2626     040C  1FA6               	btfss	___fldiv@b+2,7
  2627     040D  2C0F               	goto	u1181
  2628     040E  2C10               	goto	u1180
  2629     040F                     u1181:
  2630     040F  2BEF               	goto	l1116
  2631     0410                     u1180:
  2632     0410                     l1128:
  2633     0410  01B9               	clrf	___fldiv@aexp
  2634     0411                     l1130:
  2635     0411  1FB7               	btfss	___fldiv@grs+3,7
  2636     0412  2C14               	goto	u1191
  2637     0413  2C15               	goto	u1190
  2638     0414                     u1191:
  2639     0414  2C31               	goto	l1138
  2640     0415                     u1190:
  2641     0415                     l1132:
  2642     0415  30FF               	movlw	255
  2643     0416  0534               	andwf	___fldiv@grs,w
  2644     0417  00A8               	movwf	??___fldiv
  2645     0418  30FF               	movlw	255
  2646     0419  0535               	andwf	___fldiv@grs+1,w
  2647     041A  00A9               	movwf	??___fldiv+1
  2648     041B  30FF               	movlw	255
  2649     041C  0536               	andwf	___fldiv@grs+2,w
  2650     041D  00AA               	movwf	??___fldiv+2
  2651     041E  307F               	movlw	127
  2652     041F  0537               	andwf	___fldiv@grs+3,w
  2653     0420  00AB               	movwf	??___fldiv+3
  2654     0421  082B               	movf	??___fldiv+3,w
  2655     0422  042A               	iorwf	??___fldiv+2,w
  2656     0423  0429               	iorwf	??___fldiv+1,w
  2657     0424  0428               	iorwf	??___fldiv,w
  2658     0425  1903               	skipnz
  2659     0426  2C28               	goto	u1201
  2660     0427  2C29               	goto	u1200
  2661     0428                     u1201:
  2662     0428  2C2C               	goto	l513
  2663     0429                     u1200:
  2664     0429                     l1134:
  2665     0429  01B9               	clrf	___fldiv@aexp
  2666     042A  0AB9               	incf	___fldiv@aexp,f
  2667     042B  2C31               	goto	l1138
  2668     042C                     l513:
  2669     042C  1C24               	btfss	___fldiv@b,0
  2670     042D  2C2F               	goto	u1211
  2671     042E  2C30               	goto	u1210
  2672     042F                     u1211:
  2673     042F  2C31               	goto	l1138
  2674     0430                     u1210:
  2675     0430  2C29               	goto	l1134
  2676     0431                     l1138:
  2677     0431  0839               	movf	___fldiv@aexp,w
  2678     0432  1903               	btfsc	3,2
  2679     0433  2C35               	goto	u1221
  2680     0434  2C36               	goto	u1220
  2681     0435                     u1221:
  2682     0435  2C67               	goto	l1148
  2683     0436                     u1220:
  2684     0436                     l1140:
  2685     0436  3001               	movlw	1
  2686     0437  07A4               	addwf	___fldiv@b,f
  2687     0438  3000               	movlw	0
  2688     0439  1803               	skipnc
  2689     043A  3001               	movlw	1
  2690     043B  07A5               	addwf	___fldiv@b+1,f
  2691     043C  3000               	movlw	0
  2692     043D  1803               	skipnc
  2693     043E  3001               	movlw	1
  2694     043F  07A6               	addwf	___fldiv@b+2,f
  2695     0440  3000               	movlw	0
  2696     0441  1803               	skipnc
  2697     0442  3001               	movlw	1
  2698     0443  07A7               	addwf	___fldiv@b+3,f
  2699     0444                     l1142:
  2700     0444  1C27               	btfss	___fldiv@b+3,0
  2701     0445  2C47               	goto	u1231
  2702     0446  2C48               	goto	u1230
  2703     0447                     u1231:
  2704     0447  2C67               	goto	l1148
  2705     0448                     u1230:
  2706     0448                     l1144:
  2707     0448  0824               	movf	___fldiv@b,w
  2708     0449  00A8               	movwf	??___fldiv
  2709     044A  0825               	movf	___fldiv@b+1,w
  2710     044B  00A9               	movwf	??___fldiv+1
  2711     044C  0826               	movf	___fldiv@b+2,w
  2712     044D  00AA               	movwf	??___fldiv+2
  2713     044E  0827               	movf	___fldiv@b+3,w
  2714     044F  00AB               	movwf	??___fldiv+3
  2715     0450  3001               	movlw	1
  2716     0451  00AC               	movwf	??___fldiv+4
  2717     0452                     u1245:
  2718     0452  0D2B               	rlf	??___fldiv+3,w
  2719     0453  0CAB               	rrf	??___fldiv+3,f
  2720     0454  0CAA               	rrf	??___fldiv+2,f
  2721     0455  0CA9               	rrf	??___fldiv+1,f
  2722     0456  0CA8               	rrf	??___fldiv,f
  2723     0457                     u1240:
  2724     0457  0BAC               	decfsz	??___fldiv+4,f
  2725     0458  2C52               	goto	u1245
  2726     0459  082B               	movf	??___fldiv+3,w
  2727     045A  00A7               	movwf	___fldiv@b+3
  2728     045B  082A               	movf	??___fldiv+2,w
  2729     045C  00A6               	movwf	___fldiv@b+2
  2730     045D  0829               	movf	??___fldiv+1,w
  2731     045E  00A5               	movwf	___fldiv@b+1
  2732     045F  0828               	movf	??___fldiv,w
  2733     0460  00A4               	movwf	___fldiv@b
  2734     0461                     l1146:
  2735     0461  3001               	movlw	1
  2736     0462  07B2               	addwf	___fldiv@new_exp,f
  2737     0463  1803               	skipnc
  2738     0464  0AB3               	incf	___fldiv@new_exp+1,f
  2739     0465  3000               	movlw	0
  2740     0466  07B3               	addwf	___fldiv@new_exp+1,f
  2741     0467                     l1148:
  2742     0467  0833               	movf	___fldiv@new_exp+1,w
  2743     0468  3A80               	xorlw	128
  2744     0469  00FF               	movwf	btemp+1
  2745     046A  3080               	movlw	128
  2746     046B  027F               	subwf	btemp+1,w
  2747     046C  1D03               	skipz
  2748     046D  2C70               	goto	u1255
  2749     046E  30FF               	movlw	255
  2750     046F  0232               	subwf	___fldiv@new_exp,w
  2751     0470                     u1255:
  2752     0470  1C03               	skipc
  2753     0471  2C73               	goto	u1251
  2754     0472  2C74               	goto	u1250
  2755     0473                     u1251:
  2756     0473  2C82               	goto	l1152
  2757     0474                     u1250:
  2758     0474                     l1150:
  2759     0474  30FF               	movlw	255
  2760     0475  1283               	bcf	3,5	;RP0=0, select bank0
  2761     0476  1303               	bcf	3,6	;RP1=0, select bank0
  2762     0477  00B2               	movwf	___fldiv@new_exp
  2763     0478  3000               	movlw	0
  2764     0479  00B3               	movwf	___fldiv@new_exp+1
  2765     047A  3000               	movlw	0
  2766     047B  00A7               	movwf	___fldiv@b+3
  2767     047C  3000               	movlw	0
  2768     047D  00A6               	movwf	___fldiv@b+2
  2769     047E  3000               	movlw	0
  2770     047F  00A5               	movwf	___fldiv@b+1
  2771     0480  3000               	movlw	0
  2772     0481  00A4               	movwf	___fldiv@b
  2773     0482                     l1152:
  2774     0482  1283               	bcf	3,5	;RP0=0, select bank0
  2775     0483  1303               	bcf	3,6	;RP1=0, select bank0
  2776     0484  0833               	movf	___fldiv@new_exp+1,w
  2777     0485  3A80               	xorlw	128
  2778     0486  00FF               	movwf	btemp+1
  2779     0487  3080               	movlw	128
  2780     0488  027F               	subwf	btemp+1,w
  2781     0489  1D03               	skipz
  2782     048A  2C8D               	goto	u1265
  2783     048B  3001               	movlw	1
  2784     048C  0232               	subwf	___fldiv@new_exp,w
  2785     048D                     u1265:
  2786     048D  1803               	skipnc
  2787     048E  2C90               	goto	u1261
  2788     048F  2C91               	goto	u1260
  2789     0490                     u1261:
  2790     0490  2C9E               	goto	l519
  2791     0491                     u1260:
  2792     0491                     l1154:
  2793     0491  1283               	bcf	3,5	;RP0=0, select bank0
  2794     0492  1303               	bcf	3,6	;RP1=0, select bank0
  2795     0493  01B2               	clrf	___fldiv@new_exp
  2796     0494  01B3               	clrf	___fldiv@new_exp+1
  2797     0495                     l1156:
  2798     0495  3000               	movlw	0
  2799     0496  00A7               	movwf	___fldiv@b+3
  2800     0497  3000               	movlw	0
  2801     0498  00A6               	movwf	___fldiv@b+2
  2802     0499  3000               	movlw	0
  2803     049A  00A5               	movwf	___fldiv@b+1
  2804     049B  3000               	movlw	0
  2805     049C  00A4               	movwf	___fldiv@b
  2806     049D                     l1158:
  2807     049D  01B1               	clrf	___fldiv@sign
  2808     049E                     l519:
  2809     049E  1283               	bcf	3,5	;RP0=0, select bank0
  2810     049F  1303               	bcf	3,6	;RP1=0, select bank0
  2811     04A0  0832               	movf	___fldiv@new_exp,w
  2812     04A1  00B8               	movwf	___fldiv@bexp
  2813     04A2                     l1160:
  2814     04A2  1C38               	btfss	___fldiv@bexp,0
  2815     04A3  2CA5               	goto	u1271
  2816     04A4  2CA6               	goto	u1270
  2817     04A5                     u1271:
  2818     04A5  2CA8               	goto	l1164
  2819     04A6                     u1270:
  2820     04A6                     l1162:
  2821     04A6  17A6               	bsf	___fldiv@b+2,7
  2822     04A7  2CAC               	goto	l521
  2823     04A8                     l1164:
  2824     04A8  307F               	movlw	127
  2825     04A9  00A8               	movwf	??___fldiv
  2826     04AA  0828               	movf	??___fldiv,w
  2827     04AB  05A6               	andwf	___fldiv@b+2,f
  2828     04AC                     l521:
  2829     04AC  0838               	movf	___fldiv@bexp,w
  2830     04AD  00A8               	movwf	??___fldiv
  2831     04AE  1003               	clrc
  2832     04AF  0C28               	rrf	??___fldiv,w
  2833     04B0  00A7               	movwf	___fldiv@b+3
  2834     04B1  0831               	movf	___fldiv@sign,w
  2835     04B2  00A8               	movwf	??___fldiv
  2836     04B3  0828               	movf	??___fldiv,w
  2837     04B4  04A7               	iorwf	___fldiv@b+3,f
  2838     04B5  2B52               	goto	l1072
  2839     04B6                     l499:
  2840     04B6  0008               	return
  2841     04B7                     __end_of___fldiv:
  2842                           
  2843                           	psect	text7
  2844     0041                     __ptext7:	
  2845 ;; *************** function _initPWM *****************
  2846 ;; Defined at:
  2847 ;;		line 15 in file "pic16f887_4_wires_cooler_control.c"
  2848 ;; Parameters:    Size  Location     Type
  2849 ;;		None
  2850 ;; Auto vars:     Size  Location     Type
  2851 ;;		None
  2852 ;; Return value:  Size  Location     Type
  2853 ;;                  1    wreg      void 
  2854 ;; Registers used:
  2855 ;;		wreg, status,2
  2856 ;; Tracked objects:
  2857 ;;		On entry : 0/0
  2858 ;;		On exit  : 0/0
  2859 ;;		Unchanged: 0/0
  2860 ;; Data sizes:     COMMON   BANK0   BANK1   BANK3   BANK2
  2861 ;;      Params:         0       0       0       0       0
  2862 ;;      Locals:         0       0       0       0       0
  2863 ;;      Temps:          0       0       0       0       0
  2864 ;;      Totals:         0       0       0       0       0
  2865 ;;Total ram usage:        0 bytes
  2866 ;; Hardware stack levels used: 1
  2867 ;; This function calls:
  2868 ;;		Nothing
  2869 ;; This function is called by:
  2870 ;;		_main
  2871 ;; This function uses a non-reentrant model
  2872 ;;
  2873                           
  2874     0041                     _initPWM:	
  2875                           ;psect for function _initPWM
  2876                           
  2877     0041                     l1354:	
  2878                           ;incstack = 0
  2879                           ; Regs used in _initPWM: [wreg+status,2]
  2880                           
  2881                           
  2882                           ;pic16f887_4_wires_cooler_control.c: 16: }
  2883     0041  3060               	movlw	96
  2884     0042  1683               	bsf	3,5	;RP0=1, select bank1
  2885     0043  1303               	bcf	3,6	;RP1=0, select bank1
  2886     0044  008F               	movwf	15	;volatile
  2887     0045                     l1356:
  2888                           
  2889                           ;pic16f887_4_wires_cooler_control.c: 17: 
  2890     0045  0187               	clrf	7	;volatile
  2891     0046                     l1358:
  2892                           
  2893                           ;pic16f887_4_wires_cooler_control.c: 18: unsigned int readADC() {
  2894     0046  3007               	movlw	7
  2895     0047  1283               	bcf	3,5	;RP0=0, select bank0
  2896     0048  1303               	bcf	3,6	;RP1=0, select bank0
  2897     0049  0092               	movwf	18	;volatile
  2898     004A                     l1360:
  2899                           
  2900                           ;pic16f887_4_wires_cooler_control.c: 19:     ADCON0bits.GO = 1;
  2901     004A  30FF               	movlw	255
  2902     004B  1683               	bsf	3,5	;RP0=1, select bank1
  2903     004C  1303               	bcf	3,6	;RP1=0, select bank1
  2904     004D  0092               	movwf	18	;volatile
  2905     004E                     l1362:
  2906                           
  2907                           ;pic16f887_4_wires_cooler_control.c: 20:     while (ADCON0bits.GO_nDONE);
  2908     004E  300C               	movlw	12
  2909     004F  1283               	bcf	3,5	;RP0=0, select bank0
  2910     0050  1303               	bcf	3,6	;RP1=0, select bank0
  2911     0051  0097               	movwf	23	;volatile
  2912                           
  2913                           ;pic16f887_4_wires_cooler_control.c: 21:     return (unsigned int) ((ADRESH << 8) + ADRE
      +                          SL);
  2914     0052  0195               	clrf	21	;volatile
  2915     0053                     l1364:
  2916                           
  2917                           ;pic16f887_4_wires_cooler_control.c: 22: }
  2918     0053  3004               	movlw	4
  2919     0054  0092               	movwf	18	;volatile
  2920     0055                     l29:
  2921     0055  0008               	return
  2922     0056                     __end_of_initPWM:
  2923                           
  2924                           	psect	text8
  2925     0026                     __ptext8:	
  2926 ;; *************** function _initADC *****************
  2927 ;; Defined at:
  2928 ;;		line 25 in file "pic16f887_4_wires_cooler_control.c"
  2929 ;; Parameters:    Size  Location     Type
  2930 ;;		None
  2931 ;; Auto vars:     Size  Location     Type
  2932 ;;		None
  2933 ;; Return value:  Size  Location     Type
  2934 ;;                  1    wreg      void 
  2935 ;; Registers used:
  2936 ;;		wreg
  2937 ;; Tracked objects:
  2938 ;;		On entry : 0/0
  2939 ;;		On exit  : 0/0
  2940 ;;		Unchanged: 0/0
  2941 ;; Data sizes:     COMMON   BANK0   BANK1   BANK3   BANK2
  2942 ;;      Params:         0       0       0       0       0
  2943 ;;      Locals:         0       0       0       0       0
  2944 ;;      Temps:          0       0       0       0       0
  2945 ;;      Totals:         0       0       0       0       0
  2946 ;;Total ram usage:        0 bytes
  2947 ;; Hardware stack levels used: 1
  2948 ;; This function calls:
  2949 ;;		Nothing
  2950 ;; This function is called by:
  2951 ;;		_main
  2952 ;; This function uses a non-reentrant model
  2953 ;;
  2954                           
  2955     0026                     _initADC:	
  2956                           ;psect for function _initADC
  2957                           
  2958     0026                     l1366:	
  2959                           ;incstack = 0
  2960                           ; Regs used in _initADC: [wreg]
  2961                           
  2962                           
  2963                           ;pic16f887_4_wires_cooler_control.c: 26:     float voltage = (float) ((float) adcValue /
      +                           1024.0) * 5.0;
  2964     0026  3001               	movlw	1
  2965     0027  1683               	bsf	3,5	;RP0=1, select bank3
  2966     0028  1703               	bsf	3,6	;RP1=1, select bank3
  2967     0029  0088               	movwf	8	;volatile
  2968                           
  2969                           ;pic16f887_4_wires_cooler_control.c: 27:     return (float) voltage / (float) 0.01;
  2970     002A  3001               	movlw	1
  2971     002B  1283               	bcf	3,5	;RP0=0, select bank0
  2972     002C  1303               	bcf	3,6	;RP1=0, select bank0
  2973     002D  009F               	movwf	31	;volatile
  2974                           
  2975                           ;pic16f887_4_wires_cooler_control.c: 28: }
  2976     002E  3080               	movlw	128
  2977     002F  1683               	bsf	3,5	;RP0=1, select bank1
  2978     0030  1303               	bcf	3,6	;RP1=0, select bank1
  2979     0031  009F               	movwf	31	;volatile
  2980     0032                     l32:
  2981     0032  0008               	return
  2982     0033                     __end_of_initADC:
  2983                           
  2984                           	psect	text9
  2985     018A                     __ptext9:	
  2986 ;; *************** function ___flge *****************
  2987 ;; Defined at:
  2988 ;;		line 4 in file "/Applications/microchip/xc8/v2.45/pic/sources/c99/common/flge.c"
  2989 ;; Parameters:    Size  Location     Type
  2990 ;;  ff1             4    0[COMMON] void 
  2991 ;;  ff2             4    4[COMMON] void 
  2992 ;; Auto vars:     Size  Location     Type
  2993 ;;		None
  2994 ;; Return value:  Size  Location     Type
  2995 ;;		None               void
  2996 ;; Registers used:
  2997 ;;		wreg, status,2, status,0
  2998 ;; Tracked objects:
  2999 ;;		On entry : 0/0
  3000 ;;		On exit  : 0/0
  3001 ;;		Unchanged: 0/0
  3002 ;; Data sizes:     COMMON   BANK0   BANK1   BANK3   BANK2
  3003 ;;      Params:         8       0       0       0       0
  3004 ;;      Locals:         0       0       0       0       0
  3005 ;;      Temps:          4       0       0       0       0
  3006 ;;      Totals:        12       0       0       0       0
  3007 ;;Total ram usage:       12 bytes
  3008 ;; Hardware stack levels used: 1
  3009 ;; This function calls:
  3010 ;;		Nothing
  3011 ;; This function is called by:
  3012 ;;		_main
  3013 ;; This function uses a non-reentrant model
  3014 ;;
  3015                           
  3016     018A                     ___flge:	
  3017                           ;psect for function ___flge
  3018                           
  3019     018A                     l1376:	
  3020                           ;incstack = 0
  3021                           ; Regs used in ___flge: [wreg+status,2+status,0]
  3022                           
  3023     018A  3000               	movlw	0
  3024     018B  0570               	andwf	___flge@ff1,w
  3025     018C  00F8               	movwf	??___flge
  3026     018D  3000               	movlw	0
  3027     018E  0571               	andwf	___flge@ff1+1,w
  3028     018F  00F9               	movwf	??___flge+1
  3029     0190  3080               	movlw	128
  3030     0191  0572               	andwf	___flge@ff1+2,w
  3031     0192  00FA               	movwf	??___flge+2
  3032     0193  307F               	movlw	127
  3033     0194  0573               	andwf	___flge@ff1+3,w
  3034     0195  00FB               	movwf	??___flge+3
  3035     0196  087B               	movf	??___flge+3,w
  3036     0197  047A               	iorwf	??___flge+2,w
  3037     0198  0479               	iorwf	??___flge+1,w
  3038     0199  0478               	iorwf	??___flge,w
  3039     019A  1D03               	skipz
  3040     019B  299D               	goto	u1791
  3041     019C  299E               	goto	u1790
  3042     019D                     u1791:
  3043     019D  29A6               	goto	l318
  3044     019E                     u1790:
  3045     019E                     l1378:
  3046     019E  3000               	movlw	0
  3047     019F  00F3               	movwf	___flge@ff1+3
  3048     01A0  3000               	movlw	0
  3049     01A1  00F2               	movwf	___flge@ff1+2
  3050     01A2  3000               	movlw	0
  3051     01A3  00F1               	movwf	___flge@ff1+1
  3052     01A4  3000               	movlw	0
  3053     01A5  00F0               	movwf	___flge@ff1
  3054     01A6                     l318:
  3055     01A6  3000               	movlw	0
  3056     01A7  0574               	andwf	___flge@ff2,w
  3057     01A8  00F8               	movwf	??___flge
  3058     01A9  3000               	movlw	0
  3059     01AA  0575               	andwf	___flge@ff2+1,w
  3060     01AB  00F9               	movwf	??___flge+1
  3061     01AC  3080               	movlw	128
  3062     01AD  0576               	andwf	___flge@ff2+2,w
  3063     01AE  00FA               	movwf	??___flge+2
  3064     01AF  307F               	movlw	127
  3065     01B0  0577               	andwf	___flge@ff2+3,w
  3066     01B1  00FB               	movwf	??___flge+3
  3067     01B2  087B               	movf	??___flge+3,w
  3068     01B3  047A               	iorwf	??___flge+2,w
  3069     01B4  0479               	iorwf	??___flge+1,w
  3070     01B5  0478               	iorwf	??___flge,w
  3071     01B6  1D03               	skipz
  3072     01B7  29B9               	goto	u1801
  3073     01B8  29BA               	goto	u1800
  3074     01B9                     u1801:
  3075     01B9  29C2               	goto	l1382
  3076     01BA                     u1800:
  3077     01BA                     l1380:
  3078     01BA  3000               	movlw	0
  3079     01BB  00F7               	movwf	___flge@ff2+3
  3080     01BC  3000               	movlw	0
  3081     01BD  00F6               	movwf	___flge@ff2+2
  3082     01BE  3000               	movlw	0
  3083     01BF  00F5               	movwf	___flge@ff2+1
  3084     01C0  3000               	movlw	0
  3085     01C1  00F4               	movwf	___flge@ff2
  3086     01C2                     l1382:
  3087     01C2  1FF3               	btfss	___flge@ff1+3,7
  3088     01C3  29C5               	goto	u1811
  3089     01C4  29C6               	goto	u1810
  3090     01C5                     u1811:
  3091     01C5  29EA               	goto	l1386
  3092     01C6                     u1810:
  3093     01C6                     l1384:
  3094     01C6  3000               	movlw	0
  3095     01C7  00F8               	movwf	??___flge
  3096     01C8  3000               	movlw	0
  3097     01C9  00F9               	movwf	??___flge+1
  3098     01CA  3000               	movlw	0
  3099     01CB  00FA               	movwf	??___flge+2
  3100     01CC  3080               	movlw	128
  3101     01CD  00FB               	movwf	??___flge+3
  3102     01CE  0870               	movf	___flge@ff1,w
  3103     01CF  02F8               	subwf	??___flge,f
  3104     01D0  0871               	movf	___flge@ff1+1,w
  3105     01D1  1C03               	skipc
  3106     01D2  0F71               	incfsz	___flge@ff1+1,w
  3107     01D3  29D5               	goto	u1821
  3108     01D4  29D6               	goto	u1822
  3109     01D5                     u1821:
  3110     01D5  02F9               	subwf	??___flge+1,f
  3111     01D6                     u1822:
  3112     01D6  0872               	movf	___flge@ff1+2,w
  3113     01D7  1C03               	skipc
  3114     01D8  0F72               	incfsz	___flge@ff1+2,w
  3115     01D9  29DB               	goto	u1823
  3116     01DA  29DC               	goto	u1824
  3117     01DB                     u1823:
  3118     01DB  02FA               	subwf	??___flge+2,f
  3119     01DC                     u1824:
  3120     01DC  0873               	movf	___flge@ff1+3,w
  3121     01DD  1C03               	skipc
  3122     01DE  0F73               	incfsz	___flge@ff1+3,w
  3123     01DF  29E1               	goto	u1825
  3124     01E0  29E2               	goto	u1826
  3125     01E1                     u1825:
  3126     01E1  02FB               	subwf	??___flge+3,f
  3127     01E2                     u1826:
  3128     01E2  087B               	movf	??___flge+3,w
  3129     01E3  00F3               	movwf	___flge@ff1+3
  3130     01E4  087A               	movf	??___flge+2,w
  3131     01E5  00F2               	movwf	___flge@ff1+2
  3132     01E6  0879               	movf	??___flge+1,w
  3133     01E7  00F1               	movwf	___flge@ff1+1
  3134     01E8  0878               	movf	??___flge,w
  3135     01E9  00F0               	movwf	___flge@ff1
  3136     01EA                     l1386:
  3137     01EA  1FF7               	btfss	___flge@ff2+3,7
  3138     01EB  29ED               	goto	u1831
  3139     01EC  29EE               	goto	u1830
  3140     01ED                     u1831:
  3141     01ED  2A12               	goto	l321
  3142     01EE                     u1830:
  3143     01EE                     l1388:
  3144     01EE  3000               	movlw	0
  3145     01EF  00F8               	movwf	??___flge
  3146     01F0  3000               	movlw	0
  3147     01F1  00F9               	movwf	??___flge+1
  3148     01F2  3000               	movlw	0
  3149     01F3  00FA               	movwf	??___flge+2
  3150     01F4  3080               	movlw	128
  3151     01F5  00FB               	movwf	??___flge+3
  3152     01F6  0874               	movf	___flge@ff2,w
  3153     01F7  02F8               	subwf	??___flge,f
  3154     01F8  0875               	movf	___flge@ff2+1,w
  3155     01F9  1C03               	skipc
  3156     01FA  0F75               	incfsz	___flge@ff2+1,w
  3157     01FB  29FD               	goto	u1841
  3158     01FC  29FE               	goto	u1842
  3159     01FD                     u1841:
  3160     01FD  02F9               	subwf	??___flge+1,f
  3161     01FE                     u1842:
  3162     01FE  0876               	movf	___flge@ff2+2,w
  3163     01FF  1C03               	skipc
  3164     0200  0F76               	incfsz	___flge@ff2+2,w
  3165     0201  2A03               	goto	u1843
  3166     0202  2A04               	goto	u1844
  3167     0203                     u1843:
  3168     0203  02FA               	subwf	??___flge+2,f
  3169     0204                     u1844:
  3170     0204  0877               	movf	___flge@ff2+3,w
  3171     0205  1C03               	skipc
  3172     0206  0F77               	incfsz	___flge@ff2+3,w
  3173     0207  2A09               	goto	u1845
  3174     0208  2A0A               	goto	u1846
  3175     0209                     u1845:
  3176     0209  02FB               	subwf	??___flge+3,f
  3177     020A                     u1846:
  3178     020A  087B               	movf	??___flge+3,w
  3179     020B  00F7               	movwf	___flge@ff2+3
  3180     020C  087A               	movf	??___flge+2,w
  3181     020D  00F6               	movwf	___flge@ff2+2
  3182     020E  0879               	movf	??___flge+1,w
  3183     020F  00F5               	movwf	___flge@ff2+1
  3184     0210  0878               	movf	??___flge,w
  3185     0211  00F4               	movwf	___flge@ff2
  3186     0212                     l321:
  3187     0212  3080               	movlw	128
  3188     0213  06F3               	xorwf	___flge@ff1+3,f
  3189     0214  3080               	movlw	128
  3190     0215  06F7               	xorwf	___flge@ff2+3,f
  3191     0216  0877               	movf	___flge@ff2+3,w
  3192     0217  0273               	subwf	___flge@ff1+3,w
  3193     0218  1D03               	skipz
  3194     0219  2A24               	goto	u1855
  3195     021A  0876               	movf	___flge@ff2+2,w
  3196     021B  0272               	subwf	___flge@ff1+2,w
  3197     021C  1D03               	skipz
  3198     021D  2A24               	goto	u1855
  3199     021E  0875               	movf	___flge@ff2+1,w
  3200     021F  0271               	subwf	___flge@ff1+1,w
  3201     0220  1D03               	skipz
  3202     0221  2A24               	goto	u1855
  3203     0222  0874               	movf	___flge@ff2,w
  3204     0223  0270               	subwf	___flge@ff1,w
  3205     0224                     u1855:
  3206     0224  1803               	skipnc
  3207     0225  2A27               	goto	u1851
  3208     0226  2A28               	goto	u1850
  3209     0227                     u1851:
  3210     0227  2A2A               	goto	l1392
  3211     0228                     u1850:
  3212     0228                     l1390:
  3213     0228  1003               	clrc
  3214     0229  2A2B               	goto	l326
  3215     022A                     l1392:
  3216     022A  1403               	setc
  3217     022B                     l326:
  3218     022B  0008               	return
  3219     022C                     __end_of___flge:
  3220     007E                     btemp	set	126	;btemp
  3221     007E                     wtemp0	set	126
  3222                           
  3223                           	psect	config
  3224                           
  3225                           ;Config register CONFIG1 @ 0x2007
  3226                           ;	Oscillator Selection bits
  3227                           ;	FOSC = INTRC_NOCLKOUT, INTOSCIO oscillator: I/O function on RA6/OSC2/CLKOUT pin, I/O f
      +                          unction on RA7/OSC1/CLKIN
  3228                           ;	Watchdog Timer Enable bit
  3229                           ;	WDTE = OFF, WDT disabled and can be enabled by SWDTEN bit of the WDTCON register
  3230                           ;	Power-up Timer Enable bit
  3231                           ;	PWRTE = OFF, PWRT disabled
  3232                           ;	RE3/MCLR pin function select bit
  3233                           ;	MCLRE = ON, RE3/MCLR pin function is MCLR
  3234                           ;	Code Protection bit
  3235                           ;	CP = OFF, Program memory code protection is disabled
  3236                           ;	Data Code Protection bit
  3237                           ;	CPD = OFF, Data memory code protection is disabled
  3238                           ;	Brown Out Reset Selection bits
  3239                           ;	BOREN = ON, BOR enabled
  3240                           ;	Internal External Switchover bit
  3241                           ;	IESO = 0x1, unprogrammed default
  3242                           ;	Fail-Safe Clock Monitor Enabled bit
  3243                           ;	FCMEN = 0x1, unprogrammed default
  3244                           ;	Low Voltage Programming Enable bit
  3245                           ;	LVP = OFF, RB3 pin has digital I/O, HV on MCLR must be used for programming
  3246                           ;	In-Circuit Debugger Mode bit
  3247                           ;	DEBUG = 0x1, unprogrammed default
  3248     2007                     	org	8199
  3249     2007  2FF4               	dw	12276

Data Sizes:
    Strings     0
    Constant    0
    Data        0
    BSS         0
    Persistent  0
    Stack       0

Auto Spaces:
    Space          Size  Autos    Used
    COMMON           14     14      14
    BANK0            80     69      69
    BANK1            80      0       0
    BANK3            96      0       0
    BANK2            96      0       0

Pointer List with Targets:

    None.

Critical Paths under _main in COMMON

    _readTemperature->___xxtofl
    ___flmul->___xxtofl
    ___fldiv->___xxtofl

Critical Paths under _main in BANK0

    _main->_readTemperature
    _readTemperature->___flmul
    ___flmul->___fldiv

Critical Paths under _main in BANK1

    None.

Critical Paths under _main in BANK3

    None.

Critical Paths under _main in BANK2

    None.

Call Graph Tables:

 ---------------------------------------------------------------------------------
 (Depth) Function   	        Calls       Base Space   Used Autos Params    Refs
 ---------------------------------------------------------------------------------
 (0) _main                                                 7     7      0    4991
                                             62 BANK0      7     7      0
                             ___flge
                            _initADC
                            _initPWM
                    _readTemperature
 ---------------------------------------------------------------------------------
 (1) _readTemperature                                     10     6      4    4286
                                             52 BANK0     10     6      4
                            ___fldiv
                            ___flmul
                           ___xxtofl
                            _readADC
 ---------------------------------------------------------------------------------
 (2) _readADC                                              2     0      2       0
                                              0 COMMON     2     0      2
 ---------------------------------------------------------------------------------
 (2) ___xxtofl                                            14    10      4     398
                                              0 COMMON    14    10      4
 ---------------------------------------------------------------------------------
 (2) ___flmul                                             26    18      8    2417
                                             26 BANK0     26    18      8
                          __Umul8_16
                            ___fldiv (ARG)
                           ___xxtofl (ARG)
 ---------------------------------------------------------------------------------
 (3) __Umul8_16                                            9     7      2     799
                                              0 COMMON     9     7      2
 ---------------------------------------------------------------------------------
 (2) ___fldiv                                             26    18      8    1425
                                              0 BANK0     26    18      8
                           ___xxtofl (ARG)
 ---------------------------------------------------------------------------------
 (1) _initPWM                                              0     0      0       0
 ---------------------------------------------------------------------------------
 (1) _initADC                                              0     0      0       0
 ---------------------------------------------------------------------------------
 (1) ___flge                                              12     4      8     638
                                              0 COMMON    12     4      8
 ---------------------------------------------------------------------------------
 Estimated maximum stack depth 3
 ---------------------------------------------------------------------------------

 Call Graph Graphs:

 _main (ROOT)
   ___flge
   _initADC
   _initPWM
   _readTemperature
     ___fldiv
       ___xxtofl (ARG)
     ___flmul
       __Umul8_16
       ___fldiv (ARG)
       ___xxtofl (ARG)
     ___xxtofl
     _readADC

 Address spaces:
Name               Size   Autos  Total    Cost      Usage
BITCOMMON            E      0       0       0        0.0%
EEDATA             100      0       0       0        0.0%
NULL                 0      0       0       0        0.0%
CODE                 0      0       0       0        0.0%
COMMON               E      E       E       1      100.0%
BITSFR0              0      0       0       1        0.0%
SFR0                 0      0       0       1        0.0%
BITSFR1              0      0       0       2        0.0%
SFR1                 0      0       0       2        0.0%
STACK                0      0       0       2        0.0%
ABS                  0      0       0       3        0.0%
BITBANK0            50      0       0       4        0.0%
BITSFR3              0      0       0       4        0.0%
SFR3                 0      0       0       4        0.0%
BANK0               50     45      45       5       86.2%
BITSFR2              0      0       0       5        0.0%
SFR2                 0      0       0       5        0.0%
BITBANK1            50      0       0       6        0.0%
BANK1               50      0       0       7        0.0%
BITBANK3            60      0       0       8        0.0%
BANK3               60      0       0       9        0.0%
BITBANK2            60      0       0      10        0.0%
BANK2               60      0       0      11        0.0%
DATA                 0      0       0      12        0.0%


Microchip Technology PIC Macro Assembler V2.45 build 20230818022343 
Symbol Table                                                                                   Sat Jan  6 12:24:05 2024

           ___fldiv@aexp 0039             ___fldiv@bexp 0038             ___fldiv@sign 0031  
                     l32 0032                       l41 00EB                       l35 0036  
                     l29 0055                       l38 0040                       l48 0178  
    __Umul8_16@word_mpld 0076                      l321 0212                      l326 022B  
                    l318 01A6                      l521 04AC                      l513 042C  
                    l519 049E                      l543 076B                      l537 07FB  
                    l556 006A                      l549 07EF                      l581 024E  
                    l558 007C                      l583 02E3                      l497 033A  
                    l594 02AD                      l499 04B6                      l595 02B9  
                    l587 0291                      _PR2 0092                      u950 0064  
                    u951 0063                      u970 0078                      u971 0077  
                    u980 003A                      u965 006B                      u981 0039  
                    u990 02F1                      u991 02F0             ___flmul@aexp 004C  
           ___flmul@bexp 004D             ___flmul@sign 0047             ___flmul@temp 0052  
           ___flmul@prod 004E                     l1010 0059                     l1100 03B1  
                   l1012 0060                     l1102 03BA                     l1110 03DF  
                   l1030 02E9                     l1014 0064                     l1022 0033  
                   l1120 03FC                     l1112 03E5                     l1104 03CC  
                   l1040 02FC                     l1032 02ED                     l1016 0073  
                   l1008 0057                     l1200 04F9                     l1024 003A  
                   l1130 0411                     l1122 03FD                     l1114 03ED  
                   l1106 03CD                     l1050 0314                     l1042 0304  
                   l1034 02F1                     l1018 0078                     l1210 0515  
                   l1202 0501                     l1140 0436                     l1132 0415  
                   l1124 0406                     l1116 03EF                     l1108 03DB  
                   l1060 0327                     l1052 0318                     l1044 0305  
                   l1036 02F2                     l1028 02E4                     l1300 07E5  
                   l1220 0554                     l1204 0503                     l1150 0474  
                   l1142 0444                     l1134 0429                     l1118 03F8  
                   l1126 040C                     l1070 034E                     l1062 032F  
                   l1054 031C                     l1038 02F7                     l1046 0307  
                   l1302 07E9                     l1230 05DB                     l1222 0570  
                   l1214 051E                     l1206 050B                     l1310 022D  
                   l1160 04A2                     l1152 0482                     l1144 0448  
                   l1128 0410                     l1072 0352                     l1064 0330  
                   l1056 031D                     l1048 030F                     l1304 07EA  
                   l1240 0648                     l1232 05E9                     l1224 059A  
                   l1216 052C                     l1208 0510                     l1312 0232  
                   l1400 00FA                     l1162 04A6                     l1154 0491  
                   l1146 0461                     l1138 0431                     l1090 0393  
                   l1082 0369                     l1058 0322                     l1066 0332  
                   l1306 07F3                     l1250 06EF                     l1242 0665  
                   l1234 0606                     l1226 05B6                     l1218 0539  
                   l1170 04B7                     l1330 027A                     l1322 025F  
                   l1314 0236                     l1410 0139                     l1402 0109  
                   l1164 04A8                     l1156 0495                     l1148 0467  
                   l1092 0395                     l1084 037B                     l1068 0342  
                   l1076 035B                     l1260 073B                     l1252 0717  
                   l1244 0690                     l1236 0614                     l1228 05D2  
                   l1180 04CA                     l1172 04BC                     l1340 02B1  
                   l1332 0288                     l1324 0262                     l1316 0246  
                   l1412 0154                     l1404 010C                     l1158 049D  
                   l1094 039A                     l1086 0383                     l1078 0360  
                   l1270 0750                     l1262 073C                     l1254 0720  
                   l1246 069E                     l1238 0631                     l1190 04E6  
                   l1182 04CF                     l1174 04C0                     l1350 02DB  
                   l1342 02BB                     l1334 0298                     l1326 026F  
                   l1318 0256                     l1414 0159                     l1406 011B  
                   l1360 004A                     l1096 03AC                     l1088 038B  
                   l1280 0775                     l1272 0754                     l1264 0745  
                   l1256 072E                     l1248 06C9                     l1192 04EA  
                   l1184 04D7                     l1176 04C4                     l1344 02D1  
                   l1336 02A3                     l1328 0276                     l1416 0174  
                   l1408 0134                     l1362 004E                     l1354 0041  
                   l1098 03B0                     l1290 07B3                     l1282 0783  
                   l1274 0768                     l1258 0737                     l1266 074B  
                   l1194 04EE                     l1186 04D9                     l1178 04C5  
                   l1346 02D6                     l1338 02A7                     l1370 0088  
                   l1380 01BA                     l1364 0053                     l1356 0045  
                   l1292 07BE                     l1284 0787                     l1268 074F  
                   l1196 04EF                     l1188 04E1                     l1348 02DA  
                   l1372 00CC                     l1390 0228                     l1382 01C2  
                   l1366 0026                     l1358 0046                     l1294 07CD  
                   l1286 07A0                     l1278 0770                     l1198 04F4  
                   l1392 022A                     l1384 01C6                     l1376 018A  
                   l1296 07D7                     l1288 07A6                     l1368 007D  
                   l1386 01EA                     l1378 019E                     l1298 07D9  
                   l1388 01EE                     l1396 00EC                     l1398 00F6  
                   u1000 02F7                     u1001 02F6                     u1010 02FC  
                   u1011 02FB                     u1100 03B0                     u1020 031C  
                   u1101 03AF                     u1021 031B                     u1030 0322  
                   u1031 0321                     u1200 0429                     u1120 03CC  
                   u1040 0327                     u1201 0428                     u1121 03CB  
                   u1041 0326                     u1210 0430                     u1130 03E5  
                   u1050 0342                     u1211 042F                     u1131 03E4  
                   u1115 03B3                     u1051 0341                     u1220 0436  
                   u1140 03ED                     u1060 0360                     u1300 04CF  
                   u1221 0435                     u1141 03EC                     u1125 03C8  
                   u1061 035F                     u1301 04CE                     u1230 0448  
                   u1070 039A                     u1310 04EE                     u1231 0447  
                   u1071 0399                     u1311 04ED                     u1240 0457  
                   u1160 03FC                     u1320 04F4                     u1161 03FB  
                   u1321 04F3                     u1250 0474                     u1330 04F9  
                   u1251 0473                     u1155 03F1                     u1411 05F8  
                   u1331 04F8                     u1260 0491                     u1180 0410  
                   u1412 05FF                     u1340 0510                     u1261 0490  
                   u1245 0452                     u1181 040F                     u1085 039C  
                   u1501 0709                     u1421 0623                     u1413 0606  
                   u1405 05D4                     u1341 050F                     u1270 04A6  
                   u1190 0415                     u1502 0710                     u1422 062A  
                   u1350 0515                     u1271 04A5                     u1255 0470  
                   u1191 0414                     u1175 03FF                     u1095 03A5  
                   u1503 0717                     u1423 0631                     u1351 0514  
                   u1600 0787                     u1280 04C4                     u1265 048D  
                   u1601 0786                     u1441 0657                     u1361 0562  
                   u1281 04C3                     u1610 0796                     u1530 073B  
                   u1442 065E                     u1362 0569                     u1290 04CA  
                   u1531 073A                     u1515 0719                     u1451 0682  
                   u1443 0665                     u1435 0633                     u1371 057E  
                   u1363 0570                     u1291 04C9                     u1620 07B3  
                   u1452 0689                     u1372 0585                     u1621 07B2  
                   u1525 0730                     u1461 06AD                     u1453 0690  
                   u1381 05A8                     u1373 058C                     u1630 07CD  
                   u1550 074F                     u1470 06D5                     u1462 06B4  
                   u1382 05AF                     u1710 0297                     u1631 07CC  
                   u1615 0791                     u1551 074E                     u1463 06BB  
                   u1391 05C4                     u1383 05B6                     u1711 0296  
                   u1800 01BA                     u1640 07E9                     u1560 0754  
                   u1392 05CB                     u1801 01B9                     u1641 07E8  
                   u1625 07AF                     u1561 0753                     u1545 073E  
                   u1481 06E1                     u1393 05D2                     u1705 0289  
                   u1810 01C6                     u1570 0768                     u1490 06FD  
                   u1482 06E8                     u1730 02A7                     u1650 0232  
                   u1811 01C5                     u1635 07C9                     u1571 0767  
                   u1483 06EF                     u1475 06D0                     u1731 02A6  
                   u1651 0231                     u1580 076F                     u1740 02AD  
                   u1660 0236                     u1821 01D5                     u1581 076E  
                   u1741 02AC                     u1725 029C                     u1661 0235  
                   u1830 01EE                     u1822 01D6                     u1590 0775  
                   u1750 02B1                     u1670 0256                     u1831 01ED  
                   u1823 01DB                     u1591 0774                     u1495 06F8  
                   u1751 02B0                     u1671 0255                     u1824 01DC  
                   u1760 02C6                     u1841 01FD                     u1825 01E1  
                   u1850 0228                     u1842 01FE                     u1826 01E2  
                   u1770 02D6                     u1690 0275                     u1851 0227  
                   u1843 0203                     u1771 02D5                     u1691 0274  
                   u1907 0180                     u1844 0204                     u1780 02DA  
                   u1860 0134                     u1845 0209                     u1781 02D9  
                   u1765 02C1                     u1685 0267                     u1861 0133  
                   u1846 020A                     u1790 019E                     u1870 0154  
                   u1855 0224                     u1791 019D                     u1871 0153  
                   u1880 0174                     u1881 0173                     u1897 0102  
                   _main 00EC                     btemp 007E                     start 0000  
        ___fldiv@new_exp 0032                    ?_main 0070          __end_of___fldiv 04B7  
        __end_of___flmul 07FC                    _ANSEL 0188                    _T2CON 0012  
                  _TRISC 0087          __end_of_initADC 0033          __end_of_readADC 0041  
        __end_of_initPWM 0056                    status 0003                    wtemp0 007E  
        __initialization 07FC             __end_of_main 018A                   ??_main 005E  
        _readTemperature 007D                   _ADCON0 001F                   _ADCON1 009F  
                 _ADRESH 001E                   _ADRESL 009E                   _CCPR1L 0015  
                 _OSCCON 008F         __end_of___xxtofl 02E4                   ___flge 018A  
              ??___fldiv 0028                ??___flmul 0042                ??_initADC 0070  
              ??_readADC 0072                ??_initPWM 0070               ___flge@ff1 0070  
             ___flge@ff2 0074             ___xxtofl@arg 007A             ___xxtofl@exp 0079  
           ___xxtofl@val 0070  __end_of__initialization 07FC           __pcstackCOMMON 0070  
__end_of_readTemperature 00EC        __end_of__Umul8_16 007D               __pmaintext 00EC  
                ?___flge 0070                  _CCP1CON 0017                ?___xxtofl 0070  
 readTemperature@voltage 0058                  ___fldiv 02E4                  ___flmul 04B7  
       ?_readTemperature 0054                  __ptext1 007D                  __ptext2 0033  
                __ptext3 022C                  __ptext4 04B7                  __ptext5 0056  
                __ptext6 02E4                  __ptext7 0041                  __ptext8 0026  
                __ptext9 018A                  _initADC 0026                  _readADC 0033  
                _initPWM 0041               ??___xxtofl 0074     end_of_initialization 07FC  
          ___xxtofl@sign 0078              ___fldiv@grs 0034              ___fldiv@rem 002D  
            ___flmul@grs 0048           __end_of___flge 022C      start_initialization 07FC  
               ??___flge 0078                __Umul8_16 0056                ___fldiv@a 0020  
              ___fldiv@b 0024                ___flmul@a 003E                ___flmul@b 003A  
              ___latbits 0002            __pcstackBANK0 0020                 ?___fldiv 0020  
               ?___flmul 003A               ?__Umul8_16 0070                 ?_initADC 0070  
               ?_readADC 0070                 ?_initPWM 0070  readTemperature@adcValue 005C  
             _ADCON0bits 001F              ??__Umul8_16 0072                 ___xxtofl 022C  
        main@temperature 0061        ??_readTemperature 007E   __Umul8_16@multiplicand 0070  
   __Umul8_16@multiplier 0078        __Umul8_16@product 0074  
